
UART1.elf:     file format elf32-littleriscv
UART1.elf
architecture: riscv:rv32, flags 0x00000112:
EXEC_P, HAS_SYMS, D_PAGED
start address 0x00000000

Program Header:
    LOAD off    0x00001000 vaddr 0x00000000 paddr 0x00000000 align 2**12
         filesz 0x00000004 memsz 0x00000004 flags r-x
    LOAD off    0x00002000 vaddr 0x20000000 paddr 0x00000004 align 2**12
         filesz 0x0000107c memsz 0x0000107c flags r-x
    LOAD off    0x00003080 vaddr 0x00001080 paddr 0x00001080 align 2**12
         filesz 0x00002aa0 memsz 0x00002aa0 flags r-x
    LOAD off    0x0000607c vaddr 0x2000107c paddr 0x00003b20 align 2**12
         filesz 0x00000074 memsz 0x00000568 flags rw-
    LOAD off    0x00006600 vaddr 0x20006600 paddr 0x20006600 align 2**12
         filesz 0x00000000 memsz 0x00000200 flags rw-

Sections:
Idx Name            Size      VMA       LMA       File off  Algn  Flags
  0 .init           00000004  00000000  00000000  00001000  2**1  CONTENTS, ALLOC, LOAD, READONLY, CODE
  1 .highcodelalign 00000000  00000004  00000004  000060f0  2**0  CONTENTS
  2 .highcode       0000107c  20000000  00000004  00002000  2**1  CONTENTS, ALLOC, LOAD, READONLY, CODE
  3 .text           00002aa0  00001080  00001080  00003080  2**2  CONTENTS, ALLOC, LOAD, READONLY, CODE
  4 .fini           00000000  00003b20  00003b20  000060f0  2**0  CONTENTS, ALLOC, LOAD, CODE
  5 .dalign         00000000  2000107c  2000107c  000060f0  2**0  CONTENTS
  6 .dlalign        00000000  00003b20  00003b20  000060f0  2**0  CONTENTS
  7 .data           00000074  2000107c  00003b20  0000607c  2**2  CONTENTS, ALLOC, LOAD, DATA
  8 .bss            000004f4  200010f0  00003b94  000060f0  2**2  ALLOC
  9 .stack          00000200  20006600  20006600  00006600  2**0  ALLOC
 10 .debug_info     0000ac12  00000000  00000000  000060f0  2**0  CONTENTS, READONLY, DEBUGGING
 11 .debug_abbrev   00001c7b  00000000  00000000  00010d02  2**0  CONTENTS, READONLY, DEBUGGING
 12 .debug_aranges  000003d8  00000000  00000000  00012980  2**3  CONTENTS, READONLY, DEBUGGING
 13 .debug_ranges   000005a8  00000000  00000000  00012d58  2**3  CONTENTS, READONLY, DEBUGGING
 14 .debug_line     00006455  00000000  00000000  00013300  2**0  CONTENTS, READONLY, DEBUGGING
 15 .debug_str      00001a4a  00000000  00000000  00019755  2**0  CONTENTS, READONLY, DEBUGGING
 16 .comment        00000033  00000000  00000000  0001b19f  2**0  CONTENTS, READONLY
 17 .debug_frame    00001544  00000000  00000000  0001b1d4  2**2  CONTENTS, READONLY, DEBUGGING
 18 .debug_loc      00001c04  00000000  00000000  0001c718  2**0  CONTENTS, READONLY, DEBUGGING
 19 .stab           00000084  00000000  00000000  0001e31c  2**2  CONTENTS, READONLY, DEBUGGING
 20 .stabstr        00000117  00000000  00000000  0001e3a0  2**0  CONTENTS, READONLY, DEBUGGING
SYMBOL TABLE:
00000000 l    d  .init	00000000 .init
00000004 l    d  .highcodelalign	00000000 .highcodelalign
20000000 l    d  .highcode	00000000 .highcode
00001080 l    d  .text	00000000 .text
00003b20 l    d  .fini	00000000 .fini
2000107c l    d  .dalign	00000000 .dalign
00003b20 l    d  .dlalign	00000000 .dlalign
2000107c l    d  .data	00000000 .data
200010f0 l    d  .bss	00000000 .bss
20006600 l    d  .stack	00000000 .stack
00000000 l    d  .debug_info	00000000 .debug_info
00000000 l    d  .debug_abbrev	00000000 .debug_abbrev
00000000 l    d  .debug_aranges	00000000 .debug_aranges
00000000 l    d  .debug_ranges	00000000 .debug_ranges
00000000 l    d  .debug_line	00000000 .debug_line
00000000 l    d  .debug_str	00000000 .debug_str
00000000 l    d  .comment	00000000 .comment
00000000 l    d  .debug_frame	00000000 .debug_frame
00000000 l    d  .debug_loc	00000000 .debug_loc
00000000 l    d  .stab	00000000 .stab
00000000 l    d  .stabstr	00000000 .stabstr
00000000 l    df *ABS*	00000000 ./Startup/startup_CH592.o
20000000 l       .highcode	00000000 _vector_base
00000000 l    df *ABS*	00000000 CH59x_sys.c
200010e0 l     O .data	00000004 curbrk.3969
00000000 l    df *ABS*	00000000 my_interface.c
20001180 l     O .bss	00000020 i2c_master_buffer
200011a0 l     O .bss	00000020 i2c_slave_rxbuffer
200011c0 l     O .bss	00000020 i2c_slave_txbuffer
200010f0 l     O .bss	00000001 i2c_error
200010f1 l     O .bss	00000001 i2c_in_repstart
200010f2 l     O .bss	00000001 i2c_master_buffer_index
200010f3 l     O .bss	00000001 i2c_master_buffer_length
200010f4 l     O .bss	00000001 i2c_send_stop
200010f5 l     O .bss	00000001 i2c_slave_addr_rw
200010f6 l     O .bss	00000001 i2c_slave_rxbuffer_index
200010f7 l     O .bss	00000001 i2c_slave_txbuffer_index
200010f8 l     O .bss	00000001 i2c_slave_txbuffer_length
200010f9 l     O .bss	00000001 i2c_state
200010fa l     O .bss	00000001 is_nack_sent
200010fc l     O .bss	00000004 slave_cb
00000000 l    df *ABS*	00000000 ISP583.c
20000c66 l       .highcode	00000000 .loop18
20000c74 l       .highcode	00000000 .loop29
20000c82 l       .highcode	00000000 .loop40
20000f0e l       .highcode	00000000 .loop402
00000000 l    df *ABS*	00000000 Main.c
00000000 l    df *ABS*	00000000 CH59x_gpio.c
00000000 l    df *ABS*	00000000 CH59x_i2c.c
00000000 l    df *ABS*	00000000 CH59x_uart1.c
00000000 l    df *ABS*	00000000 code.c
00000000 l    df *ABS*	00000000 my_module.c
00000000 l    df *ABS*	00000000 my_tool.c
200011e0 l     O .bss	00000400 result.4415
00000000 l    df *ABS*	00000000 extendsfdf2.c
00000000 l    df *ABS*	00000000 libgcc2.c
00000000 l    df *ABS*	00000000 memcpy.c
00000000 l    df *ABS*	00000000 printf.c
00000000 l    df *ABS*	00000000 putchar.c
00000000 l    df *ABS*	00000000 puts.c
00000000 l    df *ABS*	00000000 snprintf.c
00000000 l    df *ABS*	00000000 strcat.c
00000000 l    df *ABS*	00000000 wbuf.c
00000000 l    df *ABS*	00000000 wsetup.c
00000000 l    df *ABS*	00000000 fflush.c
00000000 l    df *ABS*	00000000 findfp.c
00002434 l     F .text	0000006a std
00000000 l    df *ABS*	00000000 fwalk.c
00000000 l    df *ABS*	00000000 makebuf.c
00000000 l    df *ABS*	00000000 nano-mallocr.c
00000000 l    df *ABS*	00000000 nano-mallocr.c
00000000 l    df *ABS*	00000000 nano-vfprintf.c
00000000 l    df *ABS*	00000000 nano-vfprintf.c
00002c44 l     F .text	0000002a __sfputc_r
00000000 l    df *ABS*	00000000 nano-vfprintf_i.c
00000000 l    df *ABS*	00000000 putc.c
00000000 l    df *ABS*	00000000 sbrkr.c
00000000 l    df *ABS*	00000000 stdio.c
00000000 l    df *ABS*	00000000 writer.c
00000000 l    df *ABS*	00000000 closer.c
00000000 l    df *ABS*	00000000 fstatr.c
00000000 l    df *ABS*	00000000 isattyr.c
00000000 l    df *ABS*	00000000 lseekr.c
00000000 l    df *ABS*	00000000 memchr.c
00000000 l    df *ABS*	00000000 memmove.c
00000000 l    df *ABS*	00000000 mlock.c
00000000 l    df *ABS*	00000000 nano-mallocr.c
00000000 l    df *ABS*	00000000 readr.c
00000000 l    df *ABS*	00000000 nano-mallocr.c
00000000 l    df *ABS*	00000000 close.c
00000000 l    df *ABS*	00000000 fstat.c
00000000 l    df *ABS*	00000000 isatty.c
00000000 l    df *ABS*	00000000 lseek.c
00000000 l    df *ABS*	00000000 read.c
00000000 l    df *ABS*	00000000 libgcc2.c
00000000 l    df *ABS*	00000000 impure.c
2000107c l     O .data	00000060 impure_data
00000000 l    df *ABS*	00000000 reent.c
0000362a g     F .text	00000014 _malloc_usable_size_r
00001f2a g     F .text	0000002a putchar
000034ea g     F .text	00000028 _isatty_r
00001646 g     F .text	00000028 UART1_SendString
00001f54 g     F .text	000000da _puts_r
000016cc g     F .text	00000048 USART_APP_Init
00003512 g     F .text	0000002c _lseek_r
20000c82 g     F .highcode	0000000e FLASH_ROM_OUT
00001eea g     F .text	00000040 printf
200018e0 g       .data	00000000 __global_pointer$
000014d2 g     F .text	0000000e I2C_ReceiveData
0000342e g     F .text	00000036 __sseek
000024ee g     F .text	0000006a __sinit
000020c8 g     F .text	000000c0 __swbuf_r
20000310 g     F .highcode	0000000e mDelayuS
2000028e  w    F .highcode	00000082 HardFault_Handler
000024a8 g     F .text	00000046 __sfmoreglue
20000090  w      .highcode	00000000 GPIOB_IRQHandler
000014e0 g     F .text	00000016 I2C_GetLastEvent
000035a4 g     F .text	00000002 __malloc_unlock
20000090  w      .highcode	00000000 GPIOA_IRQHandler
00001a38 g     F .text	00000010 I2C_1_Write
20000090  w      .highcode	00000000 SysTick_Handler
0000166e g     F .text	0000002a UART1_RecvString
00003558 g     F .text	0000004a memmove
00002038 g     F .text	00000070 snprintf
20000090  w      .highcode	00000000 NMI_Handler
20000346 g     F .highcode	00000096 UART1_IRQHandler
000034c0 g     F .text	0000002a _fstat_r
200015e0 g     O .bss	00000004 errno
200010f0 g       .bss	00000000 _sbss
00000200 g       *ABS*	00000000 __stack_size
00001698 g     F .text	00000018 CODE_INIT
000016b0 g     F .text	00000014 CODE_SELF_TEST
20000c74 g     F .highcode	0000000e FLASH_ROM_IN
20000090  w      .highcode	00000000 UART0_IRQHandler
000014aa g     F .text	0000001e I2C_ITConfig
00001e34 g     F .text	000000b6 memcpy
0000249e g     F .text	0000000a _cleanup_r
000029c8 g     F .text	0000027c _svfprintf_r
00001bfa g     F .text	0000003c my_qmc5883_self_test
0000202e g     F .text	0000000a puts
0000161c g     F .text	0000002a UART1_INTCfg
0000364a g     F .text	0000000c _fstat
00000004 g       .init	00000000 _einit
20000090  w      .highcode	00000000 BB_IRQHandler
20000d10 g     F .highcode	0000036a FLASH_EEPROM_CMD
20000090  w      .highcode	00000000 Break_Point_Handler
0000139e g     F .text	000000a6 GPIOB_ModeCfg
00003386 g     F .text	0000002a _sbrk_r
00001602 g     F .text	0000001a UART1_ByteTrigCfg
20000090  w      .highcode	00000000 TMR0_IRQHandler
00001b4c g     F .text	0000002c QMC5883_Init
000035fe g     F .text	0000002c _read_r
20000c54 g     F .highcode	00000012 FLASH_ROM_BEG
00001d12 g     F .text	000000ac .hidden __extendsfdf2
2000031e g     F .highcode	00000028 mDelaymS
20000090  w      .highcode	00000000 Ecall_M_Mode_Handler
20006600 g       .stack	00000000 _heap_end
00003656 g     F .text	0000000c _isatty
00003b1c g     O .text	00000004 _global_impure_ptr
20000c90 g     F .highcode	00000048 FLASH_ROM_ADDR
20001104 g     O .bss	00000006 qmc5883_mag
000035a6 g     F .text	00000058 _realloc_r
000014c8 g     F .text	0000000a I2C_SendData
00001570 g     F .text	00000030 _sbrk
00001a48 g     F .text	00000098 I2C_Driver_Read
20000090  w      .highcode	00000000 RTC_IRQHandler
200015e4 g       .bss	00000000 _ebss
000015d0 g     F .text	00000032 UART1_DefInit
2000110c g     O .bss	00000006 temp_qmc5883
20000cd8 g     F .highcode	00000038 FLASH_ROM_WAIT
00003300 g     F .text	00000086 _putc_r
000020a8 g     F .text	00000020 strcat
00001444 g     F .text	00000022 I2C_GenerateSTART
00003a80 g     O .text	00000020 __sf_fake_stderr
00002038 g     F .text	00000070 sniprintf
20000090  w      .highcode	00000000 UART2_IRQHandler
20000090  w      .highcode	00000000 PWMX_IRQHandler
000028de g     F .text	000000ea __ssputs_r
00001dbe g     F .text	00000076 .hidden __clzsi2
00002c6e g     F .text	00000042 __sfputs_r
0000353e g     F .text	0000001a memchr
000017be g     F .text	00000054 I2C_Driver_Stop
0000275c g     F .text	000000a8 _free_r
00000000 g       .init	00000000 _start
00003662 g     F .text	0000000c _lseek
20000090  w      .highcode	00000000 ADC_IRQHandler
20000000 g       .highcode	00000000 _highcode_vma_start
00001714 g     F .text	00000042 i2c_app_init
20000090  w      .highcode	00000000 TMR2_IRQHandler
00001948 g     F .text	000000a8 I2C_Driver_Write
00003498 g     F .text	00000028 _close_r
000014f6 g     F .text	00000012 I2C_ClearFlag
2000107c g       .data	00000000 _data_vma
20000092 g     F .highcode	000001a2 SetSysClock
20000090  w      .highcode	00000000 USB_IRQHandler
00002188 g     F .text	0000010c __swsetup_r
00002558 g     F .text	000000a0 __sfp
000033b0 g     F .text	00000030 __sread
000035a2 g     F .text	00000002 __malloc_lock
000023d0 g     F .text	00000064 _fflush_r
00003aa0 g     O .text	00000020 __sf_fake_stdin
00001b78 g     F .text	00000082 QMC5883_Read_Mag
00001b3e g     F .text	0000000e I2C_1_Read
200003dc g     F .highcode	00000878 I2C_IRQHandler
0000112a g     F .text	000000a8 memset
000012f0 g     F .text	00000008 main
20001100 g     O .bss	00000001 trigB
00003464 g     F .text	00000006 __sclose
000016c4 g     F .text	00000008 CODE_MAIN
00002804 g     F .text	000000da _malloc_r
000011d2 g     F .text	0000011e strcmp
00000004 g       .highcodelalign	00000000 _highcode_lma
00001ae0 g     F .text	0000005e I2C_APP_Read_Single_Byte
00001eea g     F .text	00000040 iprintf
00003980 g     O .text	00000100 .hidden __clz_tab
20000090  w      .highcode	00000000 LLE_IRQHandler
00000000 g       .init	00000000 _sinit
0000346a g     F .text	0000002e _write_r
00002f4c g     F .text	0000010c _printf_common
200010ec g     O .data	00000004 _impure_ptr
00002294 g     F .text	0000013c __sflush_r
000029c8 g     F .text	0000027c _svfiprintf_r
20000090  w      .highcode	00000000 WDOG_BAT_IRQHandler
20000090  w      .highcode	00000000 Ecall_U_Mode_Handler
2000111c g     O .bss	00000064 RxBuff
20000090  w      .highcode	00000000 TMR3_IRQHandler
20006800 g       .stack	00000000 _eusrstack
20000090  w      .highcode	00000000 SW_Handler
00001c36 g     F .text	000000dc muti_printf_arrays
000012f8 g     F .text	000000a6 GPIOA_ModeCfg
00002664 g     F .text	0000005a __swhatbuf_r
00001508 g     F .text	00000040 GetSysClock
00001548 g     F .text	00000028 _write
200010f0 g       .data	00000000 _edata
20000090  w      .highcode	00000000 SPI0_IRQHandler
200015e4 g       .bss	00000000 _end
2000107c g       .highcode	00000000 _highcode_vma_end
00003b20 g       .dlalign	00000000 _data_lma
000033e0 g     F .text	0000004e __swrite
000018f6 g     F .text	00000052 I2C_Driver_NAck
00002cb0 g     F .text	0000029c _vfiprintf_r
000025f8 g     F .text	0000006c _fwalk_reent
00001760 g     F .text	0000005e I2C_Driver_Start
00003ac0 g     O .text	00000020 __sf_fake_stdout
0000366e g     F .text	0000000c _read
00001080  w      .text	00000000 handle_reset
000026be g     F .text	0000009e __smakebuf_r
00001488 g     F .text	00000022 I2C_AcknowledgeConfig
00001894 g     F .text	00000062 I2C_Driver_Ack
00003058 g     F .text	000002a8 _printf_i
20000090  w      .highcode	00000000 UART3_IRQHandler
20001118 g     O .bss	00000004 __malloc_sbrk_start
00001466 g     F .text	00000022 I2C_GenerateSTOP
20000c66 g     F .highcode	0000000e FLASH_ROM_END
00001756 g     F .text	0000000a i2c_delay
20001114 g     O .bss	00000004 __malloc_free_list
200010e4 g     O .data	00000006 I2C_Class_1
00002cb0 g     F .text	0000029c _vfprintf_r
00001812 g     F .text	00000082 I2C_Driver_Wait_Ack
20000090  w      .highcode	00000000 TMR1_IRQHandler
000019f0 g     F .text	00000048 I2C_APP_Write_Single_Byte
20000234 g     F .highcode	0000005a SYS_ResetExecute
0000363e g     F .text	0000000c _close
000015a0 g     F .text	00000030 UART1_BaudRateCfg



Disassembly of section .init:

00000000 <_sinit>:
_start():
c:/Users/Administrator/Documents/MyCode/0331/ch582m/SRC/Startup/startup_CH592.S:17

	.section	.init,"ax",@progbits
	.global	_start
	.align	1
_start:
	j	handle_reset
   0:	0800106f          	j	1080 <handle_reset>

Disassembly of section .highcode:

20000000 <_highcode_vma_start>:
	...
_vector_base():
20000008:	0090                	addi	a2,sp,64
2000000a:	2000                	fld	fs0,0(s0)
2000000c:	028e                	slli	t0,t0,0x3
2000000e:	2000                	fld	fs0,0(s0)
20000010:	bda9                	j	1ffffe6a <_data_lma+0x1fffc34a>
20000012:	f5f9                	bnez	a1,1fffffe0 <_data_lma+0x1fffc4c0>
20000014:	0090                	addi	a2,sp,64
20000016:	2000                	fld	fs0,0(s0)
	...
20000020:	0090                	addi	a2,sp,64
20000022:	2000                	fld	fs0,0(s0)
20000024:	0090                	addi	a2,sp,64
20000026:	2000                	fld	fs0,0(s0)
	...
20000030:	0090                	addi	a2,sp,64
20000032:	2000                	fld	fs0,0(s0)
20000034:	0000                	unimp
20000036:	0000                	unimp
20000038:	0090                	addi	a2,sp,64
2000003a:	2000                	fld	fs0,0(s0)
2000003c:	0000                	unimp
2000003e:	0000                	unimp
20000040:	0090                	addi	a2,sp,64
20000042:	2000                	fld	fs0,0(s0)
20000044:	0090                	addi	a2,sp,64
20000046:	2000                	fld	fs0,0(s0)
20000048:	0090                	addi	a2,sp,64
2000004a:	2000                	fld	fs0,0(s0)
2000004c:	0090                	addi	a2,sp,64
2000004e:	2000                	fld	fs0,0(s0)
20000050:	0090                	addi	a2,sp,64
20000052:	2000                	fld	fs0,0(s0)
20000054:	0090                	addi	a2,sp,64
20000056:	2000                	fld	fs0,0(s0)
20000058:	0090                	addi	a2,sp,64
2000005a:	2000                	fld	fs0,0(s0)
2000005c:	0000                	unimp
2000005e:	0000                	unimp
20000060:	0090                	addi	a2,sp,64
20000062:	2000                	fld	fs0,0(s0)
20000064:	0090                	addi	a2,sp,64
20000066:	2000                	fld	fs0,0(s0)
20000068:	0090                	addi	a2,sp,64
2000006a:	2000                	fld	fs0,0(s0)
2000006c:	0346                	slli	t1,t1,0x11
2000006e:	2000                	fld	fs0,0(s0)
20000070:	0090                	addi	a2,sp,64
20000072:	2000                	fld	fs0,0(s0)
20000074:	0090                	addi	a2,sp,64
20000076:	2000                	fld	fs0,0(s0)
20000078:	03dc                	addi	a5,sp,452
2000007a:	2000                	fld	fs0,0(s0)
2000007c:	0090                	addi	a2,sp,64
2000007e:	2000                	fld	fs0,0(s0)
20000080:	0090                	addi	a2,sp,64
20000082:	2000                	fld	fs0,0(s0)
20000084:	0090                	addi	a2,sp,64
20000086:	2000                	fld	fs0,0(s0)
20000088:	0090                	addi	a2,sp,64
2000008a:	2000                	fld	fs0,0(s0)
2000008c:	0090                	addi	a2,sp,64
2000008e:	2000                	fld	fs0,0(s0)

20000090 <ADC_IRQHandler>:
GPIOB_IRQHandler():
c:/Users/Administrator/Documents/MyCode/0331/ch582m/SRC/Startup/startup_CH592.S:119
TMR3_IRQHandler:
UART2_IRQHandler:
UART3_IRQHandler:
WDOG_BAT_IRQHandler: 
1:  
	j 1b
20000090:	a001                	j	20000090 <ADC_IRQHandler>

20000092 <SetSysClock>:
SetSysClock():
c:/Users/Administrator/Documents/MyCode/0331/ch582m/SRC/StdPeriphDriver/CH59x_sys.c:26
 *
 * @return  none
 */
__HIGH_CODE
void SetSysClock(SYS_CLKTypeDef sc)
{
20000092:	1101                	addi	sp,sp,-32
__risc_v_disable_irq():
c:/Users/Administrator/Documents/MyCode/0331/ch582m/SRC/RVMSIS/core_riscv.h:130
 */
__attribute__((always_inline)) RV_STATIC_INLINE uint32_t __risc_v_disable_irq(void)
{
  uint32_t result;

  __asm volatile ("csrrc %0, 0x800, %1" : \
20000094:	08800713          	li	a4,136
20000098:	800737f3          	csrrc	a5,0x800,a4
c:/Users/Administrator/Documents/MyCode/0331/ch582m/SRC/RVMSIS/core_riscv.h:132
          "=r"(result): "r"(0x88) : "memory");
  return result & 0x88;
2000009c:	0887f793          	andi	a5,a5,136
SetSysClock():
c:/Users/Administrator/Documents/MyCode/0331/ch582m/SRC/StdPeriphDriver/CH59x_sys.c:27
    sys_safe_access_enable();
200000a0:	c23e                	sw	a5,4(sp)
200000a2:	0001                	nop
200000a4:	0001                	nop
200000a6:	400017b7          	lui	a5,0x40001
200000aa:	05700593          	li	a1,87
200000ae:	04b78023          	sb	a1,64(a5) # 40001040 <_eusrstack+0x1fffa840>
200000b2:	fa800613          	li	a2,-88
200000b6:	04c78023          	sb	a2,64(a5)
200000ba:	0001                	nop
200000bc:	0001                	nop
c:/Users/Administrator/Documents/MyCode/0331/ch582m/SRC/StdPeriphDriver/CH59x_sys.c:28
    R8_PLL_CONFIG &= ~(1 << 5); //
200000be:	04b7c683          	lbu	a3,75(a5)
200000c2:	0df6f693          	andi	a3,a3,223
200000c6:	04d785a3          	sb	a3,75(a5)
c:/Users/Administrator/Documents/MyCode/0331/ch582m/SRC/StdPeriphDriver/CH59x_sys.c:29
    sys_safe_access_disable();
200000ca:	04078023          	sb	zero,64(a5)
200000ce:	4692                	lw	a3,4(sp)
__risc_v_enable_irq():
c:/Users/Administrator/Documents/MyCode/0331/ch582m/SRC/RVMSIS/core_riscv.h:114
  __asm volatile ("csrrs %0, 0x800, %1" : \
200000d0:	8006a6f3          	csrrs	a3,0x800,a3
SetSysClock():
c:/Users/Administrator/Documents/MyCode/0331/ch582m/SRC/StdPeriphDriver/CH59x_sys.c:29
200000d4:	0001                	nop
200000d6:	0001                	nop
c:/Users/Administrator/Documents/MyCode/0331/ch582m/SRC/StdPeriphDriver/CH59x_sys.c:30
    if(sc & 0x20)  // HSE div
200000d8:	02057693          	andi	a3,a0,32
200000dc:	ced5                	beqz	a3,20000198 <SetSysClock+0x106>
__risc_v_disable_irq():
c:/Users/Administrator/Documents/MyCode/0331/ch582m/SRC/RVMSIS/core_riscv.h:130
  __asm volatile ("csrrc %0, 0x800, %1" : \
200000de:	800736f3          	csrrc	a3,0x800,a4
c:/Users/Administrator/Documents/MyCode/0331/ch582m/SRC/RVMSIS/core_riscv.h:132
  return result & 0x88;
200000e2:	0886f693          	andi	a3,a3,136
SetSysClock():
c:/Users/Administrator/Documents/MyCode/0331/ch582m/SRC/StdPeriphDriver/CH59x_sys.c:32
    {
        sys_safe_access_enable();
200000e6:	c436                	sw	a3,8(sp)
200000e8:	0001                	nop
200000ea:	0001                	nop
200000ec:	04b78023          	sb	a1,64(a5)
200000f0:	04c78023          	sb	a2,64(a5)
200000f4:	0001                	nop
200000f6:	0001                	nop
c:/Users/Administrator/Documents/MyCode/0331/ch582m/SRC/StdPeriphDriver/CH59x_sys.c:33
        R32_CLK_SYS_CFG = (0 << 6) | (sc & 0x1f) | RB_TX_32M_PWR_EN | RB_PLL_PWR_EN;
200000f8:	001406b7          	lui	a3,0x140
200000fc:	897d                	andi	a0,a0,31
200000fe:	8d55                	or	a0,a0,a3
20000100:	c788                	sw	a0,8(a5)
c:/Users/Administrator/Documents/MyCode/0331/ch582m/SRC/StdPeriphDriver/CH59x_sys.c:34
        __nop();
20000102:	0001                	nop
c:/Users/Administrator/Documents/MyCode/0331/ch582m/SRC/StdPeriphDriver/CH59x_sys.c:35
        __nop();
20000104:	0001                	nop
c:/Users/Administrator/Documents/MyCode/0331/ch582m/SRC/StdPeriphDriver/CH59x_sys.c:36
        __nop();
20000106:	0001                	nop
c:/Users/Administrator/Documents/MyCode/0331/ch582m/SRC/StdPeriphDriver/CH59x_sys.c:37
        __nop();
20000108:	0001                	nop
c:/Users/Administrator/Documents/MyCode/0331/ch582m/SRC/StdPeriphDriver/CH59x_sys.c:38
        sys_safe_access_disable();
2000010a:	04078023          	sb	zero,64(a5)
2000010e:	46a2                	lw	a3,8(sp)
__risc_v_enable_irq():
c:/Users/Administrator/Documents/MyCode/0331/ch582m/SRC/RVMSIS/core_riscv.h:114
  __asm volatile ("csrrs %0, 0x800, %1" : \
20000110:	8006a6f3          	csrrs	a3,0x800,a3
SetSysClock():
c:/Users/Administrator/Documents/MyCode/0331/ch582m/SRC/StdPeriphDriver/CH59x_sys.c:38
20000114:	0001                	nop
20000116:	0001                	nop
__risc_v_disable_irq():
c:/Users/Administrator/Documents/MyCode/0331/ch582m/SRC/RVMSIS/core_riscv.h:130
  __asm volatile ("csrrc %0, 0x800, %1" : \
20000118:	80073773          	csrrc	a4,0x800,a4
c:/Users/Administrator/Documents/MyCode/0331/ch582m/SRC/RVMSIS/core_riscv.h:132
  return result & 0x88;
2000011c:	08877713          	andi	a4,a4,136
SetSysClock():
c:/Users/Administrator/Documents/MyCode/0331/ch582m/SRC/StdPeriphDriver/CH59x_sys.c:39
        sys_safe_access_enable();
20000120:	c63a                	sw	a4,12(sp)
20000122:	0001                	nop
20000124:	0001                	nop
20000126:	04b78023          	sb	a1,64(a5)
2000012a:	04c78023          	sb	a2,64(a5)
2000012e:	0001                	nop
20000130:	0001                	nop
c:/Users/Administrator/Documents/MyCode/0331/ch582m/SRC/StdPeriphDriver/CH59x_sys.c:40
        SAFEOPERATE;
20000132:	0001                	nop
20000134:	0001                	nop
c:/Users/Administrator/Documents/MyCode/0331/ch582m/SRC/StdPeriphDriver/CH59x_sys.c:41
        R8_FLASH_CFG = 0X51;
20000136:	40002737          	lui	a4,0x40002
2000013a:	05100693          	li	a3,81
2000013e:	80d703a3          	sb	a3,-2041(a4) # 40001807 <_eusrstack+0x1fffb007>
c:/Users/Administrator/Documents/MyCode/0331/ch582m/SRC/StdPeriphDriver/CH59x_sys.c:42
        sys_safe_access_disable();
20000142:	04078023          	sb	zero,64(a5)
20000146:	47b2                	lw	a5,12(sp)
__risc_v_enable_irq():
c:/Users/Administrator/Documents/MyCode/0331/ch582m/SRC/RVMSIS/core_riscv.h:114
  __asm volatile ("csrrs %0, 0x800, %1" : \
20000148:	8007a7f3          	csrrs	a5,0x800,a5
SetSysClock():
c:/Users/Administrator/Documents/MyCode/0331/ch582m/SRC/StdPeriphDriver/CH59x_sys.c:62
    }
    else
    {
        sys_safe_access_enable();
        R32_CLK_SYS_CFG |= RB_CLK_SYS_MOD;
        sys_safe_access_disable();
2000014c:	0001                	nop
2000014e:	0001                	nop
__risc_v_disable_irq():
c:/Users/Administrator/Documents/MyCode/0331/ch582m/SRC/RVMSIS/core_riscv.h:130
  __asm volatile ("csrrc %0, 0x800, %1" : \
20000150:	08800793          	li	a5,136
20000154:	8007b7f3          	csrrc	a5,0x800,a5
c:/Users/Administrator/Documents/MyCode/0331/ch582m/SRC/RVMSIS/core_riscv.h:132
  return result & 0x88;
20000158:	0887f793          	andi	a5,a5,136
SetSysClock():
c:/Users/Administrator/Documents/MyCode/0331/ch582m/SRC/StdPeriphDriver/CH59x_sys.c:65
    }
    //更改FLASH clk的驱动能力
    sys_safe_access_enable();
2000015c:	ce3e                	sw	a5,28(sp)
2000015e:	0001                	nop
20000160:	0001                	nop
20000162:	400017b7          	lui	a5,0x40001
20000166:	05700713          	li	a4,87
2000016a:	04e78023          	sb	a4,64(a5) # 40001040 <_eusrstack+0x1fffa840>
2000016e:	fa800713          	li	a4,-88
20000172:	04e78023          	sb	a4,64(a5)
20000176:	0001                	nop
20000178:	0001                	nop
c:/Users/Administrator/Documents/MyCode/0331/ch582m/SRC/StdPeriphDriver/CH59x_sys.c:66
    R8_PLL_CONFIG |= 1 << 7;
2000017a:	04b7c703          	lbu	a4,75(a5)
2000017e:	08076713          	ori	a4,a4,128
20000182:	04e785a3          	sb	a4,75(a5)
c:/Users/Administrator/Documents/MyCode/0331/ch582m/SRC/StdPeriphDriver/CH59x_sys.c:67
    sys_safe_access_disable();
20000186:	04078023          	sb	zero,64(a5)
2000018a:	47f2                	lw	a5,28(sp)
__risc_v_enable_irq():
c:/Users/Administrator/Documents/MyCode/0331/ch582m/SRC/RVMSIS/core_riscv.h:114
  __asm volatile ("csrrs %0, 0x800, %1" : \
2000018c:	8007a7f3          	csrrs	a5,0x800,a5
SetSysClock():
c:/Users/Administrator/Documents/MyCode/0331/ch582m/SRC/StdPeriphDriver/CH59x_sys.c:67
20000190:	0001                	nop
20000192:	0001                	nop
c:/Users/Administrator/Documents/MyCode/0331/ch582m/SRC/StdPeriphDriver/CH59x_sys.c:68
}
20000194:	6105                	addi	sp,sp,32
20000196:	8082                	ret
c:/Users/Administrator/Documents/MyCode/0331/ch582m/SRC/StdPeriphDriver/CH59x_sys.c:45
    else if(sc & 0x40) // PLL div
20000198:	04057693          	andi	a3,a0,64
2000019c:	c6bd                	beqz	a3,2000020a <SetSysClock+0x178>
__risc_v_disable_irq():
c:/Users/Administrator/Documents/MyCode/0331/ch582m/SRC/RVMSIS/core_riscv.h:130
  __asm volatile ("csrrc %0, 0x800, %1" : \
2000019e:	800736f3          	csrrc	a3,0x800,a4
c:/Users/Administrator/Documents/MyCode/0331/ch582m/SRC/RVMSIS/core_riscv.h:132
  return result & 0x88;
200001a2:	0886f693          	andi	a3,a3,136
SetSysClock():
c:/Users/Administrator/Documents/MyCode/0331/ch582m/SRC/StdPeriphDriver/CH59x_sys.c:47
        sys_safe_access_enable();
200001a6:	c836                	sw	a3,16(sp)
200001a8:	0001                	nop
200001aa:	0001                	nop
200001ac:	04b78023          	sb	a1,64(a5)
200001b0:	04c78023          	sb	a2,64(a5)
200001b4:	0001                	nop
200001b6:	0001                	nop
c:/Users/Administrator/Documents/MyCode/0331/ch582m/SRC/StdPeriphDriver/CH59x_sys.c:48
        R32_CLK_SYS_CFG = (1 << 6) | (sc & 0x1f) | RB_TX_32M_PWR_EN | RB_PLL_PWR_EN;
200001b8:	001406b7          	lui	a3,0x140
200001bc:	04068693          	addi	a3,a3,64 # 140040 <_data_lma+0x13c520>
200001c0:	897d                	andi	a0,a0,31
200001c2:	8d55                	or	a0,a0,a3
200001c4:	c788                	sw	a0,8(a5)
c:/Users/Administrator/Documents/MyCode/0331/ch582m/SRC/StdPeriphDriver/CH59x_sys.c:49
        __nop();
200001c6:	0001                	nop
c:/Users/Administrator/Documents/MyCode/0331/ch582m/SRC/StdPeriphDriver/CH59x_sys.c:50
        __nop();
200001c8:	0001                	nop
c:/Users/Administrator/Documents/MyCode/0331/ch582m/SRC/StdPeriphDriver/CH59x_sys.c:51
        __nop();
200001ca:	0001                	nop
c:/Users/Administrator/Documents/MyCode/0331/ch582m/SRC/StdPeriphDriver/CH59x_sys.c:52
        __nop();
200001cc:	0001                	nop
c:/Users/Administrator/Documents/MyCode/0331/ch582m/SRC/StdPeriphDriver/CH59x_sys.c:53
        sys_safe_access_disable();
200001ce:	04078023          	sb	zero,64(a5)
200001d2:	46c2                	lw	a3,16(sp)
__risc_v_enable_irq():
c:/Users/Administrator/Documents/MyCode/0331/ch582m/SRC/RVMSIS/core_riscv.h:114
  __asm volatile ("csrrs %0, 0x800, %1" : \
200001d4:	8006a6f3          	csrrs	a3,0x800,a3
SetSysClock():
c:/Users/Administrator/Documents/MyCode/0331/ch582m/SRC/StdPeriphDriver/CH59x_sys.c:53
200001d8:	0001                	nop
200001da:	0001                	nop
__risc_v_disable_irq():
c:/Users/Administrator/Documents/MyCode/0331/ch582m/SRC/RVMSIS/core_riscv.h:130
  __asm volatile ("csrrc %0, 0x800, %1" : \
200001dc:	80073773          	csrrc	a4,0x800,a4
c:/Users/Administrator/Documents/MyCode/0331/ch582m/SRC/RVMSIS/core_riscv.h:132
  return result & 0x88;
200001e0:	08877713          	andi	a4,a4,136
SetSysClock():
c:/Users/Administrator/Documents/MyCode/0331/ch582m/SRC/StdPeriphDriver/CH59x_sys.c:54
        sys_safe_access_enable();
200001e4:	ca3a                	sw	a4,20(sp)
200001e6:	0001                	nop
200001e8:	0001                	nop
200001ea:	04b78023          	sb	a1,64(a5)
200001ee:	04c78023          	sb	a2,64(a5)
200001f2:	0001                	nop
200001f4:	0001                	nop
c:/Users/Administrator/Documents/MyCode/0331/ch582m/SRC/StdPeriphDriver/CH59x_sys.c:55
        R8_FLASH_CFG = 0X52;
200001f6:	40002737          	lui	a4,0x40002
200001fa:	05200693          	li	a3,82
200001fe:	80d703a3          	sb	a3,-2041(a4) # 40001807 <_eusrstack+0x1fffb007>
c:/Users/Administrator/Documents/MyCode/0331/ch582m/SRC/StdPeriphDriver/CH59x_sys.c:56
        sys_safe_access_disable();
20000202:	04078023          	sb	zero,64(a5)
20000206:	47d2                	lw	a5,20(sp)
__risc_v_enable_irq():
c:/Users/Administrator/Documents/MyCode/0331/ch582m/SRC/RVMSIS/core_riscv.h:114
  __asm volatile ("csrrs %0, 0x800, %1" : \
20000208:	b781                	j	20000148 <SetSysClock+0xb6>
__risc_v_disable_irq():
c:/Users/Administrator/Documents/MyCode/0331/ch582m/SRC/RVMSIS/core_riscv.h:130
  __asm volatile ("csrrc %0, 0x800, %1" : \
2000020a:	80073773          	csrrc	a4,0x800,a4
c:/Users/Administrator/Documents/MyCode/0331/ch582m/SRC/RVMSIS/core_riscv.h:132
  return result & 0x88;
2000020e:	08877713          	andi	a4,a4,136
SetSysClock():
c:/Users/Administrator/Documents/MyCode/0331/ch582m/SRC/StdPeriphDriver/CH59x_sys.c:60
        sys_safe_access_enable();
20000212:	cc3a                	sw	a4,24(sp)
20000214:	0001                	nop
20000216:	0001                	nop
20000218:	04b78023          	sb	a1,64(a5)
2000021c:	04c78023          	sb	a2,64(a5)
20000220:	0001                	nop
20000222:	0001                	nop
c:/Users/Administrator/Documents/MyCode/0331/ch582m/SRC/StdPeriphDriver/CH59x_sys.c:61
        R32_CLK_SYS_CFG |= RB_CLK_SYS_MOD;
20000224:	4798                	lw	a4,8(a5)
20000226:	0c076713          	ori	a4,a4,192
2000022a:	c798                	sw	a4,8(a5)
c:/Users/Administrator/Documents/MyCode/0331/ch582m/SRC/StdPeriphDriver/CH59x_sys.c:62
        sys_safe_access_disable();
2000022c:	04078023          	sb	zero,64(a5)
20000230:	47e2                	lw	a5,24(sp)
20000232:	bf19                	j	20000148 <SetSysClock+0xb6>

20000234 <SYS_ResetExecute>:
SYS_ResetExecute():
c:/Users/Administrator/Documents/MyCode/0331/ch582m/SRC/StdPeriphDriver/CH59x_sys.c:130
 *
 * @return  none
 */
__HIGH_CODE
void SYS_ResetExecute(void)
{
20000234:	1101                	addi	sp,sp,-32
c:/Users/Administrator/Documents/MyCode/0331/ch582m/SRC/StdPeriphDriver/CH59x_sys.c:131
    FLASH_ROM_SW_RESET();
20000236:	4681                	li	a3,0
20000238:	4601                	li	a2,0
2000023a:	4581                	li	a1,0
2000023c:	4511                	li	a0,4
c:/Users/Administrator/Documents/MyCode/0331/ch582m/SRC/StdPeriphDriver/CH59x_sys.c:130
{
2000023e:	ce06                	sw	ra,28(sp)
c:/Users/Administrator/Documents/MyCode/0331/ch582m/SRC/StdPeriphDriver/CH59x_sys.c:131
    FLASH_ROM_SW_RESET();
20000240:	2d1000ef          	jal	ra,20000d10 <FLASH_EEPROM_CMD>
__risc_v_disable_irq():
c:/Users/Administrator/Documents/MyCode/0331/ch582m/SRC/RVMSIS/core_riscv.h:130
  __asm volatile ("csrrc %0, 0x800, %1" : \
20000244:	08800793          	li	a5,136
20000248:	8007b7f3          	csrrc	a5,0x800,a5
c:/Users/Administrator/Documents/MyCode/0331/ch582m/SRC/RVMSIS/core_riscv.h:132
  return result & 0x88;
2000024c:	0887f793          	andi	a5,a5,136
SYS_ResetExecute():
c:/Users/Administrator/Documents/MyCode/0331/ch582m/SRC/StdPeriphDriver/CH59x_sys.c:132
    sys_safe_access_enable();
20000250:	c63e                	sw	a5,12(sp)
20000252:	0001                	nop
20000254:	0001                	nop
20000256:	400017b7          	lui	a5,0x40001
2000025a:	05700713          	li	a4,87
2000025e:	04e78023          	sb	a4,64(a5) # 40001040 <_eusrstack+0x1fffa840>
20000262:	fa800713          	li	a4,-88
20000266:	04e78023          	sb	a4,64(a5)
2000026a:	0001                	nop
2000026c:	0001                	nop
c:/Users/Administrator/Documents/MyCode/0331/ch582m/SRC/StdPeriphDriver/CH59x_sys.c:133
    R8_RST_WDOG_CTRL |= RB_SOFTWARE_RESET;
2000026e:	0467c703          	lbu	a4,70(a5)
20000272:	00176713          	ori	a4,a4,1
20000276:	04e78323          	sb	a4,70(a5)
c:/Users/Administrator/Documents/MyCode/0331/ch582m/SRC/StdPeriphDriver/CH59x_sys.c:134
    sys_safe_access_disable();
2000027a:	04078023          	sb	zero,64(a5)
2000027e:	47b2                	lw	a5,12(sp)
__risc_v_enable_irq():
c:/Users/Administrator/Documents/MyCode/0331/ch582m/SRC/RVMSIS/core_riscv.h:114
  __asm volatile ("csrrs %0, 0x800, %1" : \
20000280:	8007a7f3          	csrrs	a5,0x800,a5
SYS_ResetExecute():
c:/Users/Administrator/Documents/MyCode/0331/ch582m/SRC/StdPeriphDriver/CH59x_sys.c:134
20000284:	0001                	nop
20000286:	0001                	nop
c:/Users/Administrator/Documents/MyCode/0331/ch582m/SRC/StdPeriphDriver/CH59x_sys.c:135
}
20000288:	40f2                	lw	ra,28(sp)
2000028a:	6105                	addi	sp,sp,32
2000028c:	8082                	ret

2000028e <HardFault_Handler>:
HardFault_Handler():
c:/Users/Administrator/Documents/MyCode/0331/ch582m/SRC/StdPeriphDriver/CH59x_sys.c:268
 */
__INTERRUPT
__HIGH_CODE
__attribute__((weak))
void HardFault_Handler(void)
{
2000028e:	1141                	addi	sp,sp,-16
c:/Users/Administrator/Documents/MyCode/0331/ch582m/SRC/StdPeriphDriver/CH59x_sys.c:269
    FLASH_ROM_SW_RESET();
20000290:	4681                	li	a3,0
20000292:	4601                	li	a2,0
20000294:	4581                	li	a1,0
20000296:	4511                	li	a0,4
20000298:	279000ef          	jal	ra,20000d10 <FLASH_EEPROM_CMD>
__risc_v_disable_irq():
c:/Users/Administrator/Documents/MyCode/0331/ch582m/SRC/RVMSIS/core_riscv.h:130
  __asm volatile ("csrrc %0, 0x800, %1" : \
2000029c:	08800713          	li	a4,136
200002a0:	800737f3          	csrrc	a5,0x800,a4
c:/Users/Administrator/Documents/MyCode/0331/ch582m/SRC/RVMSIS/core_riscv.h:132
  return result & 0x88;
200002a4:	0887f793          	andi	a5,a5,136
HardFault_Handler():
c:/Users/Administrator/Documents/MyCode/0331/ch582m/SRC/StdPeriphDriver/CH59x_sys.c:270
    sys_safe_access_enable();
200002a8:	c43e                	sw	a5,8(sp)
200002aa:	0001                	nop
200002ac:	0001                	nop
200002ae:	400017b7          	lui	a5,0x40001
200002b2:	05700613          	li	a2,87
200002b6:	04c78023          	sb	a2,64(a5) # 40001040 <_eusrstack+0x1fffa840>
200002ba:	fa800693          	li	a3,-88
200002be:	04d78023          	sb	a3,64(a5)
200002c2:	0001                	nop
200002c4:	0001                	nop
c:/Users/Administrator/Documents/MyCode/0331/ch582m/SRC/StdPeriphDriver/CH59x_sys.c:271
    R16_INT32K_TUNE = 0xFFFF;
200002c6:	55fd                	li	a1,-1
200002c8:	02b79623          	sh	a1,44(a5)
c:/Users/Administrator/Documents/MyCode/0331/ch582m/SRC/StdPeriphDriver/CH59x_sys.c:272
    sys_safe_access_disable();
200002cc:	04078023          	sb	zero,64(a5)
200002d0:	45a2                	lw	a1,8(sp)
__risc_v_enable_irq():
c:/Users/Administrator/Documents/MyCode/0331/ch582m/SRC/RVMSIS/core_riscv.h:114
  __asm volatile ("csrrs %0, 0x800, %1" : \
200002d2:	8005a5f3          	csrrs	a1,0x800,a1
HardFault_Handler():
c:/Users/Administrator/Documents/MyCode/0331/ch582m/SRC/StdPeriphDriver/CH59x_sys.c:272
200002d6:	0001                	nop
200002d8:	0001                	nop
__risc_v_disable_irq():
c:/Users/Administrator/Documents/MyCode/0331/ch582m/SRC/RVMSIS/core_riscv.h:130
  __asm volatile ("csrrc %0, 0x800, %1" : \
200002da:	80073773          	csrrc	a4,0x800,a4
c:/Users/Administrator/Documents/MyCode/0331/ch582m/SRC/RVMSIS/core_riscv.h:132
  return result & 0x88;
200002de:	08877713          	andi	a4,a4,136
HardFault_Handler():
c:/Users/Administrator/Documents/MyCode/0331/ch582m/SRC/StdPeriphDriver/CH59x_sys.c:273
    sys_safe_access_enable();
200002e2:	c63a                	sw	a4,12(sp)
200002e4:	0001                	nop
200002e6:	0001                	nop
200002e8:	04c78023          	sb	a2,64(a5)
200002ec:	04d78023          	sb	a3,64(a5)
200002f0:	0001                	nop
200002f2:	0001                	nop
c:/Users/Administrator/Documents/MyCode/0331/ch582m/SRC/StdPeriphDriver/CH59x_sys.c:274
    R8_RST_WDOG_CTRL |= RB_SOFTWARE_RESET;
200002f4:	0467c703          	lbu	a4,70(a5)
200002f8:	00176713          	ori	a4,a4,1
200002fc:	04e78323          	sb	a4,70(a5)
c:/Users/Administrator/Documents/MyCode/0331/ch582m/SRC/StdPeriphDriver/CH59x_sys.c:275
    sys_safe_access_disable();
20000300:	04078023          	sb	zero,64(a5)
20000304:	47b2                	lw	a5,12(sp)
__risc_v_enable_irq():
c:/Users/Administrator/Documents/MyCode/0331/ch582m/SRC/RVMSIS/core_riscv.h:114
  __asm volatile ("csrrs %0, 0x800, %1" : \
20000306:	8007a7f3          	csrrs	a5,0x800,a5
HardFault_Handler():
c:/Users/Administrator/Documents/MyCode/0331/ch582m/SRC/StdPeriphDriver/CH59x_sys.c:275
2000030a:	0001                	nop
2000030c:	0001                	nop
c:/Users/Administrator/Documents/MyCode/0331/ch582m/SRC/StdPeriphDriver/CH59x_sys.c:276 (discriminator 1)
    while(1);
2000030e:	a001                	j	2000030e <HardFault_Handler+0x80>

20000310 <mDelayuS>:
mDelayuS():
c:/Users/Administrator/Documents/MyCode/0331/ch582m/SRC/StdPeriphDriver/CH59x_sys.c:295
{
    uint32_t i;
#if(FREQ_SYS == 80000000)
    i = t * 20;
#elif(FREQ_SYS == 60000000)
    i = t * 15;
20000310:	47bd                	li	a5,15
20000312:	02f50533          	mul	a0,a0,a5
c:/Users/Administrator/Documents/MyCode/0331/ch582m/SRC/StdPeriphDriver/CH59x_sys.c:319 (discriminator 1)
#else
    i = t << 1;
#endif
    do
    {
        __nop();
20000316:	0001                	nop
c:/Users/Administrator/Documents/MyCode/0331/ch582m/SRC/StdPeriphDriver/CH59x_sys.c:320 (discriminator 1)
    } while(--i);
20000318:	157d                	addi	a0,a0,-1
2000031a:	fd75                	bnez	a0,20000316 <mDelayuS+0x6>
c:/Users/Administrator/Documents/MyCode/0331/ch582m/SRC/StdPeriphDriver/CH59x_sys.c:321
}
2000031c:	8082                	ret

2000031e <mDelaymS>:
mDelaymS():
c:/Users/Administrator/Documents/MyCode/0331/ch582m/SRC/StdPeriphDriver/CH59x_sys.c:334
 *
 * @return  none
 */
__HIGH_CODE
void mDelaymS(uint16_t t)
{
2000031e:	1141                	addi	sp,sp,-16
20000320:	c422                	sw	s0,8(sp)
20000322:	c226                	sw	s1,4(sp)
20000324:	c606                	sw	ra,12(sp)
20000326:	84aa                	mv	s1,a0
c:/Users/Administrator/Documents/MyCode/0331/ch582m/SRC/StdPeriphDriver/CH59x_sys.c:337
    uint16_t i;

    for(i = 0; i < t; i++)
20000328:	4401                	li	s0,0
c:/Users/Administrator/Documents/MyCode/0331/ch582m/SRC/StdPeriphDriver/CH59x_sys.c:337 (discriminator 1)
2000032a:	00941763          	bne	s0,s1,20000338 <mDelaymS+0x1a>
c:/Users/Administrator/Documents/MyCode/0331/ch582m/SRC/StdPeriphDriver/CH59x_sys.c:341
    {
        mDelayuS(1000);
    }
}
2000032e:	40b2                	lw	ra,12(sp)
20000330:	4422                	lw	s0,8(sp)
20000332:	4492                	lw	s1,4(sp)
20000334:	0141                	addi	sp,sp,16
20000336:	8082                	ret
c:/Users/Administrator/Documents/MyCode/0331/ch582m/SRC/StdPeriphDriver/CH59x_sys.c:337 (discriminator 3)
    for(i = 0; i < t; i++)
20000338:	0405                	addi	s0,s0,1
c:/Users/Administrator/Documents/MyCode/0331/ch582m/SRC/StdPeriphDriver/CH59x_sys.c:339 (discriminator 3)
        mDelayuS(1000);
2000033a:	3e800513          	li	a0,1000
c:/Users/Administrator/Documents/MyCode/0331/ch582m/SRC/StdPeriphDriver/CH59x_sys.c:337 (discriminator 3)
    for(i = 0; i < t; i++)
2000033e:	0442                	slli	s0,s0,0x10
c:/Users/Administrator/Documents/MyCode/0331/ch582m/SRC/StdPeriphDriver/CH59x_sys.c:339 (discriminator 3)
        mDelayuS(1000);
20000340:	3fc1                	jal	20000310 <mDelayuS>
c:/Users/Administrator/Documents/MyCode/0331/ch582m/SRC/StdPeriphDriver/CH59x_sys.c:337 (discriminator 3)
    for(i = 0; i < t; i++)
20000342:	8041                	srli	s0,s0,0x10
20000344:	b7dd                	j	2000032a <mDelaymS+0xc>

20000346 <UART1_IRQHandler>:
UART1_IRQHandler():
c:\Users\Administrator\Documents\MyCode\0331\ch582m\my_ch582m\obj/../Code/my_interface.c:31
    __INTERRUPT
    __HIGH_CODE
    void UART1_IRQHandler(void){
        volatile uint8_t i;

        switch(UART1_GetITFlag()){
20000346:	40003737          	lui	a4,0x40003
2000034a:	40474783          	lbu	a5,1028(a4) # 40003404 <_eusrstack+0x1fffcc04>
2000034e:	4699                	li	a3,6
20000350:	8bbd                	andi	a5,a5,15
20000352:	02d78863          	beq	a5,a3,20000382 <UART1_IRQHandler+0x3c>
20000356:	4731                	li	a4,12
c:\Users\Administrator\Documents\MyCode\0331\ch582m\my_ch582m\obj/../Code/my_interface.c:28
    void UART1_IRQHandler(void){
20000358:	1141                	addi	sp,sp,-16
2000035a:	04e78e63          	beq	a5,a4,200003b6 <UART1_IRQHandler+0x70>
2000035e:	4711                	li	a4,4
20000360:	00e79e63          	bne	a5,a4,2000037c <UART1_IRQHandler+0x36>
c:\Users\Administrator\Documents\MyCode\0331\ch582m\my_ch582m\obj/../Code/my_interface.c:40
                    UART1_GetLinSTA();
                    break;
                }

            case UART_II_RECV_RDY: // 数据达到设置触发点
                for(i = 0; i != trigB; i++){
20000364:	000107a3          	sb	zero,15(sp)
c:\Users\Administrator\Documents\MyCode\0331\ch582m\my_ch582m\obj/../Code/my_interface.c:41
                    RxBuff[i] = UART1_RecvByte();
20000368:	40003737          	lui	a4,0x40003
2000036c:	83c18693          	addi	a3,gp,-1988 # 2000111c <RxBuff>
c:\Users\Administrator\Documents\MyCode\0331\ch582m\my_ch582m\obj/../Code/my_interface.c:40 (discriminator 1)
                for(i = 0; i != trigB; i++){
20000370:	00f14783          	lbu	a5,15(sp)
20000374:	8201c603          	lbu	a2,-2016(gp) # 20001100 <trigB>
20000378:	00f61963          	bne	a2,a5,2000038a <UART1_IRQHandler+0x44>
c:\Users\Administrator\Documents\MyCode\0331\ch582m\my_ch582m\obj/../Code/my_interface.c:60
                break;

            default:
                break;
        }
    }
2000037c:	0141                	addi	sp,sp,16
2000037e:	30200073          	mret
c:\Users\Administrator\Documents\MyCode\0331\ch582m\my_ch582m\obj/../Code/my_interface.c:35
                    UART1_GetLinSTA();
20000382:	40574783          	lbu	a5,1029(a4) # 40003405 <_eusrstack+0x1fffcc05>
c:\Users\Administrator\Documents\MyCode\0331\ch582m\my_ch582m\obj/../Code/my_interface.c:36
                    break;
20000386:	30200073          	mret
c:\Users\Administrator\Documents\MyCode\0331\ch582m\my_ch582m\obj/../Code/my_interface.c:41 (discriminator 3)
                    RxBuff[i] = UART1_RecvByte();
2000038a:	00f14783          	lbu	a5,15(sp)
2000038e:	40874603          	lbu	a2,1032(a4)
20000392:	97b6                	add	a5,a5,a3
20000394:	00c78023          	sb	a2,0(a5)
c:\Users\Administrator\Documents\MyCode\0331\ch582m\my_ch582m\obj/../Code/my_interface.c:42 (discriminator 3)
                    UART1_SendByte(RxBuff[i]);
20000398:	00f14783          	lbu	a5,15(sp)
2000039c:	97b6                	add	a5,a5,a3
2000039e:	0007c783          	lbu	a5,0(a5)
200003a2:	40f70423          	sb	a5,1032(a4)
c:\Users\Administrator\Documents\MyCode\0331\ch582m\my_ch582m\obj/../Code/my_interface.c:40 (discriminator 3)
                for(i = 0; i != trigB; i++){
200003a6:	00f14783          	lbu	a5,15(sp)
200003aa:	0785                	addi	a5,a5,1
200003ac:	0ff7f793          	andi	a5,a5,255
200003b0:	00f107a3          	sb	a5,15(sp)
200003b4:	bf75                	j	20000370 <UART1_IRQHandler+0x2a>
c:\Users\Administrator\Documents\MyCode\0331\ch582m\my_ch582m\obj/../Code/my_interface.c:47
                i = UART1_RecvString(RxBuff);
200003b6:	83c18513          	addi	a0,gp,-1988 # 2000111c <RxBuff>
200003ba:	e0001097          	auipc	ra,0xe0001
200003be:	2b4080e7          	jalr	692(ra) # 166e <UART1_RecvString>
200003c2:	0ff57513          	andi	a0,a0,255
200003c6:	00a107a3          	sb	a0,15(sp)
c:\Users\Administrator\Documents\MyCode\0331\ch582m\my_ch582m\obj/../Code/my_interface.c:48
                UART1_SendString(RxBuff, i);
200003ca:	00f14583          	lbu	a1,15(sp)
200003ce:	83c18513          	addi	a0,gp,-1988 # 2000111c <RxBuff>
200003d2:	e0001097          	auipc	ra,0xe0001
200003d6:	274080e7          	jalr	628(ra) # 1646 <UART1_SendString>
c:\Users\Administrator\Documents\MyCode\0331\ch582m\my_ch582m\obj/../Code/my_interface.c:60
    }
200003da:	b74d                	j	2000037c <UART1_IRQHandler+0x36>

200003dc <I2C_IRQHandler>:
I2C_IRQHandler():
c:\Users\Administrator\Documents\MyCode\0331\ch582m\my_ch582m\obj/../Code/my_interface.c:310
    #endif

    __INTERRUPT
    __HIGH_CODE
    void I2C_IRQHandler(void)
    {
200003dc:	7179                	addi	sp,sp,-48
200003de:	d622                	sw	s0,44(sp)
200003e0:	c662                	sw	s8,12(sp)
200003e2:	d426                	sw	s1,40(sp)
200003e4:	d24a                	sw	s2,36(sp)
200003e6:	d04e                	sw	s3,32(sp)
200003e8:	ce52                	sw	s4,28(sp)
200003ea:	cc56                	sw	s5,24(sp)
200003ec:	ca5a                	sw	s6,20(sp)
200003ee:	c85e                	sw	s7,16(sp)
c:\Users\Administrator\Documents\MyCode\0331\ch582m\my_ch582m\obj/../Code/my_interface.c:311
        uint32_t event = I2C_GetLastEvent();
200003f0:	e0001097          	auipc	ra,0xe0001
200003f4:	0f0080e7          	jalr	240(ra) # 14e0 <I2C_GetLastEvent>
200003f8:	842a                	mv	s0,a0
print_i2c_irq_sta():
c:\Users\Administrator\Documents\MyCode\0331\ch582m\my_ch582m\obj/../Code/my_interface.c:255
        if(state & RB_I2C_SB)
200003fa:	00147c13          	andi	s8,s0,1
c:\Users\Administrator\Documents\MyCode\0331\ch582m\my_ch582m\obj/../Code/my_interface.c:253
        I2C_DBG("i2c irq: ( ");
200003fe:	e0003517          	auipc	a0,0xe0003
20000402:	2b650513          	addi	a0,a0,694 # 36b4 <_read+0x46>
20000406:	e0002097          	auipc	ra,0xe0002
2000040a:	ae4080e7          	jalr	-1308(ra) # 1eea <iprintf>
c:\Users\Administrator\Documents\MyCode\0331\ch582m\my_ch582m\obj/../Code/my_interface.c:255
        if(state & RB_I2C_SB)
2000040e:	000c0a63          	beqz	s8,20000422 <I2C_IRQHandler+0x46>
c:\Users\Administrator\Documents\MyCode\0331\ch582m\my_ch582m\obj/../Code/my_interface.c:256
            I2C_DBG("SB ");
20000412:	e0003517          	auipc	a0,0xe0003
20000416:	2ae50513          	addi	a0,a0,686 # 36c0 <_read+0x52>
2000041a:	e0002097          	auipc	ra,0xe0002
2000041e:	ad0080e7          	jalr	-1328(ra) # 1eea <iprintf>
c:\Users\Administrator\Documents\MyCode\0331\ch582m\my_ch582m\obj/../Code/my_interface.c:257
        if(state & RB_I2C_ADDR)
20000422:	00247b93          	andi	s7,s0,2
20000426:	000b8a63          	beqz	s7,2000043a <I2C_IRQHandler+0x5e>
c:\Users\Administrator\Documents\MyCode\0331\ch582m\my_ch582m\obj/../Code/my_interface.c:258
            I2C_DBG("ADDR ");
2000042a:	e0003517          	auipc	a0,0xe0003
2000042e:	29a50513          	addi	a0,a0,666 # 36c4 <_read+0x56>
20000432:	e0002097          	auipc	ra,0xe0002
20000436:	ab8080e7          	jalr	-1352(ra) # 1eea <iprintf>
c:\Users\Administrator\Documents\MyCode\0331\ch582m\my_ch582m\obj/../Code/my_interface.c:259
        if(state & RB_I2C_BTF)
2000043a:	00447793          	andi	a5,s0,4
2000043e:	cb89                	beqz	a5,20000450 <I2C_IRQHandler+0x74>
c:\Users\Administrator\Documents\MyCode\0331\ch582m\my_ch582m\obj/../Code/my_interface.c:260
            I2C_DBG("BTF ");
20000440:	e0003517          	auipc	a0,0xe0003
20000444:	28c50513          	addi	a0,a0,652 # 36cc <_read+0x5e>
20000448:	e0002097          	auipc	ra,0xe0002
2000044c:	aa2080e7          	jalr	-1374(ra) # 1eea <iprintf>
c:\Users\Administrator\Documents\MyCode\0331\ch582m\my_ch582m\obj/../Code/my_interface.c:261
        if(state & RB_I2C_ADD10)
20000450:	00847793          	andi	a5,s0,8
20000454:	cb89                	beqz	a5,20000466 <I2C_IRQHandler+0x8a>
c:\Users\Administrator\Documents\MyCode\0331\ch582m\my_ch582m\obj/../Code/my_interface.c:262
            I2C_DBG("ADD10 ");
20000456:	e0003517          	auipc	a0,0xe0003
2000045a:	27e50513          	addi	a0,a0,638 # 36d4 <_read+0x66>
2000045e:	e0002097          	auipc	ra,0xe0002
20000462:	a8c080e7          	jalr	-1396(ra) # 1eea <iprintf>
c:\Users\Administrator\Documents\MyCode\0331\ch582m\my_ch582m\obj/../Code/my_interface.c:263
        if(state & RB_I2C_STOPF)
20000466:	01047a93          	andi	s5,s0,16
2000046a:	000a8a63          	beqz	s5,2000047e <I2C_IRQHandler+0xa2>
c:\Users\Administrator\Documents\MyCode\0331\ch582m\my_ch582m\obj/../Code/my_interface.c:264
            I2C_DBG("STOP ");
2000046e:	e0003517          	auipc	a0,0xe0003
20000472:	26e50513          	addi	a0,a0,622 # 36dc <_read+0x6e>
20000476:	e0002097          	auipc	ra,0xe0002
2000047a:	a74080e7          	jalr	-1420(ra) # 1eea <iprintf>
c:\Users\Administrator\Documents\MyCode\0331\ch582m\my_ch582m\obj/../Code/my_interface.c:265
        if(state & RB_I2C_RxNE)
2000047e:	04047b13          	andi	s6,s0,64
20000482:	000b0a63          	beqz	s6,20000496 <I2C_IRQHandler+0xba>
c:\Users\Administrator\Documents\MyCode\0331\ch582m\my_ch582m\obj/../Code/my_interface.c:266
            I2C_DBG("RxNE ");
20000486:	e0003517          	auipc	a0,0xe0003
2000048a:	25e50513          	addi	a0,a0,606 # 36e4 <_read+0x76>
2000048e:	e0002097          	auipc	ra,0xe0002
20000492:	a5c080e7          	jalr	-1444(ra) # 1eea <iprintf>
c:\Users\Administrator\Documents\MyCode\0331\ch582m\my_ch582m\obj/../Code/my_interface.c:267
        if(state & RB_I2C_TxE)
20000496:	08047793          	andi	a5,s0,128
2000049a:	cb89                	beqz	a5,200004ac <I2C_IRQHandler+0xd0>
c:\Users\Administrator\Documents\MyCode\0331\ch582m\my_ch582m\obj/../Code/my_interface.c:268
            I2C_DBG("TxE ");
2000049c:	e0003517          	auipc	a0,0xe0003
200004a0:	25050513          	addi	a0,a0,592 # 36ec <_read+0x7e>
200004a4:	e0002097          	auipc	ra,0xe0002
200004a8:	a46080e7          	jalr	-1466(ra) # 1eea <iprintf>
c:\Users\Administrator\Documents\MyCode\0331\ch582m\my_ch582m\obj/../Code/my_interface.c:269
        if(state & RB_I2C_BERR)
200004ac:	10047913          	andi	s2,s0,256
200004b0:	00090a63          	beqz	s2,200004c4 <I2C_IRQHandler+0xe8>
c:\Users\Administrator\Documents\MyCode\0331\ch582m\my_ch582m\obj/../Code/my_interface.c:270
            I2C_DBG("BERR ");
200004b4:	e0003517          	auipc	a0,0xe0003
200004b8:	24050513          	addi	a0,a0,576 # 36f4 <_read+0x86>
200004bc:	e0002097          	auipc	ra,0xe0002
200004c0:	a2e080e7          	jalr	-1490(ra) # 1eea <iprintf>
c:\Users\Administrator\Documents\MyCode\0331\ch582m\my_ch582m\obj/../Code/my_interface.c:271
        if(state & RB_I2C_ARLO)
200004c4:	20047793          	andi	a5,s0,512
200004c8:	cb89                	beqz	a5,200004da <I2C_IRQHandler+0xfe>
c:\Users\Administrator\Documents\MyCode\0331\ch582m\my_ch582m\obj/../Code/my_interface.c:272
            I2C_DBG("ARLO ");
200004ca:	e0003517          	auipc	a0,0xe0003
200004ce:	23250513          	addi	a0,a0,562 # 36fc <_read+0x8e>
200004d2:	e0002097          	auipc	ra,0xe0002
200004d6:	a18080e7          	jalr	-1512(ra) # 1eea <iprintf>
c:\Users\Administrator\Documents\MyCode\0331\ch582m\my_ch582m\obj/../Code/my_interface.c:273
        if(state & RB_I2C_AF)
200004da:	40047993          	andi	s3,s0,1024
200004de:	00098a63          	beqz	s3,200004f2 <I2C_IRQHandler+0x116>
c:\Users\Administrator\Documents\MyCode\0331\ch582m\my_ch582m\obj/../Code/my_interface.c:274
            I2C_DBG("AF ");
200004e2:	e0003517          	auipc	a0,0xe0003
200004e6:	22250513          	addi	a0,a0,546 # 3704 <_read+0x96>
200004ea:	e0002097          	auipc	ra,0xe0002
200004ee:	a00080e7          	jalr	-1536(ra) # 1eea <iprintf>
c:\Users\Administrator\Documents\MyCode\0331\ch582m\my_ch582m\obj/../Code/my_interface.c:275
        if(state & RB_I2C_OVR)
200004f2:	01441793          	slli	a5,s0,0x14
200004f6:	0007da63          	bgez	a5,2000050a <I2C_IRQHandler+0x12e>
c:\Users\Administrator\Documents\MyCode\0331\ch582m\my_ch582m\obj/../Code/my_interface.c:276
            I2C_DBG("OVR ");
200004fa:	e0003517          	auipc	a0,0xe0003
200004fe:	20e50513          	addi	a0,a0,526 # 3708 <_read+0x9a>
20000502:	e0002097          	auipc	ra,0xe0002
20000506:	9e8080e7          	jalr	-1560(ra) # 1eea <iprintf>
c:\Users\Administrator\Documents\MyCode\0331\ch582m\my_ch582m\obj/../Code/my_interface.c:277
        if(state & RB_I2C_PECERR)
2000050a:	01341793          	slli	a5,s0,0x13
2000050e:	0007da63          	bgez	a5,20000522 <I2C_IRQHandler+0x146>
c:\Users\Administrator\Documents\MyCode\0331\ch582m\my_ch582m\obj/../Code/my_interface.c:278
            I2C_DBG("PECERR ");
20000512:	e0003517          	auipc	a0,0xe0003
20000516:	1fe50513          	addi	a0,a0,510 # 3710 <_read+0xa2>
2000051a:	e0002097          	auipc	ra,0xe0002
2000051e:	9d0080e7          	jalr	-1584(ra) # 1eea <iprintf>
c:\Users\Administrator\Documents\MyCode\0331\ch582m\my_ch582m\obj/../Code/my_interface.c:279
        if(state & RB_I2C_TIMEOUT)
20000522:	01141793          	slli	a5,s0,0x11
20000526:	0007da63          	bgez	a5,2000053a <I2C_IRQHandler+0x15e>
c:\Users\Administrator\Documents\MyCode\0331\ch582m\my_ch582m\obj/../Code/my_interface.c:280
            I2C_DBG("TIMEOUT ");
2000052a:	e0003517          	auipc	a0,0xe0003
2000052e:	1ee50513          	addi	a0,a0,494 # 3718 <_read+0xaa>
20000532:	e0002097          	auipc	ra,0xe0002
20000536:	9b8080e7          	jalr	-1608(ra) # 1eea <iprintf>
c:\Users\Administrator\Documents\MyCode\0331\ch582m\my_ch582m\obj/../Code/my_interface.c:281
        if(state & RB_I2C_SMBALERT)
2000053a:	01041793          	slli	a5,s0,0x10
2000053e:	0007da63          	bgez	a5,20000552 <I2C_IRQHandler+0x176>
c:\Users\Administrator\Documents\MyCode\0331\ch582m\my_ch582m\obj/../Code/my_interface.c:282
            I2C_DBG("SMBALERT ");
20000542:	e0003517          	auipc	a0,0xe0003
20000546:	1e250513          	addi	a0,a0,482 # 3724 <_read+0xb6>
2000054a:	e0002097          	auipc	ra,0xe0002
2000054e:	9a0080e7          	jalr	-1632(ra) # 1eea <iprintf>
c:\Users\Administrator\Documents\MyCode\0331\ch582m\my_ch582m\obj/../Code/my_interface.c:283
        if(state & (RB_I2C_MSL << 16))
20000552:	6a41                	lui	s4,0x10
20000554:	01447a33          	and	s4,s0,s4
20000558:	000a0a63          	beqz	s4,2000056c <I2C_IRQHandler+0x190>
c:\Users\Administrator\Documents\MyCode\0331\ch582m\my_ch582m\obj/../Code/my_interface.c:284
            I2C_DBG("MSL ");
2000055c:	e0003517          	auipc	a0,0xe0003
20000560:	1d450513          	addi	a0,a0,468 # 3730 <_read+0xc2>
20000564:	e0002097          	auipc	ra,0xe0002
20000568:	986080e7          	jalr	-1658(ra) # 1eea <iprintf>
c:\Users\Administrator\Documents\MyCode\0331\ch582m\my_ch582m\obj/../Code/my_interface.c:285
        if(state & (RB_I2C_BUSY << 16))
2000056c:	00e41793          	slli	a5,s0,0xe
20000570:	0007da63          	bgez	a5,20000584 <I2C_IRQHandler+0x1a8>
c:\Users\Administrator\Documents\MyCode\0331\ch582m\my_ch582m\obj/../Code/my_interface.c:286
            I2C_DBG("BUSY ");
20000574:	e0003517          	auipc	a0,0xe0003
20000578:	1c450513          	addi	a0,a0,452 # 3738 <_read+0xca>
2000057c:	e0002097          	auipc	ra,0xe0002
20000580:	96e080e7          	jalr	-1682(ra) # 1eea <iprintf>
c:\Users\Administrator\Documents\MyCode\0331\ch582m\my_ch582m\obj/../Code/my_interface.c:287
        if(state & (RB_I2C_TRA << 16))
20000584:	000404b7          	lui	s1,0x40
20000588:	8ce1                	and	s1,s1,s0
2000058a:	c889                	beqz	s1,2000059c <I2C_IRQHandler+0x1c0>
c:\Users\Administrator\Documents\MyCode\0331\ch582m\my_ch582m\obj/../Code/my_interface.c:288
            I2C_DBG("TRA ");
2000058c:	e0003517          	auipc	a0,0xe0003
20000590:	1b450513          	addi	a0,a0,436 # 3740 <_read+0xd2>
20000594:	e0002097          	auipc	ra,0xe0002
20000598:	956080e7          	jalr	-1706(ra) # 1eea <iprintf>
c:\Users\Administrator\Documents\MyCode\0331\ch582m\my_ch582m\obj/../Code/my_interface.c:289
        if(state & (RB_I2C_GENCALL << 16))
2000059c:	00b41793          	slli	a5,s0,0xb
200005a0:	0007da63          	bgez	a5,200005b4 <I2C_IRQHandler+0x1d8>
c:\Users\Administrator\Documents\MyCode\0331\ch582m\my_ch582m\obj/../Code/my_interface.c:290
            I2C_DBG("GENCALL ");
200005a4:	e0003517          	auipc	a0,0xe0003
200005a8:	1a450513          	addi	a0,a0,420 # 3748 <_read+0xda>
200005ac:	e0002097          	auipc	ra,0xe0002
200005b0:	93e080e7          	jalr	-1730(ra) # 1eea <iprintf>
c:\Users\Administrator\Documents\MyCode\0331\ch582m\my_ch582m\obj/../Code/my_interface.c:291
        if(state & (RB_I2C_SMBDEFAULT << 16))
200005b4:	00a41793          	slli	a5,s0,0xa
200005b8:	0007da63          	bgez	a5,200005cc <I2C_IRQHandler+0x1f0>
c:\Users\Administrator\Documents\MyCode\0331\ch582m\my_ch582m\obj/../Code/my_interface.c:292
            I2C_DBG("SMBDEFAULT ");
200005bc:	e0003517          	auipc	a0,0xe0003
200005c0:	19850513          	addi	a0,a0,408 # 3754 <_read+0xe6>
200005c4:	e0002097          	auipc	ra,0xe0002
200005c8:	926080e7          	jalr	-1754(ra) # 1eea <iprintf>
c:\Users\Administrator\Documents\MyCode\0331\ch582m\my_ch582m\obj/../Code/my_interface.c:293
        if(state & (RB_I2C_SMBHOST << 16))
200005cc:	00941793          	slli	a5,s0,0x9
200005d0:	0007da63          	bgez	a5,200005e4 <I2C_IRQHandler+0x208>
c:\Users\Administrator\Documents\MyCode\0331\ch582m\my_ch582m\obj/../Code/my_interface.c:294
            I2C_DBG("SMBHOST ");
200005d4:	e0003517          	auipc	a0,0xe0003
200005d8:	18c50513          	addi	a0,a0,396 # 3760 <_read+0xf2>
200005dc:	e0002097          	auipc	ra,0xe0002
200005e0:	90e080e7          	jalr	-1778(ra) # 1eea <iprintf>
c:\Users\Administrator\Documents\MyCode\0331\ch582m\my_ch582m\obj/../Code/my_interface.c:295
        if(state & (RB_I2C_DUALF << 16))
200005e4:	00841793          	slli	a5,s0,0x8
200005e8:	0007da63          	bgez	a5,200005fc <I2C_IRQHandler+0x220>
c:\Users\Administrator\Documents\MyCode\0331\ch582m\my_ch582m\obj/../Code/my_interface.c:296
            I2C_DBG("DUALF ");
200005ec:	e0003517          	auipc	a0,0xe0003
200005f0:	18050513          	addi	a0,a0,384 # 376c <_read+0xfe>
200005f4:	e0002097          	auipc	ra,0xe0002
200005f8:	8f6080e7          	jalr	-1802(ra) # 1eea <iprintf>
c:\Users\Administrator\Documents\MyCode\0331\ch582m\my_ch582m\obj/../Code/my_interface.c:298
        I2C_DBG(")\n");
200005fc:	e0003517          	auipc	a0,0xe0003
20000600:	17850513          	addi	a0,a0,376 # 3774 <_read+0x106>
20000604:	e0002097          	auipc	ra,0xe0002
20000608:	a2a080e7          	jalr	-1494(ra) # 202e <puts>
I2C_IRQHandler():
c:\Users\Administrator\Documents\MyCode\0331\ch582m\my_ch582m\obj/../Code/my_interface.c:315
        print_i2c_irq_sta(event);

        /* I2C Master */
        if (event & (RB_I2C_MSL << 16)) {
2000060c:	320a0d63          	beqz	s4,20000946 <I2C_IRQHandler+0x56a>
c:\Users\Administrator\Documents\MyCode\0331\ch582m\my_ch582m\obj/../Code/my_interface.c:316
            if (event & RB_I2C_SB) {
20000610:	020c0063          	beqz	s8,20000630 <I2C_IRQHandler+0x254>
c:\Users\Administrator\Documents\MyCode\0331\ch582m\my_ch582m\obj/../Code/my_interface.c:318
                /* Start condition sent, send address */
                I2C_SendData(i2c_slave_addr_rw);
20000614:	8151c503          	lbu	a0,-2027(gp) # 200010f5 <i2c_slave_addr_rw>
20000618:	e0001097          	auipc	ra,0xe0001
2000061c:	eb0080e7          	jalr	-336(ra) # 14c8 <I2C_SendData>
c:\Users\Administrator\Documents\MyCode\0331\ch582m\my_ch582m\obj/../Code/my_interface.c:319
                I2C_DBG("Master selected, send address\n");
20000620:	e0003517          	auipc	a0,0xe0003
20000624:	15850513          	addi	a0,a0,344 # 3778 <_read+0x10a>
20000628:	e0002097          	auipc	ra,0xe0002
2000062c:	a06080e7          	jalr	-1530(ra) # 202e <puts>
c:\Users\Administrator\Documents\MyCode\0331\ch582m\my_ch582m\obj/../Code/my_interface.c:323
            }

            /* I2C Master transmitter */
            if (event & (RB_I2C_TRA << 16)) {
20000630:	10048a63          	beqz	s1,20000744 <I2C_IRQHandler+0x368>
c:\Users\Administrator\Documents\MyCode\0331\ch582m\my_ch582m\obj/../Code/my_interface.c:324
                I2C_DBG("Master transmitter:\n");
20000634:	e0003517          	auipc	a0,0xe0003
20000638:	16450513          	addi	a0,a0,356 # 3798 <_read+0x12a>
2000063c:	e0002097          	auipc	ra,0xe0002
20000640:	9f2080e7          	jalr	-1550(ra) # 202e <puts>
c:\Users\Administrator\Documents\MyCode\0331\ch582m\my_ch582m\obj/../Code/my_interface.c:326
                /* Slave receiver acked address or sent bit */
                if (event & (RB_I2C_ADDR | RB_I2C_BTF | RB_I2C_TxE | (RB_I2C_TRA << 16))) {
20000644:	000407b7          	lui	a5,0x40
20000648:	08678793          	addi	a5,a5,134 # 40086 <_data_lma+0x3c566>
2000064c:	8fe1                	and	a5,a5,s0
2000064e:	c7b9                	beqz	a5,2000069c <I2C_IRQHandler+0x2c0>
c:\Users\Administrator\Documents\MyCode\0331\ch582m\my_ch582m\obj/../Code/my_interface.c:328
                    /* if there is data to send, send it, otherwise stop */
                    if (i2c_master_buffer_index < i2c_master_buffer_length) {
20000650:	8121c783          	lbu	a5,-2030(gp) # 200010f2 <i2c_master_buffer_index>
20000654:	8131c703          	lbu	a4,-2029(gp) # 200010f3 <i2c_master_buffer_length>
20000658:	81218a13          	addi	s4,gp,-2030 # 200010f2 <i2c_master_buffer_index>
2000065c:	06e7fd63          	bgeu	a5,a4,200006d6 <I2C_IRQHandler+0x2fa>
c:\Users\Administrator\Documents\MyCode\0331\ch582m\my_ch582m\obj/../Code/my_interface.c:329
                        I2C_SendData(i2c_master_buffer[i2c_master_buffer_index++]);
20000660:	000a4783          	lbu	a5,0(s4) # 10000 <_data_lma+0xc4e0>
20000664:	8a018493          	addi	s1,gp,-1888 # 20001180 <i2c_master_buffer>
20000668:	0ff7f793          	andi	a5,a5,255
2000066c:	00178713          	addi	a4,a5,1
20000670:	97a6                	add	a5,a5,s1
20000672:	0007c503          	lbu	a0,0(a5)
20000676:	80e18923          	sb	a4,-2030(gp) # 200010f2 <i2c_master_buffer_index>
2000067a:	e0001097          	auipc	ra,0xe0001
2000067e:	e4e080e7          	jalr	-434(ra) # 14c8 <I2C_SendData>
c:\Users\Administrator\Documents\MyCode\0331\ch582m\my_ch582m\obj/../Code/my_interface.c:330
                        I2C_DBG("  send (%#x)\n", 
20000682:	000a4783          	lbu	a5,0(s4)
20000686:	e0003517          	auipc	a0,0xe0003
2000068a:	12650513          	addi	a0,a0,294 # 37ac <_read+0x13e>
2000068e:	94be                	add	s1,s1,a5
20000690:	fff4c583          	lbu	a1,-1(s1) # 3ffff <_data_lma+0x3c4df>
20000694:	e0002097          	auipc	ra,0xe0002
20000698:	856080e7          	jalr	-1962(ra) # 1eea <iprintf>
c:\Users\Administrator\Documents\MyCode\0331\ch582m\my_ch582m\obj/../Code/my_interface.c:351
                        }
                    }
                }

                /* Address or data sent, nack received */
                if (event & RB_I2C_AF) {
2000069c:	46098a63          	beqz	s3,20000b10 <I2C_IRQHandler+0x734>
c:\Users\Administrator\Documents\MyCode\0331\ch582m\my_ch582m\obj/../Code/my_interface.c:352
                    I2C_ClearFlag(I2C_FLAG_AF);
200006a0:	10000537          	lui	a0,0x10000
200006a4:	40050513          	addi	a0,a0,1024 # 10000400 <_data_lma+0xfffc8e0>
200006a8:	e0001097          	auipc	ra,0xe0001
200006ac:	e4e080e7          	jalr	-434(ra) # 14f6 <I2C_ClearFlag>
c:\Users\Administrator\Documents\MyCode\0331\ch582m\my_ch582m\obj/../Code/my_interface.c:354

                    i2c_error = I2C_MT_NACK;
200006b0:	478d                	li	a5,3
200006b2:	80f18823          	sb	a5,-2032(gp) # 200010f0 <_edata>
c:\Users\Administrator\Documents\MyCode\0331\ch582m\my_ch582m\obj/../Code/my_interface.c:356
                    i2c_state = I2C_READY;
                    I2C_GenerateSTOP(ENABLE);
200006b6:	4505                	li	a0,1
c:\Users\Administrator\Documents\MyCode\0331\ch582m\my_ch582m\obj/../Code/my_interface.c:355
                    i2c_state = I2C_READY;
200006b8:	80018ca3          	sb	zero,-2023(gp) # 200010f9 <i2c_state>
c:\Users\Administrator\Documents\MyCode\0331\ch582m\my_ch582m\obj/../Code/my_interface.c:356
                    I2C_GenerateSTOP(ENABLE);
200006bc:	e0001097          	auipc	ra,0xe0001
200006c0:	daa080e7          	jalr	-598(ra) # 1466 <I2C_GenerateSTOP>
c:\Users\Administrator\Documents\MyCode\0331\ch582m\my_ch582m\obj/../Code/my_interface.c:357
                    I2C_DBG("  NACK received, sent stop\n");
200006c4:	e0003517          	auipc	a0,0xe0003
200006c8:	11050513          	addi	a0,a0,272 # 37d4 <_read+0x166>
c:\Users\Administrator\Documents\MyCode\0331\ch582m\my_ch582m\obj/../Code/my_interface.c:491
                        I2C_SendData(i2c_slave_txbuffer[i2c_slave_txbuffer_index++]);
                        I2C_DBG("  send (%#x)\n", 
                            i2c_slave_txbuffer[i2c_slave_txbuffer_index - 1]);
                    } else {
                        I2C_SendData(0xff);
                        I2C_DBG("  no more data, send 0xff\n");
200006cc:	e0002097          	auipc	ra,0xe0002
200006d0:	962080e7          	jalr	-1694(ra) # 202e <puts>
200006d4:	a935                	j	20000b10 <I2C_IRQHandler+0x734>
c:\Users\Administrator\Documents\MyCode\0331\ch582m\my_ch582m\obj/../Code/my_interface.c:333
                        if (i2c_send_stop) {
200006d6:	8141c783          	lbu	a5,-2028(gp) # 200010f4 <i2c_send_stop>
200006da:	c38d                	beqz	a5,200006fc <I2C_IRQHandler+0x320>
c:\Users\Administrator\Documents\MyCode\0331\ch582m\my_ch582m\obj/../Code/my_interface.c:335
                            I2C_GenerateSTOP(ENABLE);
200006dc:	4505                	li	a0,1
c:\Users\Administrator\Documents\MyCode\0331\ch582m\my_ch582m\obj/../Code/my_interface.c:334
                            i2c_state = I2C_READY;
200006de:	80018ca3          	sb	zero,-2023(gp) # 200010f9 <i2c_state>
c:\Users\Administrator\Documents\MyCode\0331\ch582m\my_ch582m\obj/../Code/my_interface.c:335
                            I2C_GenerateSTOP(ENABLE);
200006e2:	e0001097          	auipc	ra,0xe0001
200006e6:	d84080e7          	jalr	-636(ra) # 1466 <I2C_GenerateSTOP>
c:\Users\Administrator\Documents\MyCode\0331\ch582m\my_ch582m\obj/../Code/my_interface.c:336
                            I2C_DBG("  send STOP\n");
200006ea:	e0003517          	auipc	a0,0xe0003
200006ee:	0d250513          	addi	a0,a0,210 # 37bc <_read+0x14e>
c:\Users\Administrator\Documents\MyCode\0331\ch582m\my_ch582m\obj/../Code/my_interface.c:345
                            I2C_DBG("  restart\n");
200006f2:	e0002097          	auipc	ra,0xe0002
200006f6:	93c080e7          	jalr	-1732(ra) # 202e <puts>
200006fa:	b74d                	j	2000069c <I2C_IRQHandler+0x2c0>
c:\Users\Administrator\Documents\MyCode\0331\ch582m\my_ch582m\obj/../Code/my_interface.c:338
                            i2c_in_repstart = true;
200006fc:	4785                	li	a5,1
c:\Users\Administrator\Documents\MyCode\0331\ch582m\my_ch582m\obj/../Code/my_interface.c:340
                            I2C_ITConfig(I2C_IT_BUF, DISABLE);
200006fe:	4581                	li	a1,0
20000700:	40000513          	li	a0,1024
c:\Users\Administrator\Documents\MyCode\0331\ch582m\my_ch582m\obj/../Code/my_interface.c:338
                            i2c_in_repstart = true;
20000704:	80f188a3          	sb	a5,-2031(gp) # 200010f1 <i2c_in_repstart>
c:\Users\Administrator\Documents\MyCode\0331\ch582m\my_ch582m\obj/../Code/my_interface.c:340
                            I2C_ITConfig(I2C_IT_BUF, DISABLE);
20000708:	e0001097          	auipc	ra,0xe0001
2000070c:	da2080e7          	jalr	-606(ra) # 14aa <I2C_ITConfig>
c:\Users\Administrator\Documents\MyCode\0331\ch582m\my_ch582m\obj/../Code/my_interface.c:341
                            I2C_ITConfig(I2C_IT_EVT, DISABLE);
20000710:	4581                	li	a1,0
20000712:	20000513          	li	a0,512
20000716:	e0001097          	auipc	ra,0xe0001
2000071a:	d94080e7          	jalr	-620(ra) # 14aa <I2C_ITConfig>
c:\Users\Administrator\Documents\MyCode\0331\ch582m\my_ch582m\obj/../Code/my_interface.c:342
                            I2C_ITConfig(I2C_IT_ERR, DISABLE);
2000071e:	4581                	li	a1,0
20000720:	10000513          	li	a0,256
20000724:	e0001097          	auipc	ra,0xe0001
20000728:	d86080e7          	jalr	-634(ra) # 14aa <I2C_ITConfig>
c:\Users\Administrator\Documents\MyCode\0331\ch582m\my_ch582m\obj/../Code/my_interface.c:343
                            I2C_GenerateSTART(ENABLE);
2000072c:	4505                	li	a0,1
2000072e:	e0001097          	auipc	ra,0xe0001
20000732:	d16080e7          	jalr	-746(ra) # 1444 <I2C_GenerateSTART>
c:\Users\Administrator\Documents\MyCode\0331\ch582m\my_ch582m\obj/../Code/my_interface.c:345
                            I2C_DBG("  restart\n");
20000736:	e0003517          	auipc	a0,0xe0003
2000073a:	09250513          	addi	a0,a0,146 # 37c8 <_read+0x15a>
c:\Users\Administrator\Documents\MyCode\0331\ch582m\my_ch582m\obj/../Code/my_interface.c:344
                            i2c_state = I2C_READY;
2000073e:	80018ca3          	sb	zero,-2023(gp) # 200010f9 <i2c_state>
c:\Users\Administrator\Documents\MyCode\0331\ch582m\my_ch582m\obj/../Code/my_interface.c:345
                            I2C_DBG("  restart\n");
20000742:	bf45                	j	200006f2 <I2C_IRQHandler+0x316>
c:\Users\Administrator\Documents\MyCode\0331\ch582m\my_ch582m\obj/../Code/my_interface.c:361
                I2C_DBG("Master receiver:\n");
20000744:	e0003517          	auipc	a0,0xe0003
20000748:	0ac50513          	addi	a0,a0,172 # 37f0 <_read+0x182>
2000074c:	e0002097          	auipc	ra,0xe0002
20000750:	8e2080e7          	jalr	-1822(ra) # 202e <puts>
c:\Users\Administrator\Documents\MyCode\0331\ch582m\my_ch582m\obj/../Code/my_interface.c:364
                if(event & RB_I2C_ADDR) { 
20000754:	020b8b63          	beqz	s7,2000078a <I2C_IRQHandler+0x3ae>
c:\Users\Administrator\Documents\MyCode\0331\ch582m\my_ch582m\obj/../Code/my_interface.c:366
                    if (i2c_master_buffer_length) {
20000758:	8131c783          	lbu	a5,-2029(gp) # 200010f3 <i2c_master_buffer_length>
2000075c:	0e078363          	beqz	a5,20000842 <I2C_IRQHandler+0x466>
c:\Users\Administrator\Documents\MyCode\0331\ch582m\my_ch582m\obj/../Code/my_interface.c:367
                        I2C_AcknowledgeConfig(ENABLE);
20000760:	4505                	li	a0,1
20000762:	e0001097          	auipc	ra,0xe0001
20000766:	d26080e7          	jalr	-730(ra) # 1488 <I2C_AcknowledgeConfig>
c:\Users\Administrator\Documents\MyCode\0331\ch582m\my_ch582m\obj/../Code/my_interface.c:368
                        I2C_DBG("  address sent\n");
2000076a:	e0003517          	auipc	a0,0xe0003
2000076e:	09a50513          	addi	a0,a0,154 # 3804 <_read+0x196>
20000772:	e0002097          	auipc	ra,0xe0002
20000776:	8bc080e7          	jalr	-1860(ra) # 202e <puts>
c:\Users\Administrator\Documents\MyCode\0331\ch582m\my_ch582m\obj/../Code/my_interface.c:369
                        I2C_DBG("  ACK next\n");
2000077a:	e0003517          	auipc	a0,0xe0003
2000077e:	09a50513          	addi	a0,a0,154 # 3814 <_read+0x1a6>
c:\Users\Administrator\Documents\MyCode\0331\ch582m\my_ch582m\obj/../Code/my_interface.c:375
                        I2C_DBG("  NACK next\n");
20000782:	e0002097          	auipc	ra,0xe0002
20000786:	8ac080e7          	jalr	-1876(ra) # 202e <puts>
c:\Users\Administrator\Documents\MyCode\0331\ch582m\my_ch582m\obj/../Code/my_interface.c:380
                if (event & (RB_I2C_RxNE)) {
2000078a:	060b0463          	beqz	s6,200007f2 <I2C_IRQHandler+0x416>
c:\Users\Administrator\Documents\MyCode\0331\ch582m\my_ch582m\obj/../Code/my_interface.c:382
                    i2c_master_buffer[i2c_master_buffer_index++] = I2C_ReceiveData();
2000078e:	8121c483          	lbu	s1,-2030(gp) # 200010f2 <i2c_master_buffer_index>
20000792:	00148793          	addi	a5,s1,1
20000796:	80f18923          	sb	a5,-2030(gp) # 200010f2 <i2c_master_buffer_index>
2000079a:	e0001097          	auipc	ra,0xe0001
2000079e:	d38080e7          	jalr	-712(ra) # 14d2 <I2C_ReceiveData>
200007a2:	8a018793          	addi	a5,gp,-1888 # 20001180 <i2c_master_buffer>
200007a6:	94be                	add	s1,s1,a5
200007a8:	00a48023          	sb	a0,0(s1)
c:\Users\Administrator\Documents\MyCode\0331\ch582m\my_ch582m\obj/../Code/my_interface.c:384
                    if (i2c_master_buffer_index < i2c_master_buffer_length) {
200007ac:	8121c703          	lbu	a4,-2030(gp) # 200010f2 <i2c_master_buffer_index>
200007b0:	8131c683          	lbu	a3,-2029(gp) # 200010f3 <i2c_master_buffer_length>
200007b4:	84be                	mv	s1,a5
200007b6:	0ad77b63          	bgeu	a4,a3,2000086c <I2C_IRQHandler+0x490>
c:\Users\Administrator\Documents\MyCode\0331\ch582m\my_ch582m\obj/../Code/my_interface.c:385
                        I2C_AcknowledgeConfig(ENABLE);
200007ba:	4505                	li	a0,1
200007bc:	e0001097          	auipc	ra,0xe0001
200007c0:	ccc080e7          	jalr	-820(ra) # 1488 <I2C_AcknowledgeConfig>
c:\Users\Administrator\Documents\MyCode\0331\ch582m\my_ch582m\obj/../Code/my_interface.c:386
                        I2C_DBG("  ACK next\n");
200007c4:	e0003517          	auipc	a0,0xe0003
200007c8:	05050513          	addi	a0,a0,80 # 3814 <_read+0x1a6>
c:\Users\Administrator\Documents\MyCode\0331\ch582m\my_ch582m\obj/../Code/my_interface.c:397
                                I2C_DBG("  send STOP\n");
200007cc:	e0002097          	auipc	ra,0xe0002
200007d0:	862080e7          	jalr	-1950(ra) # 202e <puts>
c:\Users\Administrator\Documents\MyCode\0331\ch582m\my_ch582m\obj/../Code/my_interface.c:414
                    I2C_DBG("  received data (%#x)\n", 
200007d4:	81218793          	addi	a5,gp,-2030 # 200010f2 <i2c_master_buffer_index>
200007d8:	0007c783          	lbu	a5,0(a5)
200007dc:	e0003517          	auipc	a0,0xe0003
200007e0:	05050513          	addi	a0,a0,80 # 382c <_read+0x1be>
200007e4:	97a6                	add	a5,a5,s1
200007e6:	fff7c583          	lbu	a1,-1(a5)
200007ea:	e0001097          	auipc	ra,0xe0001
200007ee:	700080e7          	jalr	1792(ra) # 1eea <iprintf>
c:\Users\Administrator\Documents\MyCode\0331\ch582m\my_ch582m\obj/../Code/my_interface.c:420
                if (event & RB_I2C_AF) {
200007f2:	30098f63          	beqz	s3,20000b10 <I2C_IRQHandler+0x734>
c:\Users\Administrator\Documents\MyCode\0331\ch582m\my_ch582m\obj/../Code/my_interface.c:421
                    I2C_ClearFlag(I2C_FLAG_AF);
200007f6:	10000537          	lui	a0,0x10000
200007fa:	40050513          	addi	a0,a0,1024 # 10000400 <_data_lma+0xfffc8e0>
200007fe:	e0001097          	auipc	ra,0xe0001
20000802:	cf8080e7          	jalr	-776(ra) # 14f6 <I2C_ClearFlag>
c:\Users\Administrator\Documents\MyCode\0331\ch582m\my_ch582m\obj/../Code/my_interface.c:423
                    i2c_master_buffer[i2c_master_buffer_index++] = I2C_ReceiveData();
20000806:	8121c483          	lbu	s1,-2030(gp) # 200010f2 <i2c_master_buffer_index>
2000080a:	00148793          	addi	a5,s1,1
2000080e:	80f18923          	sb	a5,-2030(gp) # 200010f2 <i2c_master_buffer_index>
20000812:	e0001097          	auipc	ra,0xe0001
20000816:	cc0080e7          	jalr	-832(ra) # 14d2 <I2C_ReceiveData>
2000081a:	8a018793          	addi	a5,gp,-1888 # 20001180 <i2c_master_buffer>
2000081e:	97a6                	add	a5,a5,s1
20000820:	00a78023          	sb	a0,0(a5)
c:\Users\Administrator\Documents\MyCode\0331\ch582m\my_ch582m\obj/../Code/my_interface.c:425
                    if (i2c_send_stop) {
20000824:	8141c783          	lbu	a5,-2028(gp) # 200010f4 <i2c_send_stop>
20000828:	cbf9                	beqz	a5,200008fe <I2C_IRQHandler+0x522>
c:\Users\Administrator\Documents\MyCode\0331\ch582m\my_ch582m\obj/../Code/my_interface.c:427
                        I2C_GenerateSTOP(ENABLE);
2000082a:	4505                	li	a0,1
c:\Users\Administrator\Documents\MyCode\0331\ch582m\my_ch582m\obj/../Code/my_interface.c:426
                        i2c_state = I2C_READY;
2000082c:	80018ca3          	sb	zero,-2023(gp) # 200010f9 <i2c_state>
c:\Users\Administrator\Documents\MyCode\0331\ch582m\my_ch582m\obj/../Code/my_interface.c:427
                        I2C_GenerateSTOP(ENABLE);
20000830:	e0001097          	auipc	ra,0xe0001
20000834:	c36080e7          	jalr	-970(ra) # 1466 <I2C_GenerateSTOP>
c:\Users\Administrator\Documents\MyCode\0331\ch582m\my_ch582m\obj/../Code/my_interface.c:428
                        I2C_DBG("  NACK received, send STOP\n");
20000838:	e0003517          	auipc	a0,0xe0003
2000083c:	00c50513          	addi	a0,a0,12 # 3844 <_read+0x1d6>
20000840:	b571                	j	200006cc <I2C_IRQHandler+0x2f0>
c:\Users\Administrator\Documents\MyCode\0331\ch582m\my_ch582m\obj/../Code/my_interface.c:372
                        I2C_AcknowledgeConfig(DISABLE);
20000842:	4501                	li	a0,0
20000844:	e0001097          	auipc	ra,0xe0001
20000848:	c44080e7          	jalr	-956(ra) # 1488 <I2C_AcknowledgeConfig>
c:\Users\Administrator\Documents\MyCode\0331\ch582m\my_ch582m\obj/../Code/my_interface.c:373
                        is_nack_sent = true;
2000084c:	4785                	li	a5,1
c:\Users\Administrator\Documents\MyCode\0331\ch582m\my_ch582m\obj/../Code/my_interface.c:374
                        I2C_DBG("  address sent\n");
2000084e:	e0003517          	auipc	a0,0xe0003
20000852:	fb650513          	addi	a0,a0,-74 # 3804 <_read+0x196>
c:\Users\Administrator\Documents\MyCode\0331\ch582m\my_ch582m\obj/../Code/my_interface.c:373
                        is_nack_sent = true;
20000856:	80f18d23          	sb	a5,-2022(gp) # 200010fa <is_nack_sent>
c:\Users\Administrator\Documents\MyCode\0331\ch582m\my_ch582m\obj/../Code/my_interface.c:374
                        I2C_DBG("  address sent\n");
2000085a:	e0001097          	auipc	ra,0xe0001
2000085e:	7d4080e7          	jalr	2004(ra) # 202e <puts>
c:\Users\Administrator\Documents\MyCode\0331\ch582m\my_ch582m\obj/../Code/my_interface.c:375
                        I2C_DBG("  NACK next\n");
20000862:	e0003517          	auipc	a0,0xe0003
20000866:	fbe50513          	addi	a0,a0,-66 # 3820 <_read+0x1b2>
2000086a:	bf21                	j	20000782 <I2C_IRQHandler+0x3a6>
c:\Users\Administrator\Documents\MyCode\0331\ch582m\my_ch582m\obj/../Code/my_interface.c:389
                        I2C_AcknowledgeConfig(DISABLE);
2000086c:	4501                	li	a0,0
2000086e:	e0001097          	auipc	ra,0xe0001
20000872:	c1a080e7          	jalr	-998(ra) # 1488 <I2C_AcknowledgeConfig>
c:\Users\Administrator\Documents\MyCode\0331\ch582m\my_ch582m\obj/../Code/my_interface.c:390
                        I2C_DBG("  NACK next\n");
20000876:	e0003517          	auipc	a0,0xe0003
2000087a:	faa50513          	addi	a0,a0,-86 # 3820 <_read+0x1b2>
2000087e:	e0001097          	auipc	ra,0xe0001
20000882:	7b0080e7          	jalr	1968(ra) # 202e <puts>
c:\Users\Administrator\Documents\MyCode\0331\ch582m\my_ch582m\obj/../Code/my_interface.c:392
                        if (is_nack_sent) {
20000886:	81a1c783          	lbu	a5,-2022(gp) # 200010fa <is_nack_sent>
2000088a:	c7b5                	beqz	a5,200008f6 <I2C_IRQHandler+0x51a>
c:\Users\Administrator\Documents\MyCode\0331\ch582m\my_ch582m\obj/../Code/my_interface.c:393
                            is_nack_sent = false;
2000088c:	80018d23          	sb	zero,-2022(gp) # 200010fa <is_nack_sent>
c:\Users\Administrator\Documents\MyCode\0331\ch582m\my_ch582m\obj/../Code/my_interface.c:394
                            if (i2c_send_stop) {
20000890:	8141c783          	lbu	a5,-2028(gp) # 200010f4 <i2c_send_stop>
20000894:	cf89                	beqz	a5,200008ae <I2C_IRQHandler+0x4d2>
c:\Users\Administrator\Documents\MyCode\0331\ch582m\my_ch582m\obj/../Code/my_interface.c:395
                                I2C_GenerateSTOP(ENABLE);
20000896:	4505                	li	a0,1
20000898:	e0001097          	auipc	ra,0xe0001
2000089c:	bce080e7          	jalr	-1074(ra) # 1466 <I2C_GenerateSTOP>
c:\Users\Administrator\Documents\MyCode\0331\ch582m\my_ch582m\obj/../Code/my_interface.c:397
                                I2C_DBG("  send STOP\n");
200008a0:	e0003517          	auipc	a0,0xe0003
200008a4:	f1c50513          	addi	a0,a0,-228 # 37bc <_read+0x14e>
c:\Users\Administrator\Documents\MyCode\0331\ch582m\my_ch582m\obj/../Code/my_interface.c:396
                                i2c_state = I2C_READY;
200008a8:	80018ca3          	sb	zero,-2023(gp) # 200010f9 <i2c_state>
c:\Users\Administrator\Documents\MyCode\0331\ch582m\my_ch582m\obj/../Code/my_interface.c:397
                                I2C_DBG("  send STOP\n");
200008ac:	b705                	j	200007cc <I2C_IRQHandler+0x3f0>
c:\Users\Administrator\Documents\MyCode\0331\ch582m\my_ch582m\obj/../Code/my_interface.c:399
                                i2c_in_repstart = true;
200008ae:	4785                	li	a5,1
c:\Users\Administrator\Documents\MyCode\0331\ch582m\my_ch582m\obj/../Code/my_interface.c:401
                                I2C_ITConfig(I2C_IT_BUF, DISABLE);
200008b0:	4581                	li	a1,0
200008b2:	40000513          	li	a0,1024
c:\Users\Administrator\Documents\MyCode\0331\ch582m\my_ch582m\obj/../Code/my_interface.c:399
                                i2c_in_repstart = true;
200008b6:	80f188a3          	sb	a5,-2031(gp) # 200010f1 <i2c_in_repstart>
c:\Users\Administrator\Documents\MyCode\0331\ch582m\my_ch582m\obj/../Code/my_interface.c:401
                                I2C_ITConfig(I2C_IT_BUF, DISABLE);
200008ba:	e0001097          	auipc	ra,0xe0001
200008be:	bf0080e7          	jalr	-1040(ra) # 14aa <I2C_ITConfig>
c:\Users\Administrator\Documents\MyCode\0331\ch582m\my_ch582m\obj/../Code/my_interface.c:402
                                I2C_ITConfig(I2C_IT_EVT, DISABLE);
200008c2:	4581                	li	a1,0
200008c4:	20000513          	li	a0,512
200008c8:	e0001097          	auipc	ra,0xe0001
200008cc:	be2080e7          	jalr	-1054(ra) # 14aa <I2C_ITConfig>
c:\Users\Administrator\Documents\MyCode\0331\ch582m\my_ch582m\obj/../Code/my_interface.c:403
                                I2C_ITConfig(I2C_IT_ERR, DISABLE);
200008d0:	4581                	li	a1,0
200008d2:	10000513          	li	a0,256
200008d6:	e0001097          	auipc	ra,0xe0001
200008da:	bd4080e7          	jalr	-1068(ra) # 14aa <I2C_ITConfig>
c:\Users\Administrator\Documents\MyCode\0331\ch582m\my_ch582m\obj/../Code/my_interface.c:404
                                I2C_GenerateSTART(ENABLE);
200008de:	4505                	li	a0,1
200008e0:	e0001097          	auipc	ra,0xe0001
200008e4:	b64080e7          	jalr	-1180(ra) # 1444 <I2C_GenerateSTART>
c:\Users\Administrator\Documents\MyCode\0331\ch582m\my_ch582m\obj/../Code/my_interface.c:406
                                I2C_DBG("  restart\n");
200008e8:	e0003517          	auipc	a0,0xe0003
200008ec:	ee050513          	addi	a0,a0,-288 # 37c8 <_read+0x15a>
c:\Users\Administrator\Documents\MyCode\0331\ch582m\my_ch582m\obj/../Code/my_interface.c:405
                                i2c_state = I2C_READY;
200008f0:	80018ca3          	sb	zero,-2023(gp) # 200010f9 <i2c_state>
c:\Users\Administrator\Documents\MyCode\0331\ch582m\my_ch582m\obj/../Code/my_interface.c:406
                                I2C_DBG("  restart\n");
200008f4:	bde1                	j	200007cc <I2C_IRQHandler+0x3f0>
c:\Users\Administrator\Documents\MyCode\0331\ch582m\my_ch582m\obj/../Code/my_interface.c:410
                            is_nack_sent = true;
200008f6:	4785                	li	a5,1
200008f8:	80f18d23          	sb	a5,-2022(gp) # 200010fa <is_nack_sent>
200008fc:	bde1                	j	200007d4 <I2C_IRQHandler+0x3f8>
c:\Users\Administrator\Documents\MyCode\0331\ch582m\my_ch582m\obj/../Code/my_interface.c:430
                        i2c_in_repstart = true;
200008fe:	4785                	li	a5,1
c:\Users\Administrator\Documents\MyCode\0331\ch582m\my_ch582m\obj/../Code/my_interface.c:432
                        I2C_ITConfig(I2C_IT_BUF, DISABLE);
20000900:	4581                	li	a1,0
20000902:	40000513          	li	a0,1024
c:\Users\Administrator\Documents\MyCode\0331\ch582m\my_ch582m\obj/../Code/my_interface.c:430
                        i2c_in_repstart = true;
20000906:	80f188a3          	sb	a5,-2031(gp) # 200010f1 <i2c_in_repstart>
c:\Users\Administrator\Documents\MyCode\0331\ch582m\my_ch582m\obj/../Code/my_interface.c:432
                        I2C_ITConfig(I2C_IT_BUF, DISABLE);
2000090a:	e0001097          	auipc	ra,0xe0001
2000090e:	ba0080e7          	jalr	-1120(ra) # 14aa <I2C_ITConfig>
c:\Users\Administrator\Documents\MyCode\0331\ch582m\my_ch582m\obj/../Code/my_interface.c:433
                        I2C_ITConfig(I2C_IT_EVT, DISABLE);
20000912:	4581                	li	a1,0
20000914:	20000513          	li	a0,512
20000918:	e0001097          	auipc	ra,0xe0001
2000091c:	b92080e7          	jalr	-1134(ra) # 14aa <I2C_ITConfig>
c:\Users\Administrator\Documents\MyCode\0331\ch582m\my_ch582m\obj/../Code/my_interface.c:434
                        I2C_ITConfig(I2C_IT_ERR, DISABLE);
20000920:	4581                	li	a1,0
20000922:	10000513          	li	a0,256
20000926:	e0001097          	auipc	ra,0xe0001
2000092a:	b84080e7          	jalr	-1148(ra) # 14aa <I2C_ITConfig>
c:\Users\Administrator\Documents\MyCode\0331\ch582m\my_ch582m\obj/../Code/my_interface.c:435
                        I2C_GenerateSTART(ENABLE);
2000092e:	4505                	li	a0,1
20000930:	e0001097          	auipc	ra,0xe0001
20000934:	b14080e7          	jalr	-1260(ra) # 1444 <I2C_GenerateSTART>
c:\Users\Administrator\Documents\MyCode\0331\ch582m\my_ch582m\obj/../Code/my_interface.c:437
                        I2C_DBG("  restart\n");
20000938:	e0003517          	auipc	a0,0xe0003
2000093c:	e9050513          	addi	a0,a0,-368 # 37c8 <_read+0x15a>
c:\Users\Administrator\Documents\MyCode\0331\ch582m\my_ch582m\obj/../Code/my_interface.c:436
                        i2c_state = I2C_READY;
20000940:	80018ca3          	sb	zero,-2023(gp) # 200010f9 <i2c_state>
c:\Users\Administrator\Documents\MyCode\0331\ch582m\my_ch582m\obj/../Code/my_interface.c:437
                        I2C_DBG("  restart\n");
20000944:	b361                	j	200006cc <I2C_IRQHandler+0x2f0>
c:\Users\Administrator\Documents\MyCode\0331\ch582m\my_ch582m\obj/../Code/my_interface.c:445
            if (event & RB_I2C_ADDR) {
20000946:	040b8363          	beqz	s7,2000098c <I2C_IRQHandler+0x5b0>
c:\Users\Administrator\Documents\MyCode\0331\ch582m\my_ch582m\obj/../Code/my_interface.c:447
                if (event & ((RB_I2C_TRA << 16) | RB_I2C_TxE)) {
2000094a:	000407b7          	lui	a5,0x40
2000094e:	08078793          	addi	a5,a5,128 # 40080 <_data_lma+0x3c560>
20000952:	8fe1                	and	a5,a5,s0
20000954:	14078763          	beqz	a5,20000aa2 <I2C_IRQHandler+0x6c6>
c:\Users\Administrator\Documents\MyCode\0331\ch582m\my_ch582m\obj/../Code/my_interface.c:448
                    I2C_DBG("Slave transmitter address matched\n");
20000958:	e0003517          	auipc	a0,0xe0003
2000095c:	f0850513          	addi	a0,a0,-248 # 3860 <_read+0x1f2>
20000960:	e0001097          	auipc	ra,0xe0001
20000964:	6ce080e7          	jalr	1742(ra) # 202e <puts>
c:\Users\Administrator\Documents\MyCode\0331\ch582m\my_ch582m\obj/../Code/my_interface.c:450
                    i2c_state = I2C_STX;
20000968:	4791                	li	a5,4
2000096a:	80f18ca3          	sb	a5,-2023(gp) # 200010f9 <i2c_state>
c:\Users\Administrator\Documents\MyCode\0331\ch582m\my_ch582m\obj/../Code/my_interface.c:451
                    i2c_slave_txbuffer_index = 0;
2000096e:	80018ba3          	sb	zero,-2025(gp) # 200010f7 <i2c_slave_txbuffer_index>
c:\Users\Administrator\Documents\MyCode\0331\ch582m\my_ch582m\obj/../Code/my_interface.c:452
                    i2c_slave_txbuffer_length = 0;
20000972:	80018c23          	sb	zero,-2024(gp) # 200010f8 <i2c_slave_txbuffer_length>
c:\Users\Administrator\Documents\MyCode\0331\ch582m\my_ch582m\obj/../Code/my_interface.c:454
                    if (slave_cb && slave_cb->on_transmit) {
20000976:	81c18793          	addi	a5,gp,-2020 # 200010fc <slave_cb>
2000097a:	439c                	lw	a5,0(a5)
2000097c:	cb81                	beqz	a5,2000098c <I2C_IRQHandler+0x5b0>
c:\Users\Administrator\Documents\MyCode\0331\ch582m\my_ch582m\obj/../Code/my_interface.c:454 (discriminator 1)
2000097e:	439c                	lw	a5,0(a5)
20000980:	c791                	beqz	a5,2000098c <I2C_IRQHandler+0x5b0>
c:\Users\Administrator\Documents\MyCode\0331\ch582m\my_ch582m\obj/../Code/my_interface.c:455
                        slave_cb->on_transmit(i2c_slave_txbuffer, &i2c_slave_txbuffer_length);
20000982:	81818593          	addi	a1,gp,-2024 # 200010f8 <i2c_slave_txbuffer_length>
20000986:	8e018513          	addi	a0,gp,-1824 # 200011c0 <i2c_slave_txbuffer>
2000098a:	9782                	jalr	a5
c:\Users\Administrator\Documents\MyCode\0331\ch582m\my_ch582m\obj/../Code/my_interface.c:465
            if (event & (RB_I2C_TRA << 16)) { //TODO: STOP?
2000098c:	1e048b63          	beqz	s1,20000b82 <I2C_IRQHandler+0x7a6>
c:\Users\Administrator\Documents\MyCode\0331\ch582m\my_ch582m\obj/../Code/my_interface.c:467
                I2C_AcknowledgeConfig(ENABLE);
20000990:	4505                	li	a0,1
20000992:	e0001097          	auipc	ra,0xe0001
20000996:	af6080e7          	jalr	-1290(ra) # 1488 <I2C_AcknowledgeConfig>
c:\Users\Administrator\Documents\MyCode\0331\ch582m\my_ch582m\obj/../Code/my_interface.c:468
                I2C_DBG("Slave transmitter:\n");
2000099a:	e0003517          	auipc	a0,0xe0003
2000099e:	f0a50513          	addi	a0,a0,-246 # 38a4 <_read+0x236>
200009a2:	e0001097          	auipc	ra,0xe0001
200009a6:	68c080e7          	jalr	1676(ra) # 202e <puts>
c:\Users\Administrator\Documents\MyCode\0331\ch582m\my_ch582m\obj/../Code/my_interface.c:470
                if (event & RB_I2C_AF) {
200009aa:	10098a63          	beqz	s3,20000abe <I2C_IRQHandler+0x6e2>
c:\Users\Administrator\Documents\MyCode\0331\ch582m\my_ch582m\obj/../Code/my_interface.c:472
                    I2C_ClearFlag(I2C_FLAG_AF);
200009ae:	10000537          	lui	a0,0x10000
200009b2:	40050513          	addi	a0,a0,1024 # 10000400 <_data_lma+0xfffc8e0>
200009b6:	e0001097          	auipc	ra,0xe0001
200009ba:	b40080e7          	jalr	-1216(ra) # 14f6 <I2C_ClearFlag>
c:\Users\Administrator\Documents\MyCode\0331\ch582m\my_ch582m\obj/../Code/my_interface.c:473
                    I2C_AcknowledgeConfig(ENABLE);
200009be:	4505                	li	a0,1
200009c0:	e0001097          	auipc	ra,0xe0001
200009c4:	ac8080e7          	jalr	-1336(ra) # 1488 <I2C_AcknowledgeConfig>
c:\Users\Administrator\Documents\MyCode\0331\ch582m\my_ch582m\obj/../Code/my_interface.c:474
                    I2C_DBG("  Nack received\n");
200009c8:	e0003517          	auipc	a0,0xe0003
200009cc:	ef050513          	addi	a0,a0,-272 # 38b8 <_read+0x24a>
200009d0:	e0001097          	auipc	ra,0xe0001
200009d4:	65e080e7          	jalr	1630(ra) # 202e <puts>
c:\Users\Administrator\Documents\MyCode\0331\ch582m\my_ch582m\obj/../Code/my_interface.c:479
                    event = 0;
200009d8:	4401                	li	s0,0
c:\Users\Administrator\Documents\MyCode\0331\ch582m\my_ch582m\obj/../Code/my_interface.c:477
                    i2c_state = I2C_READY;
200009da:	80018ca3          	sb	zero,-2023(gp) # 200010f9 <i2c_state>
c:\Users\Administrator\Documents\MyCode\0331\ch582m\my_ch582m\obj/../Code/my_interface.c:550
            
            i2c_error = I2C_ARB_LOST;
            I2C_DBG("RB_I2C_ARLO\n");
        }

        if (event & RB_I2C_OVR) {
200009de:	6505                	lui	a0,0x1
200009e0:	80050513          	addi	a0,a0,-2048 # 800 <__stack_size+0x600>
200009e4:	00a477b3          	and	a5,s0,a0
200009e8:	c385                	beqz	a5,20000a08 <I2C_IRQHandler+0x62c>
c:\Users\Administrator\Documents\MyCode\0331\ch582m\my_ch582m\obj/../Code/my_interface.c:551
            I2C_ClearFlag(RB_I2C_OVR);
200009ea:	e0001097          	auipc	ra,0xe0001
200009ee:	b0c080e7          	jalr	-1268(ra) # 14f6 <I2C_ClearFlag>
c:\Users\Administrator\Documents\MyCode\0331\ch582m\my_ch582m\obj/../Code/my_interface.c:553
            
            i2c_error = I2C_OVR;
200009f2:	4799                	li	a5,6
c:\Users\Administrator\Documents\MyCode\0331\ch582m\my_ch582m\obj/../Code/my_interface.c:554
            I2C_DBG("RB_I2C_OVR\n");
200009f4:	e0003517          	auipc	a0,0xe0003
200009f8:	f3c50513          	addi	a0,a0,-196 # 3930 <_read+0x2c2>
c:\Users\Administrator\Documents\MyCode\0331\ch582m\my_ch582m\obj/../Code/my_interface.c:553
            i2c_error = I2C_OVR;
200009fc:	80f18823          	sb	a5,-2032(gp) # 200010f0 <_edata>
c:\Users\Administrator\Documents\MyCode\0331\ch582m\my_ch582m\obj/../Code/my_interface.c:554
            I2C_DBG("RB_I2C_OVR\n");
20000a00:	e0001097          	auipc	ra,0xe0001
20000a04:	62e080e7          	jalr	1582(ra) # 202e <puts>
c:\Users\Administrator\Documents\MyCode\0331\ch582m\my_ch582m\obj/../Code/my_interface.c:557
        }

        if (event & RB_I2C_PECERR) {
20000a08:	01341793          	slli	a5,s0,0x13
20000a0c:	0207d263          	bgez	a5,20000a30 <I2C_IRQHandler+0x654>
c:\Users\Administrator\Documents\MyCode\0331\ch582m\my_ch582m\obj/../Code/my_interface.c:558
            I2C_ClearFlag(RB_I2C_PECERR);
20000a10:	6505                	lui	a0,0x1
20000a12:	e0001097          	auipc	ra,0xe0001
20000a16:	ae4080e7          	jalr	-1308(ra) # 14f6 <I2C_ClearFlag>
c:\Users\Administrator\Documents\MyCode\0331\ch582m\my_ch582m\obj/../Code/my_interface.c:560
            
            i2c_error = I2C_PECERR;
20000a1a:	479d                	li	a5,7
c:\Users\Administrator\Documents\MyCode\0331\ch582m\my_ch582m\obj/../Code/my_interface.c:561
            I2C_DBG("RB_I2C_PECERR\n");
20000a1c:	e0003517          	auipc	a0,0xe0003
20000a20:	f2050513          	addi	a0,a0,-224 # 393c <_read+0x2ce>
c:\Users\Administrator\Documents\MyCode\0331\ch582m\my_ch582m\obj/../Code/my_interface.c:560
            i2c_error = I2C_PECERR;
20000a24:	80f18823          	sb	a5,-2032(gp) # 200010f0 <_edata>
c:\Users\Administrator\Documents\MyCode\0331\ch582m\my_ch582m\obj/../Code/my_interface.c:561
            I2C_DBG("RB_I2C_PECERR\n");
20000a28:	e0001097          	auipc	ra,0xe0001
20000a2c:	606080e7          	jalr	1542(ra) # 202e <puts>
c:\Users\Administrator\Documents\MyCode\0331\ch582m\my_ch582m\obj/../Code/my_interface.c:564
        }

        if (event & RB_I2C_TIMEOUT) {
20000a30:	01141793          	slli	a5,s0,0x11
20000a34:	0207d263          	bgez	a5,20000a58 <I2C_IRQHandler+0x67c>
c:\Users\Administrator\Documents\MyCode\0331\ch582m\my_ch582m\obj/../Code/my_interface.c:565
            I2C_ClearFlag(RB_I2C_TIMEOUT);
20000a38:	6511                	lui	a0,0x4
20000a3a:	e0001097          	auipc	ra,0xe0001
20000a3e:	abc080e7          	jalr	-1348(ra) # 14f6 <I2C_ClearFlag>
c:\Users\Administrator\Documents\MyCode\0331\ch582m\my_ch582m\obj/../Code/my_interface.c:567
            
            i2c_error = I2C_TIMEOUT;
20000a42:	47a1                	li	a5,8
c:\Users\Administrator\Documents\MyCode\0331\ch582m\my_ch582m\obj/../Code/my_interface.c:568
            I2C_DBG("RB_I2C_TIMEOUT\n");
20000a44:	e0003517          	auipc	a0,0xe0003
20000a48:	f0850513          	addi	a0,a0,-248 # 394c <_read+0x2de>
c:\Users\Administrator\Documents\MyCode\0331\ch582m\my_ch582m\obj/../Code/my_interface.c:567
            i2c_error = I2C_TIMEOUT;
20000a4c:	80f18823          	sb	a5,-2032(gp) # 200010f0 <_edata>
c:\Users\Administrator\Documents\MyCode\0331\ch582m\my_ch582m\obj/../Code/my_interface.c:568
            I2C_DBG("RB_I2C_TIMEOUT\n");
20000a50:	e0001097          	auipc	ra,0xe0001
20000a54:	5de080e7          	jalr	1502(ra) # 202e <puts>
c:\Users\Administrator\Documents\MyCode\0331\ch582m\my_ch582m\obj/../Code/my_interface.c:571
        }

        if (event & RB_I2C_SMBALERT) {
20000a58:	01041793          	slli	a5,s0,0x10
20000a5c:	0207d263          	bgez	a5,20000a80 <I2C_IRQHandler+0x6a4>
c:\Users\Administrator\Documents\MyCode\0331\ch582m\my_ch582m\obj/../Code/my_interface.c:572
            I2C_ClearFlag(RB_I2C_SMBALERT);
20000a60:	6521                	lui	a0,0x8
20000a62:	e0001097          	auipc	ra,0xe0001
20000a66:	a94080e7          	jalr	-1388(ra) # 14f6 <I2C_ClearFlag>
c:\Users\Administrator\Documents\MyCode\0331\ch582m\my_ch582m\obj/../Code/my_interface.c:574
            
            i2c_error = I2C_SMBALERT;
20000a6a:	47a5                	li	a5,9
c:\Users\Administrator\Documents\MyCode\0331\ch582m\my_ch582m\obj/../Code/my_interface.c:575
            I2C_DBG("RB_I2C_SMBALERT\n");
20000a6c:	e0003517          	auipc	a0,0xe0003
20000a70:	ef050513          	addi	a0,a0,-272 # 395c <_read+0x2ee>
c:\Users\Administrator\Documents\MyCode\0331\ch582m\my_ch582m\obj/../Code/my_interface.c:574
            i2c_error = I2C_SMBALERT;
20000a74:	80f18823          	sb	a5,-2032(gp) # 200010f0 <_edata>
c:\Users\Administrator\Documents\MyCode\0331\ch582m\my_ch582m\obj/../Code/my_interface.c:575
            I2C_DBG("RB_I2C_SMBALERT\n");
20000a78:	e0001097          	auipc	ra,0xe0001
20000a7c:	5b6080e7          	jalr	1462(ra) # 202e <puts>
c:\Users\Administrator\Documents\MyCode\0331\ch582m\my_ch582m\obj/../Code/my_interface.c:578
        }

        I2C_DBG("\n");
20000a80:	4529                	li	a0,10
20000a82:	e0001097          	auipc	ra,0xe0001
20000a86:	4a8080e7          	jalr	1192(ra) # 1f2a <putchar>
c:\Users\Administrator\Documents\MyCode\0331\ch582m\my_ch582m\obj/../Code/my_interface.c:579
    }
20000a8a:	5432                	lw	s0,44(sp)
20000a8c:	54a2                	lw	s1,40(sp)
20000a8e:	5912                	lw	s2,36(sp)
20000a90:	5982                	lw	s3,32(sp)
20000a92:	4a72                	lw	s4,28(sp)
20000a94:	4ae2                	lw	s5,24(sp)
20000a96:	4b52                	lw	s6,20(sp)
20000a98:	4bc2                	lw	s7,16(sp)
20000a9a:	4c32                	lw	s8,12(sp)
20000a9c:	6145                	addi	sp,sp,48
20000a9e:	30200073          	mret
c:\Users\Administrator\Documents\MyCode\0331\ch582m\my_ch582m\obj/../Code/my_interface.c:458
                    I2C_DBG("Slave reveiver address matched\n");
20000aa2:	e0003517          	auipc	a0,0xe0003
20000aa6:	de250513          	addi	a0,a0,-542 # 3884 <_read+0x216>
20000aaa:	e0001097          	auipc	ra,0xe0001
20000aae:	584080e7          	jalr	1412(ra) # 202e <puts>
c:\Users\Administrator\Documents\MyCode\0331\ch582m\my_ch582m\obj/../Code/my_interface.c:460
                    i2c_state = I2C_SRX;
20000ab2:	478d                	li	a5,3
20000ab4:	80f18ca3          	sb	a5,-2023(gp) # 200010f9 <i2c_state>
c:\Users\Administrator\Documents\MyCode\0331\ch582m\my_ch582m\obj/../Code/my_interface.c:461
                    i2c_slave_rxbuffer_index = 0;
20000ab8:	80018b23          	sb	zero,-2026(gp) # 200010f6 <i2c_slave_rxbuffer_index>
20000abc:	bdc1                	j	2000098c <I2C_IRQHandler+0x5b0>
c:\Users\Administrator\Documents\MyCode\0331\ch582m\my_ch582m\obj/../Code/my_interface.c:482
                if (event & (RB_I2C_BTF | RB_I2C_TxE)) {
20000abe:	08447793          	andi	a5,s0,132
20000ac2:	c7b9                	beqz	a5,20000b10 <I2C_IRQHandler+0x734>
c:\Users\Administrator\Documents\MyCode\0331\ch582m\my_ch582m\obj/../Code/my_interface.c:484
                    if (i2c_slave_txbuffer_index < i2c_slave_txbuffer_length) {
20000ac4:	8171c783          	lbu	a5,-2025(gp) # 200010f7 <i2c_slave_txbuffer_index>
20000ac8:	8181c703          	lbu	a4,-2024(gp) # 200010f8 <i2c_slave_txbuffer_length>
20000acc:	81718993          	addi	s3,gp,-2025 # 200010f7 <i2c_slave_txbuffer_index>
20000ad0:	08e7fe63          	bgeu	a5,a4,20000b6c <I2C_IRQHandler+0x790>
c:\Users\Administrator\Documents\MyCode\0331\ch582m\my_ch582m\obj/../Code/my_interface.c:486
                        I2C_SendData(i2c_slave_txbuffer[i2c_slave_txbuffer_index++]);
20000ad4:	0009c783          	lbu	a5,0(s3)
20000ad8:	8e018493          	addi	s1,gp,-1824 # 200011c0 <i2c_slave_txbuffer>
20000adc:	0ff7f793          	andi	a5,a5,255
20000ae0:	00178713          	addi	a4,a5,1
20000ae4:	97a6                	add	a5,a5,s1
20000ae6:	0007c503          	lbu	a0,0(a5)
20000aea:	80e18ba3          	sb	a4,-2025(gp) # 200010f7 <i2c_slave_txbuffer_index>
20000aee:	e0001097          	auipc	ra,0xe0001
20000af2:	9da080e7          	jalr	-1574(ra) # 14c8 <I2C_SendData>
c:\Users\Administrator\Documents\MyCode\0331\ch582m\my_ch582m\obj/../Code/my_interface.c:487
                        I2C_DBG("  send (%#x)\n", 
20000af6:	0009c783          	lbu	a5,0(s3)
20000afa:	e0003517          	auipc	a0,0xe0003
20000afe:	cb250513          	addi	a0,a0,-846 # 37ac <_read+0x13e>
20000b02:	94be                	add	s1,s1,a5
20000b04:	fff4c583          	lbu	a1,-1(s1)
20000b08:	e0001097          	auipc	ra,0xe0001
20000b0c:	3e2080e7          	jalr	994(ra) # 1eea <iprintf>
c:\Users\Administrator\Documents\MyCode\0331\ch582m\my_ch582m\obj/../Code/my_interface.c:535
        if (event & RB_I2C_BERR) {
20000b10:	02090863          	beqz	s2,20000b40 <I2C_IRQHandler+0x764>
c:\Users\Administrator\Documents\MyCode\0331\ch582m\my_ch582m\obj/../Code/my_interface.c:536
            I2C_ClearFlag(RB_I2C_BERR);
20000b14:	10000513          	li	a0,256
20000b18:	e0001097          	auipc	ra,0xe0001
20000b1c:	9de080e7          	jalr	-1570(ra) # 14f6 <I2C_ClearFlag>
c:\Users\Administrator\Documents\MyCode\0331\ch582m\my_ch582m\obj/../Code/my_interface.c:537
            I2C_GenerateSTOP(ENABLE);
20000b20:	4505                	li	a0,1
20000b22:	e0001097          	auipc	ra,0xe0001
20000b26:	944080e7          	jalr	-1724(ra) # 1466 <I2C_GenerateSTOP>
c:\Users\Administrator\Documents\MyCode\0331\ch582m\my_ch582m\obj/../Code/my_interface.c:539
            i2c_error = I2C_BUS_ERROR;
20000b2a:	4795                	li	a5,5
c:\Users\Administrator\Documents\MyCode\0331\ch582m\my_ch582m\obj/../Code/my_interface.c:540
            I2C_DBG("RB_I2C_BERR\n");
20000b2c:	e0003517          	auipc	a0,0xe0003
20000b30:	dec50513          	addi	a0,a0,-532 # 3918 <_read+0x2aa>
c:\Users\Administrator\Documents\MyCode\0331\ch582m\my_ch582m\obj/../Code/my_interface.c:539
            i2c_error = I2C_BUS_ERROR;
20000b34:	80f18823          	sb	a5,-2032(gp) # 200010f0 <_edata>
c:\Users\Administrator\Documents\MyCode\0331\ch582m\my_ch582m\obj/../Code/my_interface.c:540
            I2C_DBG("RB_I2C_BERR\n");
20000b38:	e0001097          	auipc	ra,0xe0001
20000b3c:	4f6080e7          	jalr	1270(ra) # 202e <puts>
c:\Users\Administrator\Documents\MyCode\0331\ch582m\my_ch582m\obj/../Code/my_interface.c:543
        if (event & RB_I2C_ARLO) {
20000b40:	20047793          	andi	a5,s0,512
20000b44:	e8078de3          	beqz	a5,200009de <I2C_IRQHandler+0x602>
c:\Users\Administrator\Documents\MyCode\0331\ch582m\my_ch582m\obj/../Code/my_interface.c:544
            I2C_ClearFlag(RB_I2C_ARLO);
20000b48:	20000513          	li	a0,512
20000b4c:	e0001097          	auipc	ra,0xe0001
20000b50:	9aa080e7          	jalr	-1622(ra) # 14f6 <I2C_ClearFlag>
c:\Users\Administrator\Documents\MyCode\0331\ch582m\my_ch582m\obj/../Code/my_interface.c:546
            i2c_error = I2C_ARB_LOST;
20000b54:	4791                	li	a5,4
c:\Users\Administrator\Documents\MyCode\0331\ch582m\my_ch582m\obj/../Code/my_interface.c:547
            I2C_DBG("RB_I2C_ARLO\n");
20000b56:	e0003517          	auipc	a0,0xe0003
20000b5a:	dce50513          	addi	a0,a0,-562 # 3924 <_read+0x2b6>
c:\Users\Administrator\Documents\MyCode\0331\ch582m\my_ch582m\obj/../Code/my_interface.c:546
            i2c_error = I2C_ARB_LOST;
20000b5e:	80f18823          	sb	a5,-2032(gp) # 200010f0 <_edata>
c:\Users\Administrator\Documents\MyCode\0331\ch582m\my_ch582m\obj/../Code/my_interface.c:547
            I2C_DBG("RB_I2C_ARLO\n");
20000b62:	e0001097          	auipc	ra,0xe0001
20000b66:	4cc080e7          	jalr	1228(ra) # 202e <puts>
20000b6a:	bd95                	j	200009de <I2C_IRQHandler+0x602>
c:\Users\Administrator\Documents\MyCode\0331\ch582m\my_ch582m\obj/../Code/my_interface.c:490
                        I2C_SendData(0xff);
20000b6c:	0ff00513          	li	a0,255
20000b70:	e0001097          	auipc	ra,0xe0001
20000b74:	958080e7          	jalr	-1704(ra) # 14c8 <I2C_SendData>
c:\Users\Administrator\Documents\MyCode\0331\ch582m\my_ch582m\obj/../Code/my_interface.c:491
                        I2C_DBG("  no more data, send 0xff\n");
20000b78:	e0003517          	auipc	a0,0xe0003
20000b7c:	d5050513          	addi	a0,a0,-688 # 38c8 <_read+0x25a>
20000b80:	b6b1                	j	200006cc <I2C_IRQHandler+0x2f0>
c:\Users\Administrator\Documents\MyCode\0331\ch582m\my_ch582m\obj/../Code/my_interface.c:496
                I2C_DBG("Slave receiver:\n");
20000b82:	e0003517          	auipc	a0,0xe0003
20000b86:	d6250513          	addi	a0,a0,-670 # 38e4 <_read+0x276>
20000b8a:	e0001097          	auipc	ra,0xe0001
20000b8e:	4a4080e7          	jalr	1188(ra) # 202e <puts>
c:\Users\Administrator\Documents\MyCode\0331\ch582m\my_ch582m\obj/../Code/my_interface.c:498
                if (event & RB_I2C_RxNE) {
20000b92:	040b0c63          	beqz	s6,20000bea <I2C_IRQHandler+0x80e>
c:\Users\Administrator\Documents\MyCode\0331\ch582m\my_ch582m\obj/../Code/my_interface.c:500
                    if (i2c_slave_rxbuffer_index < I2C_BUFFER_LENGTH) {
20000b96:	8161c703          	lbu	a4,-2026(gp) # 200010f6 <i2c_slave_rxbuffer_index>
20000b9a:	47fd                	li	a5,31
20000b9c:	81618b13          	addi	s6,gp,-2026 # 200010f6 <i2c_slave_rxbuffer_index>
20000ba0:	0ae7e463          	bltu	a5,a4,20000c48 <I2C_IRQHandler+0x86c>
c:\Users\Administrator\Documents\MyCode\0331\ch582m\my_ch582m\obj/../Code/my_interface.c:502
                        i2c_slave_rxbuffer[i2c_slave_rxbuffer_index++] = I2C_ReceiveData();
20000ba4:	000b4483          	lbu	s1,0(s6)
20000ba8:	8c018a13          	addi	s4,gp,-1856 # 200011a0 <i2c_slave_rxbuffer>
20000bac:	0ff4f493          	andi	s1,s1,255
20000bb0:	00148793          	addi	a5,s1,1
20000bb4:	80f18b23          	sb	a5,-2026(gp) # 200010f6 <i2c_slave_rxbuffer_index>
20000bb8:	94d2                	add	s1,s1,s4
20000bba:	e0001097          	auipc	ra,0xe0001
20000bbe:	918080e7          	jalr	-1768(ra) # 14d2 <I2C_ReceiveData>
20000bc2:	00a48023          	sb	a0,0(s1)
c:\Users\Administrator\Documents\MyCode\0331\ch582m\my_ch582m\obj/../Code/my_interface.c:503
                        I2C_AcknowledgeConfig(ENABLE);
20000bc6:	4505                	li	a0,1
20000bc8:	e0001097          	auipc	ra,0xe0001
20000bcc:	8c0080e7          	jalr	-1856(ra) # 1488 <I2C_AcknowledgeConfig>
c:\Users\Administrator\Documents\MyCode\0331\ch582m\my_ch582m\obj/../Code/my_interface.c:504
                        I2C_DBG("  received (%#x)\n", 
20000bd0:	000b4783          	lbu	a5,0(s6)
20000bd4:	e0003517          	auipc	a0,0xe0003
20000bd8:	d2050513          	addi	a0,a0,-736 # 38f4 <_read+0x286>
20000bdc:	9a3e                	add	s4,s4,a5
20000bde:	fffa4583          	lbu	a1,-1(s4)
20000be2:	e0001097          	auipc	ra,0xe0001
20000be6:	308080e7          	jalr	776(ra) # 1eea <iprintf>
c:\Users\Administrator\Documents\MyCode\0331\ch582m\my_ch582m\obj/../Code/my_interface.c:512
                if (event & RB_I2C_STOPF) {
20000bea:	020a8f63          	beqz	s5,20000c28 <I2C_IRQHandler+0x84c>
c:\Users\Administrator\Documents\MyCode\0331\ch582m\my_ch582m\obj/../Code/my_interface.c:514
                    R16_I2C_CTRL1 |= RB_I2C_PE; //clear flag
20000bee:	40005737          	lui	a4,0x40005
20000bf2:	80075783          	lhu	a5,-2048(a4) # 40004800 <_eusrstack+0x1fffe000>
c:\Users\Administrator\Documents\MyCode\0331\ch582m\my_ch582m\obj/../Code/my_interface.c:516
                    I2C_DBG("  reveive stop\n");
20000bf6:	e0003517          	auipc	a0,0xe0003
20000bfa:	d1250513          	addi	a0,a0,-750 # 3908 <_read+0x29a>
c:\Users\Administrator\Documents\MyCode\0331\ch582m\my_ch582m\obj/../Code/my_interface.c:514
                    R16_I2C_CTRL1 |= RB_I2C_PE; //clear flag
20000bfe:	0017e793          	ori	a5,a5,1
20000c02:	80f71023          	sh	a5,-2048(a4)
c:\Users\Administrator\Documents\MyCode\0331\ch582m\my_ch582m\obj/../Code/my_interface.c:516
                    I2C_DBG("  reveive stop\n");
20000c06:	e0001097          	auipc	ra,0xe0001
20000c0a:	428080e7          	jalr	1064(ra) # 202e <puts>
c:\Users\Administrator\Documents\MyCode\0331\ch582m\my_ch582m\obj/../Code/my_interface.c:519
                    if (slave_cb && slave_cb->on_receive) {
20000c0e:	81c18793          	addi	a5,gp,-2020 # 200010fc <slave_cb>
20000c12:	439c                	lw	a5,0(a5)
20000c14:	cb81                	beqz	a5,20000c24 <I2C_IRQHandler+0x848>
c:\Users\Administrator\Documents\MyCode\0331\ch582m\my_ch582m\obj/../Code/my_interface.c:519 (discriminator 1)
20000c16:	43dc                	lw	a5,4(a5)
20000c18:	c791                	beqz	a5,20000c24 <I2C_IRQHandler+0x848>
c:\Users\Administrator\Documents\MyCode\0331\ch582m\my_ch582m\obj/../Code/my_interface.c:520
                        slave_cb->on_receive(i2c_slave_rxbuffer, i2c_slave_rxbuffer_index);
20000c1a:	8161c583          	lbu	a1,-2026(gp) # 200010f6 <i2c_slave_rxbuffer_index>
20000c1e:	8c018513          	addi	a0,gp,-1856 # 200011a0 <i2c_slave_rxbuffer>
20000c22:	9782                	jalr	a5
c:\Users\Administrator\Documents\MyCode\0331\ch582m\my_ch582m\obj/../Code/my_interface.c:523
                    i2c_slave_rxbuffer_index = 0;
20000c24:	80018b23          	sb	zero,-2026(gp) # 200010f6 <i2c_slave_rxbuffer_index>
c:\Users\Administrator\Documents\MyCode\0331\ch582m\my_ch582m\obj/../Code/my_interface.c:526
                if (event & RB_I2C_AF) {  
20000c28:	ee0984e3          	beqz	s3,20000b10 <I2C_IRQHandler+0x734>
c:\Users\Administrator\Documents\MyCode\0331\ch582m\my_ch582m\obj/../Code/my_interface.c:527
                    I2C_ClearFlag(I2C_FLAG_AF);
20000c2c:	10000537          	lui	a0,0x10000
20000c30:	40050513          	addi	a0,a0,1024 # 10000400 <_data_lma+0xfffc8e0>
20000c34:	e0001097          	auipc	ra,0xe0001
20000c38:	8c2080e7          	jalr	-1854(ra) # 14f6 <I2C_ClearFlag>
c:\Users\Administrator\Documents\MyCode\0331\ch582m\my_ch582m\obj/../Code/my_interface.c:530
                    I2C_AcknowledgeConfig(ENABLE);
20000c3c:	4505                	li	a0,1
20000c3e:	e0001097          	auipc	ra,0xe0001
20000c42:	84a080e7          	jalr	-1974(ra) # 1488 <I2C_AcknowledgeConfig>
20000c46:	b5e9                	j	20000b10 <I2C_IRQHandler+0x734>
c:\Users\Administrator\Documents\MyCode\0331\ch582m\my_ch582m\obj/../Code/my_interface.c:508
                        I2C_AcknowledgeConfig(DISABLE);
20000c48:	4501                	li	a0,0
20000c4a:	e0001097          	auipc	ra,0xe0001
20000c4e:	83e080e7          	jalr	-1986(ra) # 1488 <I2C_AcknowledgeConfig>
20000c52:	bf61                	j	20000bea <I2C_IRQHandler+0x80e>

20000c54 <FLASH_ROM_BEG>:
FLASH_ROM_BEG():
20000c54:	80040323          	sb	zero,-2042(s0)
20000c58:	4715                	li	a4,5
20000c5a:	80e40323          	sb	a4,-2042(s0)
20000c5e:	0001                	nop
20000c60:	80a40223          	sb	a0,-2044(s0)
20000c64:	8082                	ret

20000c66 <FLASH_ROM_END>:
FLASH_ROM_END():
20000c66:	80640783          	lb	a5,-2042(s0)
20000c6a:	fe07cee3          	bltz	a5,20000c66 <FLASH_ROM_END>
20000c6e:	80040323          	sb	zero,-2042(s0)
20000c72:	8082                	ret

20000c74 <FLASH_ROM_IN>:
FLASH_ROM_IN():
20000c74:	80640783          	lb	a5,-2042(s0)
20000c78:	fe07cee3          	bltz	a5,20000c74 <FLASH_ROM_IN>
20000c7c:	80444503          	lbu	a0,-2044(s0)
20000c80:	8082                	ret

20000c82 <FLASH_ROM_OUT>:
FLASH_ROM_OUT():
20000c82:	80640783          	lb	a5,-2042(s0)
20000c86:	fe07cee3          	bltz	a5,20000c82 <FLASH_ROM_OUT>
20000c8a:	80a40223          	sb	a0,-2044(s0)
20000c8e:	8082                	ret

20000c90 <FLASH_ROM_ADDR>:
FLASH_ROM_ADDR():
20000c90:	1141                	addi	sp,sp,-16
20000c92:	c426                	sw	s1,8(sp)
20000c94:	c24a                	sw	s2,4(sp)
20000c96:	c04e                	sw	s3,0(sp)
20000c98:	c606                	sw	ra,12(sp)
20000c9a:	0bf57713          	andi	a4,a0,191
20000c9e:	47ad                	li	a5,11
20000ca0:	89aa                	mv	s3,a0
20000ca2:	892e                	mv	s2,a1
20000ca4:	4495                	li	s1,5
20000ca6:	00f70663          	beq	a4,a5,20000cb2 <FLASH_ROM_ADDR+0x22>
20000caa:	4519                	li	a0,6
20000cac:	3765                	jal	20000c54 <FLASH_ROM_BEG>
20000cae:	3f65                	jal	20000c66 <FLASH_ROM_END>
20000cb0:	448d                	li	s1,3
20000cb2:	854e                	mv	a0,s3
20000cb4:	3745                	jal	20000c54 <FLASH_ROM_BEG>
20000cb6:	59fd                	li	s3,-1
20000cb8:	14fd                	addi	s1,s1,-1
20000cba:	01349863          	bne	s1,s3,20000cca <FLASH_ROM_ADDR+0x3a>
20000cbe:	40b2                	lw	ra,12(sp)
20000cc0:	44a2                	lw	s1,8(sp)
20000cc2:	4912                	lw	s2,4(sp)
20000cc4:	4982                	lw	s3,0(sp)
20000cc6:	0141                	addi	sp,sp,16
20000cc8:	8082                	ret
20000cca:	01095513          	srli	a0,s2,0x10
20000cce:	0ff57513          	andi	a0,a0,255
20000cd2:	3f45                	jal	20000c82 <FLASH_ROM_OUT>
20000cd4:	0922                	slli	s2,s2,0x8
20000cd6:	b7cd                	j	20000cb8 <FLASH_ROM_ADDR+0x28>

20000cd8 <FLASH_ROM_WAIT>:
FLASH_ROM_WAIT():
20000cd8:	1101                	addi	sp,sp,-32
20000cda:	cc26                	sw	s1,24(sp)
20000cdc:	ce06                	sw	ra,28(sp)
20000cde:	000804b7          	lui	s1,0x80
20000ce2:	3751                	jal	20000c66 <FLASH_ROM_END>
20000ce4:	4515                	li	a0,5
20000ce6:	37bd                	jal	20000c54 <FLASH_ROM_BEG>
20000ce8:	3771                	jal	20000c74 <FLASH_ROM_IN>
20000cea:	3769                	jal	20000c74 <FLASH_ROM_IN>
20000cec:	c62a                	sw	a0,12(sp)
20000cee:	3fa5                	jal	20000c66 <FLASH_ROM_END>
20000cf0:	4532                	lw	a0,12(sp)
20000cf2:	00157793          	andi	a5,a0,1
20000cf6:	eb89                	bnez	a5,20000d08 <FLASH_ROM_WAIT+0x30>
20000cf8:	00156513          	ori	a0,a0,1
20000cfc:	0ff57513          	andi	a0,a0,255
20000d00:	40f2                	lw	ra,28(sp)
20000d02:	44e2                	lw	s1,24(sp)
20000d04:	6105                	addi	sp,sp,32
20000d06:	8082                	ret
20000d08:	14fd                	addi	s1,s1,-1
20000d0a:	fce9                	bnez	s1,20000ce4 <FLASH_ROM_WAIT+0xc>
20000d0c:	4501                	li	a0,0
20000d0e:	bfcd                	j	20000d00 <FLASH_ROM_WAIT+0x28>

20000d10 <FLASH_EEPROM_CMD>:
FLASH_EEPROM_CMD():
20000d10:	7139                	addi	sp,sp,-64
20000d12:	dc26                	sw	s1,56(sp)
20000d14:	da4a                	sw	s2,52(sp)
20000d16:	d84e                	sw	s3,48(sp)
20000d18:	d652                	sw	s4,44(sp)
20000d1a:	d456                	sw	s5,40(sp)
20000d1c:	d25a                	sw	s6,36(sp)
20000d1e:	d05e                	sw	s7,32(sp)
20000d20:	de06                	sw	ra,60(sp)
20000d22:	ce62                	sw	s8,28(sp)
20000d24:	cc66                	sw	s9,24(sp)
20000d26:	e000e7b7          	lui	a5,0xe000e
20000d2a:	577d                	li	a4,-1
20000d2c:	0007aa83          	lw	s5,0(a5) # e000e000 <_eusrstack+0xc0007800>
20000d30:	c622                	sw	s0,12(sp)
20000d32:	0047aa03          	lw	s4,4(a5)
20000d36:	18e7a023          	sw	a4,384(a5)
20000d3a:	18e7a223          	sw	a4,388(a5)
20000d3e:	400017b7          	lui	a5,0x40001
20000d42:	05700713          	li	a4,87
20000d46:	04e78023          	sb	a4,64(a5) # 40001040 <_eusrstack+0x1fffa840>
20000d4a:	fa800713          	li	a4,-88
20000d4e:	04e78023          	sb	a4,64(a5)
20000d52:	0447c783          	lbu	a5,68(a5)
20000d56:	ff750b93          	addi	s7,a0,-9
20000d5a:	84b6                	mv	s1,a3
20000d5c:	07e2                	slli	a5,a5,0x18
20000d5e:	0ffbfb93          	andi	s7,s7,255
20000d62:	4685                	li	a3,1
20000d64:	89aa                	mv	s3,a0
20000d66:	8b2e                	mv	s6,a1
20000d68:	8932                	mv	s2,a2
20000d6a:	40002437          	lui	s0,0x40002
20000d6e:	87e1                	srai	a5,a5,0x18
20000d70:	5701                	li	a4,-32
20000d72:	0176fa63          	bgeu	a3,s7,20000d86 <FLASH_EEPROM_CMD+0x76>
20000d76:	00d50863          	beq	a0,a3,20000d86 <FLASH_EEPROM_CMD+0x76>
20000d7a:	4689                	li	a3,2
20000d7c:	02000713          	li	a4,32
20000d80:	00d51363          	bne	a0,a3,20000d86 <FLASH_EEPROM_CMD+0x76>
20000d84:	5701                	li	a4,-32
20000d86:	8fd9                	or	a5,a5,a4
20000d88:	0ff7f793          	andi	a5,a5,255
20000d8c:	40001cb7          	lui	s9,0x40001
20000d90:	04fc8223          	sb	a5,68(s9) # 40001044 <_eusrstack+0x1fffa844>
20000d94:	4711                	li	a4,4
20000d96:	80e40323          	sb	a4,-2042(s0) # 40001806 <_eusrstack+0x1fffb006>
20000d9a:	0ff00513          	li	a0,255
20000d9e:	3d5d                	jal	20000c54 <FLASH_ROM_BEG>
20000da0:	4c09                	li	s8,2
20000da2:	35d1                	jal	20000c66 <FLASH_ROM_END>
20000da4:	117c6d63          	bltu	s8,s7,20000ebe <FLASH_EEPROM_CMD+0x1ae>
20000da8:	000705b7          	lui	a1,0x70
20000dac:	95da                	add	a1,a1,s6
20000dae:	00078737          	lui	a4,0x78
20000db2:	5579                	li	a0,-2
20000db4:	04e5f263          	bgeu	a1,a4,20000df8 <FLASH_EEPROM_CMD+0xe8>
20000db8:	009587b3          	add	a5,a1,s1
20000dbc:	02f76e63          	bltu	a4,a5,20000df8 <FLASH_EEPROM_CMD+0xe8>
20000dc0:	00080b37          	lui	s6,0x80
20000dc4:	47a9                	li	a5,10
20000dc6:	0165eb33          	or	s6,a1,s6
20000dca:	06f99963          	bne	s3,a5,20000e3c <FLASH_EEPROM_CMD+0x12c>
20000dce:	e489                	bnez	s1,20000dd8 <FLASH_EEPROM_CMD+0xc8>
20000dd0:	4481                	li	s1,0
20000dd2:	3d51                	jal	20000c66 <FLASH_ROM_END>
20000dd4:	8526                	mv	a0,s1
20000dd6:	a00d                	j	20000df8 <FLASH_EEPROM_CMD+0xe8>
20000dd8:	85da                	mv	a1,s6
20000dda:	4509                	li	a0,2
20000ddc:	3d55                	jal	20000c90 <FLASH_ROM_ADDR>
20000dde:	0905                	addi	s2,s2,1
20000de0:	fff94503          	lbu	a0,-1(s2)
20000de4:	14fd                	addi	s1,s1,-1
20000de6:	0b05                	addi	s6,s6,1
20000de8:	3d69                	jal	20000c82 <FLASH_ROM_OUT>
20000dea:	c481                	beqz	s1,20000df2 <FLASH_EEPROM_CMD+0xe2>
20000dec:	0ffb7793          	andi	a5,s6,255
20000df0:	f7fd                	bnez	a5,20000dde <FLASH_EEPROM_CMD+0xce>
20000df2:	35dd                	jal	20000cd8 <FLASH_ROM_WAIT>
20000df4:	fd69                	bnez	a0,20000dce <FLASH_EEPROM_CMD+0xbe>
20000df6:	557d                	li	a0,-1
20000df8:	400017b7          	lui	a5,0x40001
20000dfc:	05700713          	li	a4,87
20000e00:	04e78023          	sb	a4,64(a5) # 40001040 <_eusrstack+0x1fffa840>
20000e04:	fa800713          	li	a4,-88
20000e08:	04e78023          	sb	a4,64(a5)
20000e0c:	0447c703          	lbu	a4,68(a5)
20000e10:	8b41                	andi	a4,a4,16
20000e12:	04e78223          	sb	a4,68(a5)
20000e16:	50f2                	lw	ra,60(sp)
20000e18:	e000e7b7          	lui	a5,0xe000e
20000e1c:	1157a023          	sw	s5,256(a5) # e000e100 <_eusrstack+0xc0007900>
20000e20:	1147a223          	sw	s4,260(a5)
20000e24:	54e2                	lw	s1,56(sp)
20000e26:	4432                	lw	s0,12(sp)
20000e28:	5952                	lw	s2,52(sp)
20000e2a:	59c2                	lw	s3,48(sp)
20000e2c:	5a32                	lw	s4,44(sp)
20000e2e:	5aa2                	lw	s5,40(sp)
20000e30:	5b12                	lw	s6,36(sp)
20000e32:	5b82                	lw	s7,32(sp)
20000e34:	4c72                	lw	s8,28(sp)
20000e36:	4ce2                	lw	s9,24(sp)
20000e38:	6121                	addi	sp,sp,64
20000e3a:	8082                	ret
20000e3c:	47a5                	li	a5,9
20000e3e:	06f99563          	bne	s3,a5,20000ea8 <FLASH_EEPROM_CMD+0x198>
20000e42:	6985                	lui	s3,0x1
20000e44:	0ff00913          	li	s2,255
20000e48:	009906b3          	add	a3,s2,s1
20000e4c:	012b74b3          	and	s1,s6,s2
20000e50:	94b6                	add	s1,s1,a3
20000e52:	fff94913          	not	s2,s2
20000e56:	009974b3          	and	s1,s2,s1
20000e5a:	6b85                	lui	s7,0x1
20000e5c:	01697933          	and	s2,s2,s6
20000e60:	6b41                	lui	s6,0x10
20000e62:	fff98793          	addi	a5,s3,-1 # fff <__stack_size+0xdff>
20000e66:	0127f7b3          	and	a5,a5,s2
20000e6a:	e399                	bnez	a5,20000e70 <FLASH_EEPROM_CMD+0x160>
20000e6c:	0134fc63          	bgeu	s1,s3,20000e84 <FLASH_EEPROM_CMD+0x174>
20000e70:	0049d993          	srli	s3,s3,0x4
20000e74:	47c1                	li	a5,16
20000e76:	ff37e6e3          	bltu	a5,s3,20000e62 <FLASH_EEPROM_CMD+0x152>
20000e7a:	bf99                	j	20000dd0 <FLASH_EEPROM_CMD+0xc0>
20000e7c:	6905                	lui	s2,0x1
20000e7e:	69c1                	lui	s3,0x10
20000e80:	197d                	addi	s2,s2,-1
20000e82:	b7d9                	j	20000e48 <FLASH_EEPROM_CMD+0x138>
20000e84:	0d800513          	li	a0,216
20000e88:	01698863          	beq	s3,s6,20000e98 <FLASH_EEPROM_CMD+0x188>
20000e8c:	02000513          	li	a0,32
20000e90:	01798463          	beq	s3,s7,20000e98 <FLASH_EEPROM_CMD+0x188>
20000e94:	08100513          	li	a0,129
20000e98:	85ca                	mv	a1,s2
20000e9a:	3bdd                	jal	20000c90 <FLASH_ROM_ADDR>
20000e9c:	3d35                	jal	20000cd8 <FLASH_ROM_WAIT>
20000e9e:	dd21                	beqz	a0,20000df6 <FLASH_EEPROM_CMD+0xe6>
20000ea0:	994e                	add	s2,s2,s3
20000ea2:	413484b3          	sub	s1,s1,s3
20000ea6:	b7d9                	j	20000e6c <FLASH_EEPROM_CMD+0x15c>
20000ea8:	85da                	mv	a1,s6
20000eaa:	452d                	li	a0,11
20000eac:	33d5                	jal	20000c90 <FLASH_ROM_ADDR>
20000eae:	94ca                	add	s1,s1,s2
20000eb0:	f29900e3          	beq	s2,s1,20000dd0 <FLASH_EEPROM_CMD+0xc0>
20000eb4:	0905                	addi	s2,s2,1
20000eb6:	3b7d                	jal	20000c74 <FLASH_ROM_IN>
20000eb8:	fea90fa3          	sb	a0,-1(s2) # fff <__stack_size+0xdff>
20000ebc:	bfd5                	j	20000eb0 <FLASH_EEPROM_CMD+0x1a0>
20000ebe:	fff98793          	addi	a5,s3,-1 # ffff <_data_lma+0xc4df>
20000ec2:	0ff7f793          	andi	a5,a5,255
20000ec6:	0cfc6163          	bltu	s8,a5,20000f88 <.loop402+0x7a>
20000eca:	041cc783          	lbu	a5,65(s9)
20000ece:	08300713          	li	a4,131
20000ed2:	04f71f63          	bne	a4,a5,20000f30 <.loop402+0x22>
20000ed6:	00080737          	lui	a4,0x80
20000eda:	04eb6b63          	bltu	s6,a4,20000f30 <.loop402+0x22>
20000ede:	009b07b3          	add	a5,s6,s1
20000ee2:	001006b7          	lui	a3,0x100
20000ee6:	04d7f563          	bgeu	a5,a3,20000f30 <.loop402+0x22>
20000eea:	00eb4b33          	xor	s6,s6,a4
20000eee:	4789                	li	a5,2
20000ef0:	06f99363          	bne	s3,a5,20000f56 <.loop402+0x48>
20000ef4:	8089                	srli	s1,s1,0x2
20000ef6:	49d5                	li	s3,21
20000ef8:	ec048ce3          	beqz	s1,20000dd0 <FLASH_EEPROM_CMD+0xc0>
20000efc:	85da                	mv	a1,s6
20000efe:	4509                	li	a0,2
20000f00:	3b41                	jal	20000c90 <FLASH_ROM_ADDR>
20000f02:	0911                	addi	s2,s2,4
20000f04:	ffc92703          	lw	a4,-4(s2)
20000f08:	4791                	li	a5,4
20000f0a:	80e42023          	sw	a4,-2048(s0)

20000f0e <.loop402>:
20000f0e:	80640703          	lb	a4,-2042(s0)
20000f12:	fe074ee3          	bltz	a4,20000f0e <.loop402>
20000f16:	81340323          	sb	s3,-2042(s0)
20000f1a:	17fd                	addi	a5,a5,-1
20000f1c:	fbed                	bnez	a5,20000f0e <.loop402>
20000f1e:	14fd                	addi	s1,s1,-1
20000f20:	0b11                	addi	s6,s6,4
20000f22:	c481                	beqz	s1,20000f2a <.loop402+0x1c>
20000f24:	0ffb7793          	andi	a5,s6,255
20000f28:	ffe9                	bnez	a5,20000f02 <FLASH_EEPROM_CMD+0x1f2>
20000f2a:	337d                	jal	20000cd8 <FLASH_ROM_WAIT>
20000f2c:	f571                	bnez	a0,20000ef8 <FLASH_EEPROM_CMD+0x1e8>
20000f2e:	b5e1                	j	20000df6 <FLASH_EEPROM_CMD+0xe6>
20000f30:	400017b7          	lui	a5,0x40001
20000f34:	0457c703          	lbu	a4,69(a5) # 40001045 <_eusrstack+0x1fffa845>
20000f38:	000807b7          	lui	a5,0x80
20000f3c:	02077713          	andi	a4,a4,32
20000f40:	e319                	bnez	a4,20000f46 <.loop402+0x38>
20000f42:	000787b7          	lui	a5,0x78
20000f46:	5579                	li	a0,-2
20000f48:	eafb78e3          	bgeu	s6,a5,20000df8 <FLASH_EEPROM_CMD+0xe8>
20000f4c:	009b0733          	add	a4,s6,s1
20000f50:	f8e7ffe3          	bgeu	a5,a4,20000eee <FLASH_EEPROM_CMD+0x1de>
20000f54:	b555                	j	20000df8 <FLASH_EEPROM_CMD+0xe8>
20000f56:	4785                	li	a5,1
20000f58:	f2f982e3          	beq	s3,a5,20000e7c <FLASH_EEPROM_CMD+0x16c>
20000f5c:	85da                	mv	a1,s6
20000f5e:	452d                	li	a0,11
20000f60:	3b05                	jal	20000c90 <FLASH_ROM_ADDR>
20000f62:	fff48993          	addi	s3,s1,-1 # 7ffff <_data_lma+0x7c4df>
20000f66:	e60485e3          	beqz	s1,20000dd0 <FLASH_EEPROM_CMD+0xc0>
20000f6a:	3329                	jal	20000c74 <FLASH_ROM_IN>
20000f6c:	0039f793          	andi	a5,s3,3
20000f70:	eb91                	bnez	a5,20000f84 <.loop402+0x76>
20000f72:	80042683          	lw	a3,-2048(s0)
20000f76:	00092703          	lw	a4,0(s2)
20000f7a:	00490793          	addi	a5,s2,4
20000f7e:	e4e69ae3          	bne	a3,a4,20000dd2 <FLASH_EEPROM_CMD+0xc2>
20000f82:	893e                	mv	s2,a5
20000f84:	84ce                	mv	s1,s3
20000f86:	bff1                	j	20000f62 <.loop402+0x54>
20000f88:	47b5                	li	a5,13
20000f8a:	00f99663          	bne	s3,a5,20000f96 <.loop402+0x88>
20000f8e:	0b900513          	li	a0,185
20000f92:	31c9                	jal	20000c54 <FLASH_ROM_BEG>
20000f94:	bd35                	j	20000dd0 <FLASH_EEPROM_CMD+0xc0>
20000f96:	47b1                	li	a5,12
20000f98:	0ab00513          	li	a0,171
20000f9c:	fef98be3          	beq	s3,a5,20000f92 <.loop402+0x84>
20000fa0:	4799                	li	a5,6
20000fa2:	04f99163          	bne	s3,a5,20000fe4 <.loop402+0xd6>
20000fa6:	000805b7          	lui	a1,0x80
20000faa:	00bb65b3          	or	a1,s6,a1
20000fae:	452d                	li	a0,11
20000fb0:	31c5                	jal	20000c90 <FLASH_ROM_ADDR>
20000fb2:	4481                	li	s1,0
20000fb4:	4b8d                	li	s7,3
20000fb6:	49a1                	li	s3,8
20000fb8:	3975                	jal	20000c74 <FLASH_ROM_IN>
20000fba:	01749663          	bne	s1,s7,20000fc6 <.loop402+0xb8>
20000fbe:	80042783          	lw	a5,-2048(s0)
20000fc2:	00f92023          	sw	a5,0(s2)
20000fc6:	0485                	addi	s1,s1,1
20000fc8:	ff3498e3          	bne	s1,s3,20000fb8 <.loop402+0xaa>
20000fcc:	80042783          	lw	a5,-2048(s0)
20000fd0:	012b1713          	slli	a4,s6,0x12
20000fd4:	00075563          	bgez	a4,20000fde <.loop402+0xd0>
20000fd8:	00f91223          	sh	a5,4(s2)
20000fdc:	bbd5                	j	20000dd0 <FLASH_EEPROM_CMD+0xc0>
20000fde:	00f92223          	sw	a5,4(s2)
20000fe2:	b3fd                	j	20000dd0 <FLASH_EEPROM_CMD+0xc0>
20000fe4:	479d                	li	a5,7
20000fe6:	02f99963          	bne	s3,a5,20001018 <.loop402+0x10a>
20000fea:	4581                	li	a1,0
20000fec:	04b00513          	li	a0,75
20000ff0:	3145                	jal	20000c90 <FLASH_ROM_ADDR>
20000ff2:	44bd                	li	s1,15
20000ff4:	00092023          	sw	zero,0(s2)
20000ff8:	00092223          	sw	zero,4(s2)
20000ffc:	59fd                	li	s3,-1
20000ffe:	399d                	jal	20000c74 <FLASH_ROM_IN>
20001000:	0074f793          	andi	a5,s1,7
20001004:	97ca                	add	a5,a5,s2
20001006:	0007c703          	lbu	a4,0(a5) # 78000 <_data_lma+0x744e0>
2000100a:	14fd                	addi	s1,s1,-1
2000100c:	8d39                	xor	a0,a0,a4
2000100e:	00a78023          	sb	a0,0(a5)
20001012:	ff3496e3          	bne	s1,s3,20000ffe <.loop402+0xf0>
20001016:	bb6d                	j	20000dd0 <FLASH_EEPROM_CMD+0xc0>
20001018:	47a1                	li	a5,8
2000101a:	04f99263          	bne	s3,a5,2000105e <.loop402+0x150>
2000101e:	396d                	jal	20000cd8 <FLASH_ROM_WAIT>
20001020:	4481                	li	s1,0
20001022:	000b0d63          	beqz	s6,2000103c <.loop402+0x12e>
20001026:	478d                	li	a5,3
20001028:	03c00493          	li	s1,60
2000102c:	00fb0863          	beq	s6,a5,2000103c <.loop402+0x12e>
20001030:	05000493          	li	s1,80
20001034:	018b0463          	beq	s6,s8,2000103c <.loop402+0x12e>
20001038:	04400493          	li	s1,68
2000103c:	07c57513          	andi	a0,a0,124
20001040:	d89508e3          	beq	a0,s1,20000dd0 <FLASH_EEPROM_CMD+0xc0>
20001044:	4519                	li	a0,6
20001046:	3139                	jal	20000c54 <FLASH_ROM_BEG>
20001048:	3939                	jal	20000c66 <FLASH_ROM_END>
2000104a:	4505                	li	a0,1
2000104c:	3121                	jal	20000c54 <FLASH_ROM_BEG>
2000104e:	8526                	mv	a0,s1
20001050:	390d                	jal	20000c82 <FLASH_ROM_OUT>
20001052:	4509                	li	a0,2
20001054:	313d                	jal	20000c82 <FLASH_ROM_OUT>
20001056:	3149                	jal	20000cd8 <FLASH_ROM_WAIT>
20001058:	d6051ce3          	bnez	a0,20000dd0 <FLASH_EEPROM_CMD+0xc0>
2000105c:	bb69                	j	20000df6 <FLASH_EEPROM_CMD+0xe6>
2000105e:	4791                	li	a5,4
20001060:	00f99963          	bne	s3,a5,20001072 <.loop402+0x164>
20001064:	06600513          	li	a0,102
20001068:	36f5                	jal	20000c54 <FLASH_ROM_BEG>
2000106a:	3ef5                	jal	20000c66 <FLASH_ROM_END>
2000106c:	09900513          	li	a0,153
20001070:	b70d                	j	20000f92 <.loop402+0x84>
20001072:	d4098fe3          	beqz	s3,20000dd0 <FLASH_EEPROM_CMD+0xc0>
20001076:	54f1                	li	s1,-4
20001078:	bba9                	j	20000dd2 <FLASH_EEPROM_CMD+0xc2>
	...

Disassembly of section .text:

00001080 <handle_reset>:
handle_reset():
c:/Users/Administrator/Documents/MyCode/0331/ch582m/SRC/Startup/startup_CH592.S:127
	.weak	handle_reset
	.align	1
handle_reset:
.option push 
.option	norelax 
	la gp, __global_pointer$
    1080:	20001197          	auipc	gp,0x20001
    1084:	86018193          	addi	gp,gp,-1952 # 200018e0 <__global_pointer$>
c:/Users/Administrator/Documents/MyCode/0331/ch582m/SRC/Startup/startup_CH592.S:130
.option	pop 
1:
	la sp, _eusrstack 
    1088:	20005117          	auipc	sp,0x20005
    108c:	77810113          	addi	sp,sp,1912 # 20006800 <_eusrstack>
c:/Users/Administrator/Documents/MyCode/0331/ch582m/SRC/Startup/startup_CH592.S:134

/* Load highcode code  section from flash to RAM */
2:
    la a0, _highcode_lma
    1090:	00400513          	li	a0,4
c:/Users/Administrator/Documents/MyCode/0331/ch582m/SRC/Startup/startup_CH592.S:135
    la a1, _highcode_vma_start
    1094:	1ffff597          	auipc	a1,0x1ffff
    1098:	f6c58593          	addi	a1,a1,-148 # 20000000 <_highcode_vma_start>
c:/Users/Administrator/Documents/MyCode/0331/ch582m/SRC/Startup/startup_CH592.S:136
    la a2, _highcode_vma_end
    109c:	20000617          	auipc	a2,0x20000
    10a0:	fe060613          	addi	a2,a2,-32 # 2000107c <_highcode_vma_end>
c:/Users/Administrator/Documents/MyCode/0331/ch582m/SRC/Startup/startup_CH592.S:137
    bgeu a1, a2, 2f
    10a4:	00c5fa63          	bgeu	a1,a2,10b8 <handle_reset+0x38>
c:/Users/Administrator/Documents/MyCode/0331/ch582m/SRC/Startup/startup_CH592.S:139
1:
    lw t0, (a0)
    10a8:	00052283          	lw	t0,0(a0)
c:/Users/Administrator/Documents/MyCode/0331/ch582m/SRC/Startup/startup_CH592.S:140
    sw t0, (a1)
    10ac:	0055a023          	sw	t0,0(a1)
c:/Users/Administrator/Documents/MyCode/0331/ch582m/SRC/Startup/startup_CH592.S:141
    addi a0, a0, 4
    10b0:	0511                	addi	a0,a0,4
c:/Users/Administrator/Documents/MyCode/0331/ch582m/SRC/Startup/startup_CH592.S:142
    addi a1, a1, 4
    10b2:	0591                	addi	a1,a1,4
c:/Users/Administrator/Documents/MyCode/0331/ch582m/SRC/Startup/startup_CH592.S:143
    bltu a1, a2, 1b
    10b4:	fec5eae3          	bltu	a1,a2,10a8 <handle_reset+0x28>
c:/Users/Administrator/Documents/MyCode/0331/ch582m/SRC/Startup/startup_CH592.S:147

/* Load data section from flash to RAM */
2:
	la a0, _data_lma
    10b8:	00003517          	auipc	a0,0x3
    10bc:	a6850513          	addi	a0,a0,-1432 # 3b20 <_data_lma>
c:/Users/Administrator/Documents/MyCode/0331/ch582m/SRC/Startup/startup_CH592.S:148
	la a1, _data_vma
    10c0:	20000597          	auipc	a1,0x20000
    10c4:	fbc58593          	addi	a1,a1,-68 # 2000107c <_highcode_vma_end>
c:/Users/Administrator/Documents/MyCode/0331/ch582m/SRC/Startup/startup_CH592.S:149
	la a2, _edata
    10c8:	81018613          	addi	a2,gp,-2032 # 200010f0 <_edata>
c:/Users/Administrator/Documents/MyCode/0331/ch582m/SRC/Startup/startup_CH592.S:150
	bgeu a1, a2, 2f
    10cc:	00c5fa63          	bgeu	a1,a2,10e0 <handle_reset+0x60>
c:/Users/Administrator/Documents/MyCode/0331/ch582m/SRC/Startup/startup_CH592.S:152
1:
	lw t0, (a0)
    10d0:	00052283          	lw	t0,0(a0)
c:/Users/Administrator/Documents/MyCode/0331/ch582m/SRC/Startup/startup_CH592.S:153
	sw t0, (a1)
    10d4:	0055a023          	sw	t0,0(a1)
c:/Users/Administrator/Documents/MyCode/0331/ch582m/SRC/Startup/startup_CH592.S:154
	addi a0, a0, 4
    10d8:	0511                	addi	a0,a0,4
c:/Users/Administrator/Documents/MyCode/0331/ch582m/SRC/Startup/startup_CH592.S:155
	addi a1, a1, 4
    10da:	0591                	addi	a1,a1,4
c:/Users/Administrator/Documents/MyCode/0331/ch582m/SRC/Startup/startup_CH592.S:156
	bltu a1, a2, 1b
    10dc:	fec5eae3          	bltu	a1,a2,10d0 <handle_reset+0x50>
c:/Users/Administrator/Documents/MyCode/0331/ch582m/SRC/Startup/startup_CH592.S:159
2:
	/* clear bss section */
	la a0, _sbss
    10e0:	81018513          	addi	a0,gp,-2032 # 200010f0 <_edata>
c:/Users/Administrator/Documents/MyCode/0331/ch582m/SRC/Startup/startup_CH592.S:160
	la a1, _ebss
    10e4:	d0418593          	addi	a1,gp,-764 # 200015e4 <_ebss>
c:/Users/Administrator/Documents/MyCode/0331/ch582m/SRC/Startup/startup_CH592.S:161
	bgeu a0, a1, 2f
    10e8:	00b57763          	bgeu	a0,a1,10f6 <handle_reset+0x76>
c:/Users/Administrator/Documents/MyCode/0331/ch582m/SRC/Startup/startup_CH592.S:163
1:
	sw zero, (a0)
    10ec:	00052023          	sw	zero,0(a0)
c:/Users/Administrator/Documents/MyCode/0331/ch582m/SRC/Startup/startup_CH592.S:164
	addi a0, a0, 4
    10f0:	0511                	addi	a0,a0,4
c:/Users/Administrator/Documents/MyCode/0331/ch582m/SRC/Startup/startup_CH592.S:165
	bltu a0, a1, 1b
    10f2:	feb56de3          	bltu	a0,a1,10ec <handle_reset+0x6c>
c:/Users/Administrator/Documents/MyCode/0331/ch582m/SRC/Startup/startup_CH592.S:168
2:
	/* 流水线控制位 & 动态预测控制位 */
	li t0, 0x1f
    10f6:	42fd                	li	t0,31
c:/Users/Administrator/Documents/MyCode/0331/ch582m/SRC/Startup/startup_CH592.S:169
	csrw 0xbc0, t0
    10f8:	bc029073          	csrw	0xbc0,t0
c:/Users/Administrator/Documents/MyCode/0331/ch582m/SRC/Startup/startup_CH592.S:171
	/* 打开嵌套中断、硬件压栈功能 */
	li t0, 0x3
    10fc:	428d                	li	t0,3
c:/Users/Administrator/Documents/MyCode/0331/ch582m/SRC/Startup/startup_CH592.S:172
	csrw 0x804, t0
    10fe:	80429073          	csrw	0x804,t0
c:/Users/Administrator/Documents/MyCode/0331/ch582m/SRC/Startup/startup_CH592.S:174
	
    li t0, 0x88
    1102:	08800293          	li	t0,136
c:/Users/Administrator/Documents/MyCode/0331/ch582m/SRC/Startup/startup_CH592.S:175
    csrw mstatus, t0
    1106:	30029073          	csrw	mstatus,t0
c:/Users/Administrator/Documents/MyCode/0331/ch582m/SRC/Startup/startup_CH592.S:176
	la t0, _vector_base
    110a:	1ffff297          	auipc	t0,0x1ffff
    110e:	ef628293          	addi	t0,t0,-266 # 20000000 <_highcode_vma_start>
c:/Users/Administrator/Documents/MyCode/0331/ch582m/SRC/Startup/startup_CH592.S:179

	/* 配置向量表模式为绝对地址模式 */
    ori t0, t0, 3
    1112:	0032e293          	ori	t0,t0,3
c:/Users/Administrator/Documents/MyCode/0331/ch582m/SRC/Startup/startup_CH592.S:180
	csrw mtvec, t0
    1116:	30529073          	csrw	mtvec,t0
c:/Users/Administrator/Documents/MyCode/0331/ch582m/SRC/Startup/startup_CH592.S:182

	la t0, main
    111a:	00000297          	auipc	t0,0x0
    111e:	1d628293          	addi	t0,t0,470 # 12f0 <main>
c:/Users/Administrator/Documents/MyCode/0331/ch582m/SRC/Startup/startup_CH592.S:183
	csrw mepc, t0
    1122:	34129073          	csrw	mepc,t0
c:/Users/Administrator/Documents/MyCode/0331/ch582m/SRC/Startup/startup_CH592.S:185
	
	mret
    1126:	30200073          	mret

0000112a <memset>:
memset():
    112a:	433d                	li	t1,15
    112c:	872a                	mv	a4,a0
    112e:	02c37363          	bgeu	t1,a2,1154 <memset+0x2a>
    1132:	00f77793          	andi	a5,a4,15
    1136:	efbd                	bnez	a5,11b4 <memset+0x8a>
    1138:	e5ad                	bnez	a1,11a2 <memset+0x78>
    113a:	ff067693          	andi	a3,a2,-16
    113e:	8a3d                	andi	a2,a2,15
    1140:	96ba                	add	a3,a3,a4
    1142:	c30c                	sw	a1,0(a4)
    1144:	c34c                	sw	a1,4(a4)
    1146:	c70c                	sw	a1,8(a4)
    1148:	c74c                	sw	a1,12(a4)
    114a:	0741                	addi	a4,a4,16
    114c:	fed76be3          	bltu	a4,a3,1142 <memset+0x18>
    1150:	e211                	bnez	a2,1154 <memset+0x2a>
    1152:	8082                	ret
    1154:	40c306b3          	sub	a3,t1,a2
    1158:	068a                	slli	a3,a3,0x2
    115a:	00000297          	auipc	t0,0x0
    115e:	9696                	add	a3,a3,t0
    1160:	00a68067          	jr	10(a3) # 10000a <_data_lma+0xfc4ea>
    1164:	00b70723          	sb	a1,14(a4) # 8000e <_data_lma+0x7c4ee>
    1168:	00b706a3          	sb	a1,13(a4)
    116c:	00b70623          	sb	a1,12(a4)
    1170:	00b705a3          	sb	a1,11(a4)
    1174:	00b70523          	sb	a1,10(a4)
    1178:	00b704a3          	sb	a1,9(a4)
    117c:	00b70423          	sb	a1,8(a4)
    1180:	00b703a3          	sb	a1,7(a4)
    1184:	00b70323          	sb	a1,6(a4)
    1188:	00b702a3          	sb	a1,5(a4)
    118c:	00b70223          	sb	a1,4(a4)
    1190:	00b701a3          	sb	a1,3(a4)
    1194:	00b70123          	sb	a1,2(a4)
    1198:	00b700a3          	sb	a1,1(a4)
    119c:	00b70023          	sb	a1,0(a4)
    11a0:	8082                	ret
    11a2:	0ff5f593          	andi	a1,a1,255
    11a6:	00859693          	slli	a3,a1,0x8
    11aa:	8dd5                	or	a1,a1,a3
    11ac:	01059693          	slli	a3,a1,0x10
    11b0:	8dd5                	or	a1,a1,a3
    11b2:	b761                	j	113a <memset+0x10>
    11b4:	00279693          	slli	a3,a5,0x2
    11b8:	00000297          	auipc	t0,0x0
    11bc:	9696                	add	a3,a3,t0
    11be:	8286                	mv	t0,ra
    11c0:	fa8680e7          	jalr	-88(a3)
    11c4:	8096                	mv	ra,t0
    11c6:	17c1                	addi	a5,a5,-16
    11c8:	8f1d                	sub	a4,a4,a5
    11ca:	963e                	add	a2,a2,a5
    11cc:	f8c374e3          	bgeu	t1,a2,1154 <memset+0x2a>
    11d0:	b7a5                	j	1138 <memset+0xe>

000011d2 <strcmp>:
strcmp():
    11d2:	00b56733          	or	a4,a0,a1
    11d6:	53fd                	li	t2,-1
    11d8:	8b0d                	andi	a4,a4,3
    11da:	e779                	bnez	a4,12a8 <strcmp+0xd6>
    11dc:	7f7f87b7          	lui	a5,0x7f7f8
    11e0:	f7f78793          	addi	a5,a5,-129 # 7f7f7f7f <_eusrstack+0x5f7f177f>
    11e4:	4110                	lw	a2,0(a0)
    11e6:	4194                	lw	a3,0(a1)
    11e8:	00f672b3          	and	t0,a2,a5
    11ec:	00f66333          	or	t1,a2,a5
    11f0:	92be                	add	t0,t0,a5
    11f2:	0062e2b3          	or	t0,t0,t1
    11f6:	0c729763          	bne	t0,t2,12c4 <strcmp+0xf2>
    11fa:	06d61863          	bne	a2,a3,126a <strcmp+0x98>
    11fe:	4150                	lw	a2,4(a0)
    1200:	41d4                	lw	a3,4(a1)
    1202:	00f672b3          	and	t0,a2,a5
    1206:	00f66333          	or	t1,a2,a5
    120a:	92be                	add	t0,t0,a5
    120c:	0062e2b3          	or	t0,t0,t1
    1210:	0a729863          	bne	t0,t2,12c0 <strcmp+0xee>
    1214:	04d61b63          	bne	a2,a3,126a <strcmp+0x98>
    1218:	4510                	lw	a2,8(a0)
    121a:	4594                	lw	a3,8(a1)
    121c:	00f672b3          	and	t0,a2,a5
    1220:	00f66333          	or	t1,a2,a5
    1224:	92be                	add	t0,t0,a5
    1226:	0062e2b3          	or	t0,t0,t1
    122a:	0a729163          	bne	t0,t2,12cc <strcmp+0xfa>
    122e:	02d61e63          	bne	a2,a3,126a <strcmp+0x98>
    1232:	4550                	lw	a2,12(a0)
    1234:	45d4                	lw	a3,12(a1)
    1236:	00f672b3          	and	t0,a2,a5
    123a:	00f66333          	or	t1,a2,a5
    123e:	92be                	add	t0,t0,a5
    1240:	0062e2b3          	or	t0,t0,t1
    1244:	08729a63          	bne	t0,t2,12d8 <strcmp+0x106>
    1248:	02d61163          	bne	a2,a3,126a <strcmp+0x98>
    124c:	4910                	lw	a2,16(a0)
    124e:	4994                	lw	a3,16(a1)
    1250:	00f672b3          	and	t0,a2,a5
    1254:	00f66333          	or	t1,a2,a5
    1258:	92be                	add	t0,t0,a5
    125a:	0062e2b3          	or	t0,t0,t1
    125e:	08729363          	bne	t0,t2,12e4 <strcmp+0x112>
    1262:	0551                	addi	a0,a0,20
    1264:	05d1                	addi	a1,a1,20
    1266:	f6d60fe3          	beq	a2,a3,11e4 <strcmp+0x12>
    126a:	01061713          	slli	a4,a2,0x10
    126e:	01069793          	slli	a5,a3,0x10
    1272:	00f71c63          	bne	a4,a5,128a <strcmp+0xb8>
    1276:	01065713          	srli	a4,a2,0x10
    127a:	0106d793          	srli	a5,a3,0x10
    127e:	40f70533          	sub	a0,a4,a5
    1282:	0ff57593          	andi	a1,a0,255
    1286:	e991                	bnez	a1,129a <strcmp+0xc8>
    1288:	8082                	ret
    128a:	8341                	srli	a4,a4,0x10
    128c:	83c1                	srli	a5,a5,0x10
    128e:	40f70533          	sub	a0,a4,a5
    1292:	0ff57593          	andi	a1,a0,255
    1296:	e191                	bnez	a1,129a <strcmp+0xc8>
    1298:	8082                	ret
    129a:	0ff77713          	andi	a4,a4,255
    129e:	0ff7f793          	andi	a5,a5,255
    12a2:	40f70533          	sub	a0,a4,a5
    12a6:	8082                	ret
    12a8:	00054603          	lbu	a2,0(a0)
    12ac:	0005c683          	lbu	a3,0(a1)
    12b0:	0505                	addi	a0,a0,1
    12b2:	0585                	addi	a1,a1,1
    12b4:	00d61363          	bne	a2,a3,12ba <strcmp+0xe8>
    12b8:	fa65                	bnez	a2,12a8 <strcmp+0xd6>
    12ba:	40d60533          	sub	a0,a2,a3
    12be:	8082                	ret
    12c0:	0511                	addi	a0,a0,4
    12c2:	0591                	addi	a1,a1,4
    12c4:	fed612e3          	bne	a2,a3,12a8 <strcmp+0xd6>
    12c8:	4501                	li	a0,0
    12ca:	8082                	ret
    12cc:	0521                	addi	a0,a0,8
    12ce:	05a1                	addi	a1,a1,8
    12d0:	fcd61ce3          	bne	a2,a3,12a8 <strcmp+0xd6>
    12d4:	4501                	li	a0,0
    12d6:	8082                	ret
    12d8:	0531                	addi	a0,a0,12
    12da:	05b1                	addi	a1,a1,12
    12dc:	fcd616e3          	bne	a2,a3,12a8 <strcmp+0xd6>
    12e0:	4501                	li	a0,0
    12e2:	8082                	ret
    12e4:	0541                	addi	a0,a0,16
    12e6:	05c1                	addi	a1,a1,16
    12e8:	fcd610e3          	bne	a2,a3,12a8 <strcmp+0xd6>
    12ec:	4501                	li	a0,0
    12ee:	8082                	ret

000012f0 <main>:
main():
c:\Users\Administrator\Documents\MyCode\0331\ch582m\my_ch582m\obj/../src/Main.c:15
 * microcontroller manufactured by Nanjing Qinheng Microelectronics.
 *******************************************************************************/

#include "code.h"

int main(){
    12f0:	1141                	addi	sp,sp,-16
    12f2:	c606                	sw	ra,12(sp)
c:\Users\Administrator\Documents\MyCode\0331\ch582m\my_ch582m\obj/../src/Main.c:17

    CODE_MAIN();
    12f4:	2ec1                	jal	16c4 <CODE_MAIN>
c:\Users\Administrator\Documents\MyCode\0331\ch582m\my_ch582m\obj/../src/Main.c:19 (discriminator 1)

    while(1);
    12f6:	a001                	j	12f6 <main+0x6>

000012f8 <GPIOA_ModeCfg>:
GPIOA_ModeCfg():
c:/Users/Administrator/Documents/MyCode/0331/ch582m/SRC/StdPeriphDriver/CH59x_gpio.c:27
 *
 * @return  none
 */
void GPIOA_ModeCfg(uint32_t pin, GPIOModeTypeDef mode)
{
    switch(mode)
    12f8:	4791                	li	a5,4
    12fa:	02b7ee63          	bltu	a5,a1,1336 <GPIOA_ModeCfg+0x3e>
    12fe:	00002717          	auipc	a4,0x2
    1302:	37e70713          	addi	a4,a4,894 # 367c <_read+0xe>
    1306:	058a                	slli	a1,a1,0x2
    1308:	95ba                	add	a1,a1,a4
    130a:	419c                	lw	a5,0(a1)
    130c:	97ba                	add	a5,a5,a4
    130e:	8782                	jr	a5
c:/Users/Administrator/Documents/MyCode/0331/ch582m/SRC/StdPeriphDriver/CH59x_gpio.c:30
    {
        case GPIO_ModeIN_Floating:
            R32_PA_PD_DRV &= ~pin;
    1310:	400017b7          	lui	a5,0x40001
    1314:	0b47a703          	lw	a4,180(a5) # 400010b4 <_eusrstack+0x1fffa8b4>
    1318:	fff54513          	not	a0,a0
    131c:	8f69                	and	a4,a4,a0
    131e:	0ae7aa23          	sw	a4,180(a5)
c:/Users/Administrator/Documents/MyCode/0331/ch582m/SRC/StdPeriphDriver/CH59x_gpio.c:31
            R32_PA_PU &= ~pin;
    1322:	0b07a703          	lw	a4,176(a5)
c:/Users/Administrator/Documents/MyCode/0331/ch582m/SRC/StdPeriphDriver/CH59x_gpio.c:43
            R32_PA_DIR &= ~pin;
            break;

        case GPIO_ModeIN_PD:
            R32_PA_PD_DRV |= pin;
            R32_PA_PU &= ~pin;
    1326:	8f69                	and	a4,a4,a0
    1328:	0ae7a823          	sw	a4,176(a5)
c:/Users/Administrator/Documents/MyCode/0331/ch582m/SRC/StdPeriphDriver/CH59x_gpio.c:44
            R32_PA_DIR &= ~pin;
    132c:	0a07a703          	lw	a4,160(a5)
    1330:	8d79                	and	a0,a0,a4
c:/Users/Administrator/Documents/MyCode/0331/ch582m/SRC/StdPeriphDriver/CH59x_gpio.c:54
            R32_PA_DIR |= pin;
            break;

        case GPIO_ModeOut_PP_20mA:
            R32_PA_PD_DRV |= pin;
            R32_PA_DIR |= pin;
    1332:	0aa7a023          	sw	a0,160(a5)
c:/Users/Administrator/Documents/MyCode/0331/ch582m/SRC/StdPeriphDriver/CH59x_gpio.c:60
            break;

        default:
            break;
    }
}
    1336:	8082                	ret
c:/Users/Administrator/Documents/MyCode/0331/ch582m/SRC/StdPeriphDriver/CH59x_gpio.c:36
            R32_PA_PD_DRV &= ~pin;
    1338:	400017b7          	lui	a5,0x40001
    133c:	0b47a683          	lw	a3,180(a5) # 400010b4 <_eusrstack+0x1fffa8b4>
    1340:	fff54713          	not	a4,a0
    1344:	8ef9                	and	a3,a3,a4
    1346:	0ad7aa23          	sw	a3,180(a5)
c:/Users/Administrator/Documents/MyCode/0331/ch582m/SRC/StdPeriphDriver/CH59x_gpio.c:37
            R32_PA_PU |= pin;
    134a:	0b07a683          	lw	a3,176(a5)
    134e:	8d55                	or	a0,a0,a3
    1350:	0aa7a823          	sw	a0,176(a5)
c:/Users/Administrator/Documents/MyCode/0331/ch582m/SRC/StdPeriphDriver/CH59x_gpio.c:38
            R32_PA_DIR &= ~pin;
    1354:	0a07a683          	lw	a3,160(a5)
    1358:	8f75                	and	a4,a4,a3
    135a:	0ae7a023          	sw	a4,160(a5)
c:/Users/Administrator/Documents/MyCode/0331/ch582m/SRC/StdPeriphDriver/CH59x_gpio.c:39
            break;
    135e:	8082                	ret
c:/Users/Administrator/Documents/MyCode/0331/ch582m/SRC/StdPeriphDriver/CH59x_gpio.c:42
            R32_PA_PD_DRV |= pin;
    1360:	400017b7          	lui	a5,0x40001
    1364:	0b47a703          	lw	a4,180(a5) # 400010b4 <_eusrstack+0x1fffa8b4>
    1368:	8f49                	or	a4,a4,a0
    136a:	0ae7aa23          	sw	a4,180(a5)
c:/Users/Administrator/Documents/MyCode/0331/ch582m/SRC/StdPeriphDriver/CH59x_gpio.c:43
            R32_PA_PU &= ~pin;
    136e:	0b07a703          	lw	a4,176(a5)
    1372:	fff54513          	not	a0,a0
    1376:	bf45                	j	1326 <GPIOA_ModeCfg+0x2e>
c:/Users/Administrator/Documents/MyCode/0331/ch582m/SRC/StdPeriphDriver/CH59x_gpio.c:48
            R32_PA_PD_DRV &= ~pin;
    1378:	400017b7          	lui	a5,0x40001
    137c:	0b47a683          	lw	a3,180(a5) # 400010b4 <_eusrstack+0x1fffa8b4>
    1380:	fff54713          	not	a4,a0
    1384:	8f75                	and	a4,a4,a3
c:/Users/Administrator/Documents/MyCode/0331/ch582m/SRC/StdPeriphDriver/CH59x_gpio.c:53
            R32_PA_PD_DRV |= pin;
    1386:	0ae7aa23          	sw	a4,180(a5)
c:/Users/Administrator/Documents/MyCode/0331/ch582m/SRC/StdPeriphDriver/CH59x_gpio.c:54
            R32_PA_DIR |= pin;
    138a:	0a07a703          	lw	a4,160(a5)
    138e:	8d59                	or	a0,a0,a4
    1390:	b74d                	j	1332 <GPIOA_ModeCfg+0x3a>
c:/Users/Administrator/Documents/MyCode/0331/ch582m/SRC/StdPeriphDriver/CH59x_gpio.c:53
            R32_PA_PD_DRV |= pin;
    1392:	400017b7          	lui	a5,0x40001
    1396:	0b47a703          	lw	a4,180(a5) # 400010b4 <_eusrstack+0x1fffa8b4>
    139a:	8f49                	or	a4,a4,a0
    139c:	b7ed                	j	1386 <GPIOA_ModeCfg+0x8e>

0000139e <GPIOB_ModeCfg>:
GPIOB_ModeCfg():
c:/Users/Administrator/Documents/MyCode/0331/ch582m/SRC/StdPeriphDriver/CH59x_gpio.c:74
 *
 * @return  none
 */
void GPIOB_ModeCfg(uint32_t pin, GPIOModeTypeDef mode)
{
    switch(mode)
    139e:	4791                	li	a5,4
    13a0:	02b7ee63          	bltu	a5,a1,13dc <GPIOB_ModeCfg+0x3e>
    13a4:	00002717          	auipc	a4,0x2
    13a8:	2ec70713          	addi	a4,a4,748 # 3690 <_read+0x22>
    13ac:	058a                	slli	a1,a1,0x2
    13ae:	95ba                	add	a1,a1,a4
    13b0:	419c                	lw	a5,0(a1)
    13b2:	97ba                	add	a5,a5,a4
    13b4:	8782                	jr	a5
c:/Users/Administrator/Documents/MyCode/0331/ch582m/SRC/StdPeriphDriver/CH59x_gpio.c:77
    {
        case GPIO_ModeIN_Floating:
            R32_PB_PD_DRV &= ~pin;
    13b6:	400017b7          	lui	a5,0x40001
    13ba:	0d47a703          	lw	a4,212(a5) # 400010d4 <_eusrstack+0x1fffa8d4>
    13be:	fff54513          	not	a0,a0
    13c2:	8f69                	and	a4,a4,a0
    13c4:	0ce7aa23          	sw	a4,212(a5)
c:/Users/Administrator/Documents/MyCode/0331/ch582m/SRC/StdPeriphDriver/CH59x_gpio.c:78
            R32_PB_PU &= ~pin;
    13c8:	0d07a703          	lw	a4,208(a5)
c:/Users/Administrator/Documents/MyCode/0331/ch582m/SRC/StdPeriphDriver/CH59x_gpio.c:90
            R32_PB_DIR &= ~pin;
            break;

        case GPIO_ModeIN_PD:
            R32_PB_PD_DRV |= pin;
            R32_PB_PU &= ~pin;
    13cc:	8f69                	and	a4,a4,a0
    13ce:	0ce7a823          	sw	a4,208(a5)
c:/Users/Administrator/Documents/MyCode/0331/ch582m/SRC/StdPeriphDriver/CH59x_gpio.c:91
            R32_PB_DIR &= ~pin;
    13d2:	0c07a703          	lw	a4,192(a5)
    13d6:	8d79                	and	a0,a0,a4
c:/Users/Administrator/Documents/MyCode/0331/ch582m/SRC/StdPeriphDriver/CH59x_gpio.c:101
            R32_PB_DIR |= pin;
            break;

        case GPIO_ModeOut_PP_20mA:
            R32_PB_PD_DRV |= pin;
            R32_PB_DIR |= pin;
    13d8:	0ca7a023          	sw	a0,192(a5)
c:/Users/Administrator/Documents/MyCode/0331/ch582m/SRC/StdPeriphDriver/CH59x_gpio.c:107
            break;

        default:
            break;
    }
}
    13dc:	8082                	ret
c:/Users/Administrator/Documents/MyCode/0331/ch582m/SRC/StdPeriphDriver/CH59x_gpio.c:83
            R32_PB_PD_DRV &= ~pin;
    13de:	400017b7          	lui	a5,0x40001
    13e2:	0d47a683          	lw	a3,212(a5) # 400010d4 <_eusrstack+0x1fffa8d4>
    13e6:	fff54713          	not	a4,a0
    13ea:	8ef9                	and	a3,a3,a4
    13ec:	0cd7aa23          	sw	a3,212(a5)
c:/Users/Administrator/Documents/MyCode/0331/ch582m/SRC/StdPeriphDriver/CH59x_gpio.c:84
            R32_PB_PU |= pin;
    13f0:	0d07a683          	lw	a3,208(a5)
    13f4:	8d55                	or	a0,a0,a3
    13f6:	0ca7a823          	sw	a0,208(a5)
c:/Users/Administrator/Documents/MyCode/0331/ch582m/SRC/StdPeriphDriver/CH59x_gpio.c:85
            R32_PB_DIR &= ~pin;
    13fa:	0c07a683          	lw	a3,192(a5)
    13fe:	8f75                	and	a4,a4,a3
    1400:	0ce7a023          	sw	a4,192(a5)
c:/Users/Administrator/Documents/MyCode/0331/ch582m/SRC/StdPeriphDriver/CH59x_gpio.c:86
            break;
    1404:	8082                	ret
c:/Users/Administrator/Documents/MyCode/0331/ch582m/SRC/StdPeriphDriver/CH59x_gpio.c:89
            R32_PB_PD_DRV |= pin;
    1406:	400017b7          	lui	a5,0x40001
    140a:	0d47a703          	lw	a4,212(a5) # 400010d4 <_eusrstack+0x1fffa8d4>
    140e:	8f49                	or	a4,a4,a0
    1410:	0ce7aa23          	sw	a4,212(a5)
c:/Users/Administrator/Documents/MyCode/0331/ch582m/SRC/StdPeriphDriver/CH59x_gpio.c:90
            R32_PB_PU &= ~pin;
    1414:	0d07a703          	lw	a4,208(a5)
    1418:	fff54513          	not	a0,a0
    141c:	bf45                	j	13cc <GPIOB_ModeCfg+0x2e>
c:/Users/Administrator/Documents/MyCode/0331/ch582m/SRC/StdPeriphDriver/CH59x_gpio.c:95
            R32_PB_PD_DRV &= ~pin;
    141e:	400017b7          	lui	a5,0x40001
    1422:	0d47a683          	lw	a3,212(a5) # 400010d4 <_eusrstack+0x1fffa8d4>
    1426:	fff54713          	not	a4,a0
    142a:	8f75                	and	a4,a4,a3
c:/Users/Administrator/Documents/MyCode/0331/ch582m/SRC/StdPeriphDriver/CH59x_gpio.c:100
            R32_PB_PD_DRV |= pin;
    142c:	0ce7aa23          	sw	a4,212(a5)
c:/Users/Administrator/Documents/MyCode/0331/ch582m/SRC/StdPeriphDriver/CH59x_gpio.c:101
            R32_PB_DIR |= pin;
    1430:	0c07a703          	lw	a4,192(a5)
    1434:	8d59                	or	a0,a0,a4
    1436:	b74d                	j	13d8 <GPIOB_ModeCfg+0x3a>
c:/Users/Administrator/Documents/MyCode/0331/ch582m/SRC/StdPeriphDriver/CH59x_gpio.c:100
            R32_PB_PD_DRV |= pin;
    1438:	400017b7          	lui	a5,0x40001
    143c:	0d47a703          	lw	a4,212(a5) # 400010d4 <_eusrstack+0x1fffa8d4>
    1440:	8f49                	or	a4,a4,a0
    1442:	b7ed                	j	142c <GPIOB_ModeCfg+0x8e>

00001444 <I2C_GenerateSTART>:
I2C_GenerateSTART():
c:/Users/Administrator/Documents/MyCode/0331/ch582m/SRC/StdPeriphDriver/CH59x_i2c.c:117
 * @return  none
 */
void I2C_GenerateSTART(FunctionalState NewState)
{
    if(NewState != DISABLE)
        R16_I2C_CTRL1 |= RB_I2C_START;
    1444:	40005737          	lui	a4,0x40005
    1448:	80075783          	lhu	a5,-2048(a4) # 40004800 <_eusrstack+0x1fffe000>
c:/Users/Administrator/Documents/MyCode/0331/ch582m/SRC/StdPeriphDriver/CH59x_i2c.c:116
    if(NewState != DISABLE)
    144c:	c511                	beqz	a0,1458 <I2C_GenerateSTART+0x14>
c:/Users/Administrator/Documents/MyCode/0331/ch582m/SRC/StdPeriphDriver/CH59x_i2c.c:117
        R16_I2C_CTRL1 |= RB_I2C_START;
    144e:	1007e793          	ori	a5,a5,256
c:/Users/Administrator/Documents/MyCode/0331/ch582m/SRC/StdPeriphDriver/CH59x_i2c.c:119
    else
        R16_I2C_CTRL1 &= ~RB_I2C_START;
    1452:	80f71023          	sh	a5,-2048(a4)
c:/Users/Administrator/Documents/MyCode/0331/ch582m/SRC/StdPeriphDriver/CH59x_i2c.c:120
}
    1456:	8082                	ret
c:/Users/Administrator/Documents/MyCode/0331/ch582m/SRC/StdPeriphDriver/CH59x_i2c.c:119
        R16_I2C_CTRL1 &= ~RB_I2C_START;
    1458:	07c2                	slli	a5,a5,0x10
    145a:	83c1                	srli	a5,a5,0x10
    145c:	eff7f793          	andi	a5,a5,-257
    1460:	07c2                	slli	a5,a5,0x10
    1462:	83c1                	srli	a5,a5,0x10
    1464:	b7fd                	j	1452 <I2C_GenerateSTART+0xe>

00001466 <I2C_GenerateSTOP>:
I2C_GenerateSTOP():
c:/Users/Administrator/Documents/MyCode/0331/ch582m/SRC/StdPeriphDriver/CH59x_i2c.c:134
 * @return  none
 */
void I2C_GenerateSTOP(FunctionalState NewState)
{
    if(NewState != DISABLE)
        R16_I2C_CTRL1 |= RB_I2C_STOP;
    1466:	40005737          	lui	a4,0x40005
    146a:	80075783          	lhu	a5,-2048(a4) # 40004800 <_eusrstack+0x1fffe000>
c:/Users/Administrator/Documents/MyCode/0331/ch582m/SRC/StdPeriphDriver/CH59x_i2c.c:133
    if(NewState != DISABLE)
    146e:	c511                	beqz	a0,147a <I2C_GenerateSTOP+0x14>
c:/Users/Administrator/Documents/MyCode/0331/ch582m/SRC/StdPeriphDriver/CH59x_i2c.c:134
        R16_I2C_CTRL1 |= RB_I2C_STOP;
    1470:	2007e793          	ori	a5,a5,512
c:/Users/Administrator/Documents/MyCode/0331/ch582m/SRC/StdPeriphDriver/CH59x_i2c.c:136
    else
        R16_I2C_CTRL1 &= ~RB_I2C_STOP;
    1474:	80f71023          	sh	a5,-2048(a4)
c:/Users/Administrator/Documents/MyCode/0331/ch582m/SRC/StdPeriphDriver/CH59x_i2c.c:137
}
    1478:	8082                	ret
c:/Users/Administrator/Documents/MyCode/0331/ch582m/SRC/StdPeriphDriver/CH59x_i2c.c:136
        R16_I2C_CTRL1 &= ~RB_I2C_STOP;
    147a:	07c2                	slli	a5,a5,0x10
    147c:	83c1                	srli	a5,a5,0x10
    147e:	dff7f793          	andi	a5,a5,-513
    1482:	07c2                	slli	a5,a5,0x10
    1484:	83c1                	srli	a5,a5,0x10
    1486:	b7fd                	j	1474 <I2C_GenerateSTOP+0xe>

00001488 <I2C_AcknowledgeConfig>:
I2C_AcknowledgeConfig():
c:/Users/Administrator/Documents/MyCode/0331/ch582m/SRC/StdPeriphDriver/CH59x_i2c.c:151
 * @return  none
 */
void I2C_AcknowledgeConfig(FunctionalState NewState)
{
    if(NewState != DISABLE)
        R16_I2C_CTRL1 |= RB_I2C_ACK;
    1488:	40005737          	lui	a4,0x40005
    148c:	80075783          	lhu	a5,-2048(a4) # 40004800 <_eusrstack+0x1fffe000>
c:/Users/Administrator/Documents/MyCode/0331/ch582m/SRC/StdPeriphDriver/CH59x_i2c.c:150
    if(NewState != DISABLE)
    1490:	c511                	beqz	a0,149c <I2C_AcknowledgeConfig+0x14>
c:/Users/Administrator/Documents/MyCode/0331/ch582m/SRC/StdPeriphDriver/CH59x_i2c.c:151
        R16_I2C_CTRL1 |= RB_I2C_ACK;
    1492:	4007e793          	ori	a5,a5,1024
c:/Users/Administrator/Documents/MyCode/0331/ch582m/SRC/StdPeriphDriver/CH59x_i2c.c:153
    else
        R16_I2C_CTRL1 &= ~RB_I2C_ACK;
    1496:	80f71023          	sh	a5,-2048(a4)
c:/Users/Administrator/Documents/MyCode/0331/ch582m/SRC/StdPeriphDriver/CH59x_i2c.c:154
}
    149a:	8082                	ret
c:/Users/Administrator/Documents/MyCode/0331/ch582m/SRC/StdPeriphDriver/CH59x_i2c.c:153
        R16_I2C_CTRL1 &= ~RB_I2C_ACK;
    149c:	07c2                	slli	a5,a5,0x10
    149e:	83c1                	srli	a5,a5,0x10
    14a0:	bff7f793          	andi	a5,a5,-1025
    14a4:	07c2                	slli	a5,a5,0x10
    14a6:	83c1                	srli	a5,a5,0x10
    14a8:	b7fd                	j	1496 <I2C_AcknowledgeConfig+0xe>

000014aa <I2C_ITConfig>:
I2C_ITConfig():
c:/Users/Administrator/Documents/MyCode/0331/ch582m/SRC/StdPeriphDriver/CH59x_i2c.c:221
 * @return  none
 */
void I2C_ITConfig(I2C_ITTypeDef I2C_IT, FunctionalState NewState)
{
    if(NewState != DISABLE)
        R16_I2C_CTRL2 |= I2C_IT;
    14aa:	400057b7          	lui	a5,0x40005
    14ae:	8047d703          	lhu	a4,-2044(a5) # 40004804 <_eusrstack+0x1fffe004>
    14b2:	0542                	slli	a0,a0,0x10
    14b4:	8141                	srli	a0,a0,0x10
c:/Users/Administrator/Documents/MyCode/0331/ch582m/SRC/StdPeriphDriver/CH59x_i2c.c:220
    if(NewState != DISABLE)
    14b6:	c589                	beqz	a1,14c0 <I2C_ITConfig+0x16>
c:/Users/Administrator/Documents/MyCode/0331/ch582m/SRC/StdPeriphDriver/CH59x_i2c.c:221
        R16_I2C_CTRL2 |= I2C_IT;
    14b8:	8d59                	or	a0,a0,a4
c:/Users/Administrator/Documents/MyCode/0331/ch582m/SRC/StdPeriphDriver/CH59x_i2c.c:223
    else
        R16_I2C_CTRL2 &= (uint16_t)~I2C_IT;
    14ba:	80a79223          	sh	a0,-2044(a5)
c:/Users/Administrator/Documents/MyCode/0331/ch582m/SRC/StdPeriphDriver/CH59x_i2c.c:224
}
    14be:	8082                	ret
c:/Users/Administrator/Documents/MyCode/0331/ch582m/SRC/StdPeriphDriver/CH59x_i2c.c:223
        R16_I2C_CTRL2 &= (uint16_t)~I2C_IT;
    14c0:	fff54513          	not	a0,a0
    14c4:	8d79                	and	a0,a0,a4
    14c6:	bfd5                	j	14ba <I2C_ITConfig+0x10>

000014c8 <I2C_SendData>:
I2C_SendData():
c:/Users/Administrator/Documents/MyCode/0331/ch582m/SRC/StdPeriphDriver/CH59x_i2c.c:237
 *
 * @return  none
 */
void I2C_SendData(uint8_t Data)
{
    R16_I2C_DATAR = Data;
    14c8:	400057b7          	lui	a5,0x40005
    14cc:	80a79823          	sh	a0,-2032(a5) # 40004810 <_eusrstack+0x1fffe010>
c:/Users/Administrator/Documents/MyCode/0331/ch582m/SRC/StdPeriphDriver/CH59x_i2c.c:238
}
    14d0:	8082                	ret

000014d2 <I2C_ReceiveData>:
I2C_ReceiveData():
c:/Users/Administrator/Documents/MyCode/0331/ch582m/SRC/StdPeriphDriver/CH59x_i2c.c:249
 *
 * @return  The value of the received data.
 */
uint8_t I2C_ReceiveData(void)
{
    return (uint8_t)R16_I2C_DATAR;
    14d2:	400057b7          	lui	a5,0x40005
    14d6:	8107d503          	lhu	a0,-2032(a5) # 40004810 <_eusrstack+0x1fffe010>
c:/Users/Administrator/Documents/MyCode/0331/ch582m/SRC/StdPeriphDriver/CH59x_i2c.c:250
}
    14da:	0ff57513          	andi	a0,a0,255
    14de:	8082                	ret

000014e0 <I2C_GetLastEvent>:
I2C_GetLastEvent():
c:/Users/Administrator/Documents/MyCode/0331/ch582m/SRC/StdPeriphDriver/CH59x_i2c.c:512
uint32_t I2C_GetLastEvent(void)
{
    uint32_t lastevent = 0;
    uint32_t flag1 = 0, flag2 = 0;

    flag1 = R16_I2C_STAR1;
    14e0:	400057b7          	lui	a5,0x40005
    14e4:	8147d703          	lhu	a4,-2028(a5) # 40004814 <_eusrstack+0x1fffe014>
c:/Users/Administrator/Documents/MyCode/0331/ch582m/SRC/StdPeriphDriver/CH59x_i2c.c:513
    flag2 = R16_I2C_STAR2;
    14e8:	8187d503          	lhu	a0,-2024(a5)
c:/Users/Administrator/Documents/MyCode/0331/ch582m/SRC/StdPeriphDriver/CH59x_i2c.c:514
    flag2 = flag2 << 16;
    14ec:	0542                	slli	a0,a0,0x10
c:/Users/Administrator/Documents/MyCode/0331/ch582m/SRC/StdPeriphDriver/CH59x_i2c.c:515
    lastevent = (flag1 | flag2) & FLAG_Mask;
    14ee:	8d59                	or	a0,a0,a4
    14f0:	0522                	slli	a0,a0,0x8
c:/Users/Administrator/Documents/MyCode/0331/ch582m/SRC/StdPeriphDriver/CH59x_i2c.c:518

    return lastevent;
}
    14f2:	8121                	srli	a0,a0,0x8
    14f4:	8082                	ret

000014f6 <I2C_ClearFlag>:
I2C_ClearFlag():
c:/Users/Administrator/Documents/MyCode/0331/ch582m/SRC/StdPeriphDriver/CH59x_i2c.c:603
void I2C_ClearFlag(uint32_t I2C_FLAG)
{
    uint32_t flagpos = 0;

    flagpos = I2C_FLAG & FLAG_Mask;
    R16_I2C_STAR1 = (uint16_t)~flagpos;
    14f6:	fff54513          	not	a0,a0
    14fa:	0542                	slli	a0,a0,0x10
    14fc:	8141                	srli	a0,a0,0x10
    14fe:	400057b7          	lui	a5,0x40005
    1502:	80a79a23          	sh	a0,-2028(a5) # 40004814 <_eusrstack+0x1fffe014>
c:/Users/Administrator/Documents/MyCode/0331/ch582m/SRC/StdPeriphDriver/CH59x_i2c.c:604
}
    1506:	8082                	ret

00001508 <GetSysClock>:
GetSysClock():
c:/Users/Administrator/Documents/MyCode/0331/ch582m/SRC/StdPeriphDriver/CH59x_sys.c:83
    rev = R32_CLK_SYS_CFG & 0xff;
    1508:	400017b7          	lui	a5,0x40001
    150c:	4788                	lw	a0,8(a5)
    150e:	0542                	slli	a0,a0,0x10
    1510:	8141                	srli	a0,a0,0x10
c:/Users/Administrator/Documents/MyCode/0331/ch582m/SRC/StdPeriphDriver/CH59x_sys.c:84
    if((rev & 0x40) == (0 << 6))
    1512:	04057793          	andi	a5,a0,64
    1516:	eb91                	bnez	a5,152a <GetSysClock+0x22>
c:/Users/Administrator/Documents/MyCode/0331/ch582m/SRC/StdPeriphDriver/CH59x_sys.c:86
        return (32000000 / (rev & 0x1f));
    1518:	01f57793          	andi	a5,a0,31
    151c:	01e85537          	lui	a0,0x1e85
c:/Users/Administrator/Documents/MyCode/0331/ch582m/SRC/StdPeriphDriver/CH59x_sys.c:90
        return (480000000 / (rev & 0x1f));
    1520:	80050513          	addi	a0,a0,-2048 # 1e84800 <_data_lma+0x1e80ce0>
    1524:	02f54533          	div	a0,a0,a5
    1528:	8082                	ret
c:/Users/Administrator/Documents/MyCode/0331/ch582m/SRC/StdPeriphDriver/CH59x_sys.c:88
    else if((rev & RB_CLK_SYS_MOD) == (1 << 6))
    152a:	0c057793          	andi	a5,a0,192
    152e:	04000713          	li	a4,64
    1532:	00e79763          	bne	a5,a4,1540 <GetSysClock+0x38>
c:/Users/Administrator/Documents/MyCode/0331/ch582m/SRC/StdPeriphDriver/CH59x_sys.c:90
        return (480000000 / (rev & 0x1f));
    1536:	01f57793          	andi	a5,a0,31
    153a:	1c9c4537          	lui	a0,0x1c9c4
    153e:	b7cd                	j	1520 <GetSysClock+0x18>
c:/Users/Administrator/Documents/MyCode/0331/ch582m/SRC/StdPeriphDriver/CH59x_sys.c:94
        return (32000);
    1540:	6521                	lui	a0,0x8
    1542:	d0050513          	addi	a0,a0,-768 # 7d00 <_data_lma+0x41e0>
c:/Users/Administrator/Documents/MyCode/0331/ch582m/SRC/StdPeriphDriver/CH59x_sys.c:96
}
    1546:	8082                	ret

00001548 <_write>:
_write():
c:/Users/Administrator/Documents/MyCode/0331/ch582m/SRC/StdPeriphDriver/CH59x_sys.c:347

#ifdef DEBUG
int _write(int fd, char *buf, int size)
{
    int i;
    for(i = 0; i < size; i++)
    1548:	4781                	li	a5,0
c:/Users/Administrator/Documents/MyCode/0331/ch582m/SRC/StdPeriphDriver/CH59x_sys.c:353
    {
#if DEBUG == Debug_UART0
        while(R8_UART0_TFC == UART_FIFO_SIZE);                  /* 等待数据发送 */
        R8_UART0_THR = *buf++; /* 发送数据 */
#elif DEBUG == Debug_UART1
        while(R8_UART1_TFC == UART_FIFO_SIZE);                  /* 等待数据发送 */
    154a:	40003737          	lui	a4,0x40003
    154e:	46a1                	li	a3,8
c:/Users/Administrator/Documents/MyCode/0331/ch582m/SRC/StdPeriphDriver/CH59x_sys.c:347 (discriminator 1)
    for(i = 0; i < size; i++)
    1550:	00c7c463          	blt	a5,a2,1558 <_write+0x10>
c:/Users/Administrator/Documents/MyCode/0331/ch582m/SRC/StdPeriphDriver/CH59x_sys.c:364
        while(R8_UART3_TFC == UART_FIFO_SIZE);                  /* 等待数据发送 */
        R8_UART3_THR = *buf++; /* 发送数据 */
#endif
    }
    return size;
}
    1554:	8532                	mv	a0,a2
    1556:	8082                	ret
c:/Users/Administrator/Documents/MyCode/0331/ch582m/SRC/StdPeriphDriver/CH59x_sys.c:353 (discriminator 1)
        while(R8_UART1_TFC == UART_FIFO_SIZE);                  /* 等待数据发送 */
    1558:	40b74503          	lbu	a0,1035(a4) # 4000340b <_eusrstack+0x1fffcc0b>
    155c:	fea68ee3          	beq	a3,a0,1558 <_write+0x10>
c:/Users/Administrator/Documents/MyCode/0331/ch582m/SRC/StdPeriphDriver/CH59x_sys.c:354 (discriminator 2)
        R8_UART1_THR = *buf++; /* 发送数据 */
    1560:	00f58533          	add	a0,a1,a5
    1564:	00054503          	lbu	a0,0(a0)
c:/Users/Administrator/Documents/MyCode/0331/ch582m/SRC/StdPeriphDriver/CH59x_sys.c:347 (discriminator 2)
    for(i = 0; i < size; i++)
    1568:	0785                	addi	a5,a5,1
c:/Users/Administrator/Documents/MyCode/0331/ch582m/SRC/StdPeriphDriver/CH59x_sys.c:354 (discriminator 2)
        R8_UART1_THR = *buf++; /* 发送数据 */
    156a:	40a70423          	sb	a0,1032(a4)
    156e:	b7cd                	j	1550 <_write+0x8>

00001570 <_sbrk>:
_sbrk():
c:/Users/Administrator/Documents/MyCode/0331/ch582m/SRC/StdPeriphDriver/CH59x_sys.c:382
{
    extern char _end[];
    extern char _heap_end[];
    static char *curbrk = _end;

    if ((curbrk + incr < _end) || (curbrk + incr > _heap_end))
    1570:	20000797          	auipc	a5,0x20000
    1574:	b7078793          	addi	a5,a5,-1168 # 200010e0 <curbrk.3969>
    1578:	439c                	lw	a5,0(a5)
    157a:	d0418713          	addi	a4,gp,-764 # 200015e4 <_ebss>
    157e:	953e                	add	a0,a0,a5
    1580:	00e56e63          	bltu	a0,a4,159c <_sbrk+0x2c>
c:/Users/Administrator/Documents/MyCode/0331/ch582m/SRC/StdPeriphDriver/CH59x_sys.c:382 (discriminator 1)
    1584:	20005717          	auipc	a4,0x20005
    1588:	07c70713          	addi	a4,a4,124 # 20006600 <_heap_end>
    158c:	00a76863          	bltu	a4,a0,159c <_sbrk+0x2c>
c:/Users/Administrator/Documents/MyCode/0331/ch582m/SRC/StdPeriphDriver/CH59x_sys.c:385
    return NULL - 1;

    curbrk += incr;
    1590:	20000717          	auipc	a4,0x20000
    1594:	b4a72823          	sw	a0,-1200(a4) # 200010e0 <curbrk.3969>
c:/Users/Administrator/Documents/MyCode/0331/ch582m/SRC/StdPeriphDriver/CH59x_sys.c:387
    return curbrk - incr;
}
    1598:	853e                	mv	a0,a5
    159a:	8082                	ret
c:/Users/Administrator/Documents/MyCode/0331/ch582m/SRC/StdPeriphDriver/CH59x_sys.c:383
    return NULL - 1;
    159c:	57fd                	li	a5,-1
    159e:	bfed                	j	1598 <_sbrk+0x28>

000015a0 <UART1_BaudRateCfg>:
UART1_BaudRateCfg():
c:/Users/Administrator/Documents/MyCode/0331/ch582m/SRC/StdPeriphDriver/CH59x_uart1.c:43
 * @param   baudrate    - 波特率
 *
 * @return  none
 */
void UART1_BaudRateCfg(uint32_t baudrate)
{
    15a0:	1141                	addi	sp,sp,-16
    15a2:	c422                	sw	s0,8(sp)
    15a4:	c606                	sw	ra,12(sp)
    15a6:	842a                	mv	s0,a0
c:/Users/Administrator/Documents/MyCode/0331/ch582m/SRC/StdPeriphDriver/CH59x_uart1.c:46
    uint32_t x;

    x = 10 * GetSysClock() / 8 / baudrate;
    15a8:	3785                	jal	1508 <GetSysClock>
    15aa:	4729                	li	a4,10
    15ac:	02e507b3          	mul	a5,a0,a4
c:/Users/Administrator/Documents/MyCode/0331/ch582m/SRC/StdPeriphDriver/CH59x_uart1.c:49
    x = (x + 5) / 10;
    R16_UART1_DL = (uint16_t)x;
}
    15b0:	40b2                	lw	ra,12(sp)
c:/Users/Administrator/Documents/MyCode/0331/ch582m/SRC/StdPeriphDriver/CH59x_uart1.c:46
    x = 10 * GetSysClock() / 8 / baudrate;
    15b2:	838d                	srli	a5,a5,0x3
    15b4:	0287d7b3          	divu	a5,a5,s0
c:/Users/Administrator/Documents/MyCode/0331/ch582m/SRC/StdPeriphDriver/CH59x_uart1.c:49
}
    15b8:	4422                	lw	s0,8(sp)
c:/Users/Administrator/Documents/MyCode/0331/ch582m/SRC/StdPeriphDriver/CH59x_uart1.c:47
    x = (x + 5) / 10;
    15ba:	0795                	addi	a5,a5,5
    15bc:	02e7d7b3          	divu	a5,a5,a4
c:/Users/Administrator/Documents/MyCode/0331/ch582m/SRC/StdPeriphDriver/CH59x_uart1.c:48
    R16_UART1_DL = (uint16_t)x;
    15c0:	40003737          	lui	a4,0x40003
    15c4:	07c2                	slli	a5,a5,0x10
    15c6:	83c1                	srli	a5,a5,0x10
    15c8:	40f71623          	sh	a5,1036(a4) # 4000340c <_eusrstack+0x1fffcc0c>
c:/Users/Administrator/Documents/MyCode/0331/ch582m/SRC/StdPeriphDriver/CH59x_uart1.c:49
}
    15cc:	0141                	addi	sp,sp,16
    15ce:	8082                	ret

000015d0 <UART1_DefInit>:
UART1_DefInit():
c:/Users/Administrator/Documents/MyCode/0331/ch582m/SRC/StdPeriphDriver/CH59x_uart1.c:26
    UART1_BaudRateCfg(115200);
    15d0:	6571                	lui	a0,0x1c
c:/Users/Administrator/Documents/MyCode/0331/ch582m/SRC/StdPeriphDriver/CH59x_uart1.c:25
{
    15d2:	1141                	addi	sp,sp,-16
c:/Users/Administrator/Documents/MyCode/0331/ch582m/SRC/StdPeriphDriver/CH59x_uart1.c:26
    UART1_BaudRateCfg(115200);
    15d4:	20050513          	addi	a0,a0,512 # 1c200 <_data_lma+0x186e0>
c:/Users/Administrator/Documents/MyCode/0331/ch582m/SRC/StdPeriphDriver/CH59x_uart1.c:25
{
    15d8:	c606                	sw	ra,12(sp)
c:/Users/Administrator/Documents/MyCode/0331/ch582m/SRC/StdPeriphDriver/CH59x_uart1.c:26
    UART1_BaudRateCfg(115200);
    15da:	37d9                	jal	15a0 <UART1_BaudRateCfg>
c:/Users/Administrator/Documents/MyCode/0331/ch582m/SRC/StdPeriphDriver/CH59x_uart1.c:27
    R8_UART1_FCR = (2 << 6) | RB_FCR_TX_FIFO_CLR | RB_FCR_RX_FIFO_CLR | RB_FCR_FIFO_EN; // FIFO打开，触发点4字节
    15dc:	400037b7          	lui	a5,0x40003
    15e0:	f8700713          	li	a4,-121
    15e4:	40e78123          	sb	a4,1026(a5) # 40003402 <_eusrstack+0x1fffcc02>
c:/Users/Administrator/Documents/MyCode/0331/ch582m/SRC/StdPeriphDriver/CH59x_uart1.c:28
    R8_UART1_LCR = RB_LCR_WORD_SZ;
    15e8:	470d                	li	a4,3
    15ea:	40e781a3          	sb	a4,1027(a5)
c:/Users/Administrator/Documents/MyCode/0331/ch582m/SRC/StdPeriphDriver/CH59x_uart1.c:29
    R8_UART1_IER = RB_IER_TXD_EN;
    15ee:	04000713          	li	a4,64
    15f2:	40e780a3          	sb	a4,1025(a5)
c:/Users/Administrator/Documents/MyCode/0331/ch582m/SRC/StdPeriphDriver/CH59x_uart1.c:30
    R8_UART1_DIV = 1;
    15f6:	4705                	li	a4,1
    15f8:	40e78723          	sb	a4,1038(a5)
c:/Users/Administrator/Documents/MyCode/0331/ch582m/SRC/StdPeriphDriver/CH59x_uart1.c:31
}
    15fc:	40b2                	lw	ra,12(sp)
    15fe:	0141                	addi	sp,sp,16
    1600:	8082                	ret

00001602 <UART1_ByteTrigCfg>:
UART1_ByteTrigCfg():
c:/Users/Administrator/Documents/MyCode/0331/ch582m/SRC/StdPeriphDriver/CH59x_uart1.c:62
 *
 * @return  none
 */
void UART1_ByteTrigCfg(UARTByteTRIGTypeDef b)
{
    R8_UART1_FCR = (R8_UART1_FCR & ~RB_FCR_FIFO_TRIG) | (b << 6);
    1602:	40003737          	lui	a4,0x40003
    1606:	40274783          	lbu	a5,1026(a4) # 40003402 <_eusrstack+0x1fffcc02>
    160a:	051a                	slli	a0,a0,0x6
    160c:	03f7f793          	andi	a5,a5,63
    1610:	8fc9                	or	a5,a5,a0
    1612:	0ff7f793          	andi	a5,a5,255
    1616:	40f70123          	sb	a5,1026(a4)
c:/Users/Administrator/Documents/MyCode/0331/ch582m/SRC/StdPeriphDriver/CH59x_uart1.c:63
}
    161a:	8082                	ret

0000161c <UART1_INTCfg>:
UART1_INTCfg():
c:/Users/Administrator/Documents/MyCode/0331/ch582m/SRC/StdPeriphDriver/CH59x_uart1.c:83
 */
void UART1_INTCfg(FunctionalState s, uint8_t i)
{
    if(s)
    {
        R8_UART1_IER |= i;
    161c:	400037b7          	lui	a5,0x40003
    1620:	4017c703          	lbu	a4,1025(a5) # 40003401 <_eusrstack+0x1fffcc01>
c:/Users/Administrator/Documents/MyCode/0331/ch582m/SRC/StdPeriphDriver/CH59x_uart1.c:81
    if(s)
    1624:	c919                	beqz	a0,163a <UART1_INTCfg+0x1e>
c:/Users/Administrator/Documents/MyCode/0331/ch582m/SRC/StdPeriphDriver/CH59x_uart1.c:83
        R8_UART1_IER |= i;
    1626:	8dd9                	or	a1,a1,a4
    1628:	40b780a3          	sb	a1,1025(a5)
c:/Users/Administrator/Documents/MyCode/0331/ch582m/SRC/StdPeriphDriver/CH59x_uart1.c:84
        R8_UART1_MCR |= RB_MCR_INT_OE;
    162c:	4007c703          	lbu	a4,1024(a5)
    1630:	00876713          	ori	a4,a4,8
    1634:	40e78023          	sb	a4,1024(a5)
    1638:	8082                	ret
c:/Users/Administrator/Documents/MyCode/0331/ch582m/SRC/StdPeriphDriver/CH59x_uart1.c:88
    }
    else
    {
        R8_UART1_IER &= ~i;
    163a:	fff5c593          	not	a1,a1
    163e:	8df9                	and	a1,a1,a4
    1640:	40b780a3          	sb	a1,1025(a5)
c:/Users/Administrator/Documents/MyCode/0331/ch582m/SRC/StdPeriphDriver/CH59x_uart1.c:90
    }
}
    1644:	8082                	ret

00001646 <UART1_SendString>:
UART1_SendString():
c:/Users/Administrator/Documents/MyCode/0331/ch582m/SRC/StdPeriphDriver/CH59x_uart1.c:122
{
    uint16_t len = l;

    while(len)
    {
        if(R8_UART1_TFC != UART_FIFO_SIZE)
    1646:	400037b7          	lui	a5,0x40003
    164a:	4721                	li	a4,8
    164c:	400036b7          	lui	a3,0x40003
c:/Users/Administrator/Documents/MyCode/0331/ch582m/SRC/StdPeriphDriver/CH59x_uart1.c:120
    while(len)
    1650:	e191                	bnez	a1,1654 <UART1_SendString+0xe>
c:/Users/Administrator/Documents/MyCode/0331/ch582m/SRC/StdPeriphDriver/CH59x_uart1.c:128
        {
            R8_UART1_THR = *buf++;
            len--;
        }
    }
}
    1652:	8082                	ret
c:/Users/Administrator/Documents/MyCode/0331/ch582m/SRC/StdPeriphDriver/CH59x_uart1.c:122
        if(R8_UART1_TFC != UART_FIFO_SIZE)
    1654:	40b7c603          	lbu	a2,1035(a5) # 4000340b <_eusrstack+0x1fffcc0b>
    1658:	fec70ce3          	beq	a4,a2,1650 <UART1_SendString+0xa>
c:/Users/Administrator/Documents/MyCode/0331/ch582m/SRC/StdPeriphDriver/CH59x_uart1.c:124
            R8_UART1_THR = *buf++;
    165c:	0505                	addi	a0,a0,1
    165e:	fff54603          	lbu	a2,-1(a0)
c:/Users/Administrator/Documents/MyCode/0331/ch582m/SRC/StdPeriphDriver/CH59x_uart1.c:125
            len--;
    1662:	15fd                	addi	a1,a1,-1
    1664:	05c2                	slli	a1,a1,0x10
c:/Users/Administrator/Documents/MyCode/0331/ch582m/SRC/StdPeriphDriver/CH59x_uart1.c:124
            R8_UART1_THR = *buf++;
    1666:	40c68423          	sb	a2,1032(a3) # 40003408 <_eusrstack+0x1fffcc08>
c:/Users/Administrator/Documents/MyCode/0331/ch582m/SRC/StdPeriphDriver/CH59x_uart1.c:125
            len--;
    166a:	81c1                	srli	a1,a1,0x10
    166c:	b7d5                	j	1650 <UART1_SendString+0xa>

0000166e <UART1_RecvString>:
UART1_RecvString():
c:/Users/Administrator/Documents/MyCode/0331/ch582m/SRC/StdPeriphDriver/CH59x_uart1.c:143
 */
uint16_t UART1_RecvString(uint8_t *buf)
{
    uint16_t len = 0;

    while(R8_UART1_RFC)
    166e:	4781                	li	a5,0
    1670:	400036b7          	lui	a3,0x40003
    1674:	40a6c703          	lbu	a4,1034(a3) # 4000340a <_eusrstack+0x1fffcc0a>
    1678:	01079613          	slli	a2,a5,0x10
    167c:	8241                	srli	a2,a2,0x10
    167e:	0ff77713          	andi	a4,a4,255
    1682:	e319                	bnez	a4,1688 <UART1_RecvString+0x1a>
c:/Users/Administrator/Documents/MyCode/0331/ch582m/SRC/StdPeriphDriver/CH59x_uart1.c:150
        *buf++ = R8_UART1_RBR;
        len++;
    }

    return (len);
}
    1684:	8532                	mv	a0,a2
    1686:	8082                	ret
c:/Users/Administrator/Documents/MyCode/0331/ch582m/SRC/StdPeriphDriver/CH59x_uart1.c:145
        *buf++ = R8_UART1_RBR;
    1688:	4086c603          	lbu	a2,1032(a3)
    168c:	00f50733          	add	a4,a0,a5
    1690:	0785                	addi	a5,a5,1
    1692:	00c70023          	sb	a2,0(a4)
c:/Users/Administrator/Documents/MyCode/0331/ch582m/SRC/StdPeriphDriver/CH59x_uart1.c:146
        len++;
    1696:	bff9                	j	1674 <UART1_RecvString+0x6>

00001698 <CODE_INIT>:
CODE_INIT():
c:\Users\Administrator\Documents\MyCode\0331\ch582m\my_ch582m\obj/../Code/code.c:9
    CODE_INIT();
    CODE_SELF_TEST();
    CODE_WHILE();
}

void CODE_INIT(){
    1698:	1141                	addi	sp,sp,-16
c:\Users\Administrator\Documents\MyCode\0331\ch582m\my_ch582m\obj/../Code/code.c:10
    SetSysClock(CLK_SOURCE_PLL_60MHz);
    169a:	04800513          	li	a0,72
c:\Users\Administrator\Documents\MyCode\0331\ch582m\my_ch582m\obj/../Code/code.c:9
void CODE_INIT(){
    169e:	c606                	sw	ra,12(sp)
c:\Users\Administrator\Documents\MyCode\0331\ch582m\my_ch582m\obj/../Code/code.c:10
    SetSysClock(CLK_SOURCE_PLL_60MHz);
    16a0:	1ffff097          	auipc	ra,0x1ffff
    16a4:	9f2080e7          	jalr	-1550(ra) # 20000092 <SetSysClock>
c:\Users\Administrator\Documents\MyCode\0331\ch582m\my_ch582m\obj/../Code/code.c:11
    USART_APP_Init();
    16a8:	2015                	jal	16cc <USART_APP_Init>
c:\Users\Administrator\Documents\MyCode\0331\ch582m\my_ch582m\obj/../Code/code.c:16
    QMC5883_Init();
    // LSM6DSOW_APP_Init();
    // LIS2MDLTR_APP_Init();
    // LSM6DSV16X_APP_Init();
}
    16aa:	40b2                	lw	ra,12(sp)
    16ac:	0141                	addi	sp,sp,16
c:\Users\Administrator\Documents\MyCode\0331\ch582m\my_ch582m\obj/../Code/code.c:12
    QMC5883_Init();
    16ae:	a979                	j	1b4c <QMC5883_Init>

000016b0 <CODE_SELF_TEST>:
CODE_SELF_TEST():
c:\Users\Administrator\Documents\MyCode\0331\ch582m\my_ch582m\obj/../Code/code.c:18

void CODE_SELF_TEST(){
    16b0:	1141                	addi	sp,sp,-16
c:\Users\Administrator\Documents\MyCode\0331\ch582m\my_ch582m\obj/../Code/code.c:19
    printf("0401, 开机!\r\n");
    16b2:	00002517          	auipc	a0,0x2
    16b6:	ff250513          	addi	a0,a0,-14 # 36a4 <_read+0x36>
c:\Users\Administrator\Documents\MyCode\0331\ch582m\my_ch582m\obj/../Code/code.c:18
void CODE_SELF_TEST(){
    16ba:	c606                	sw	ra,12(sp)
c:\Users\Administrator\Documents\MyCode\0331\ch582m\my_ch582m\obj/../Code/code.c:19
    printf("0401, 开机!\r\n");
    16bc:	173000ef          	jal	ra,202e <puts>
c:\Users\Administrator\Documents\MyCode\0331\ch582m\my_ch582m\obj/../Code/code.c:24 (discriminator 1)
    while(1){
        // my_test();
        // my_usart_self_test();
        // my_i2c_self_test();
        my_qmc5883_self_test();
    16c0:	2b2d                	jal	1bfa <my_qmc5883_self_test>
    16c2:	bffd                	j	16c0 <CODE_SELF_TEST+0x10>

000016c4 <CODE_MAIN>:
CODE_MAIN():
c:\Users\Administrator\Documents\MyCode\0331\ch582m\my_ch582m\obj/../Code/code.c:3
void CODE_MAIN(){
    16c4:	1141                	addi	sp,sp,-16
    16c6:	c606                	sw	ra,12(sp)
c:\Users\Administrator\Documents\MyCode\0331\ch582m\my_ch582m\obj/../Code/code.c:4
    CODE_INIT();
    16c8:	3fc1                	jal	1698 <CODE_INIT>
c:\Users\Administrator\Documents\MyCode\0331\ch582m\my_ch582m\obj/../Code/code.c:5
    CODE_SELF_TEST();
    16ca:	37dd                	jal	16b0 <CODE_SELF_TEST>

000016cc <USART_APP_Init>:
USART_APP_Init():
c:\Users\Administrator\Documents\MyCode\0331\ch582m\my_ch582m\obj/../Code/my_interface.c:14
        GPIOA_SetBits(GPIO_Pin_9);
    16cc:	40001737          	lui	a4,0x40001
    16d0:	0a872783          	lw	a5,168(a4) # 400010a8 <_eusrstack+0x1fffa8a8>
c:\Users\Administrator\Documents\MyCode\0331\ch582m\my_ch582m\obj/../Code/my_interface.c:12
    void USART_APP_Init(void){
    16d4:	1141                	addi	sp,sp,-16
    16d6:	c606                	sw	ra,12(sp)
c:\Users\Administrator\Documents\MyCode\0331\ch582m\my_ch582m\obj/../Code/my_interface.c:14
        GPIOA_SetBits(GPIO_Pin_9);
    16d8:	2007e793          	ori	a5,a5,512
    16dc:	0af72423          	sw	a5,168(a4)
c:\Users\Administrator\Documents\MyCode\0331\ch582m\my_ch582m\obj/../Code/my_interface.c:15
        GPIOA_ModeCfg(GPIO_Pin_8, GPIO_ModeIN_PU);      // RXD-配置上拉输入
    16e0:	4585                	li	a1,1
    16e2:	10000513          	li	a0,256
    16e6:	3909                	jal	12f8 <GPIOA_ModeCfg>
c:\Users\Administrator\Documents\MyCode\0331\ch582m\my_ch582m\obj/../Code/my_interface.c:16
        GPIOA_ModeCfg(GPIO_Pin_9, GPIO_ModeOut_PP_5mA); // TXD-配置推挽输出，注意先让IO口输出高电平
    16e8:	458d                	li	a1,3
    16ea:	20000513          	li	a0,512
    16ee:	3129                	jal	12f8 <GPIOA_ModeCfg>
c:\Users\Administrator\Documents\MyCode\0331\ch582m\my_ch582m\obj/../Code/my_interface.c:17
        UART1_DefInit();
    16f0:	35c5                	jal	15d0 <UART1_DefInit>
c:\Users\Administrator\Documents\MyCode\0331\ch582m\my_ch582m\obj/../Code/my_interface.c:20
        UART1_ByteTrigCfg(UART_7BYTE_TRIG);
    16f2:	450d                	li	a0,3
    16f4:	3739                	jal	1602 <UART1_ByteTrigCfg>
c:\Users\Administrator\Documents\MyCode\0331\ch582m\my_ch582m\obj/../Code/my_interface.c:21
        trigB = 7;
    16f6:	479d                	li	a5,7
c:\Users\Administrator\Documents\MyCode\0331\ch582m\my_ch582m\obj/../Code/my_interface.c:22
        UART1_INTCfg(ENABLE, RB_IER_RECV_RDY | RB_IER_LINE_STAT);
    16f8:	4595                	li	a1,5
    16fa:	4505                	li	a0,1
c:\Users\Administrator\Documents\MyCode\0331\ch582m\my_ch582m\obj/../Code/my_interface.c:21
        trigB = 7;
    16fc:	82f18023          	sb	a5,-2016(gp) # 20001100 <trigB>
c:\Users\Administrator\Documents\MyCode\0331\ch582m\my_ch582m\obj/../Code/my_interface.c:22
        UART1_INTCfg(ENABLE, RB_IER_RECV_RDY | RB_IER_LINE_STAT);
    1700:	3f31                	jal	161c <UART1_INTCfg>
c:\Users\Administrator\Documents\MyCode\0331\ch582m\my_ch582m\obj/../Code/my_interface.c:24
    }
    1702:	40b2                	lw	ra,12(sp)
PFIC_EnableIRQ():
c:/Users/Administrator/Documents/MyCode/0331/ch582m/SRC/RVMSIS/core_riscv.h:144
 *
 * @param   IRQn    - Interrupt Numbers
 */
__attribute__((always_inline)) RV_STATIC_INLINE void PFIC_EnableIRQ(IRQn_Type IRQn)
{
    PFIC->IENR[((uint32_t)(IRQn) >> 5)] = (1 << ((uint32_t)(IRQn)&0x1F));
    1704:	e000e7b7          	lui	a5,0xe000e
    1708:	08000737          	lui	a4,0x8000
    170c:	10e7a023          	sw	a4,256(a5) # e000e100 <_eusrstack+0xc0007900>
USART_APP_Init():
c:\Users\Administrator\Documents\MyCode\0331\ch582m\my_ch582m\obj/../Code/my_interface.c:24
    1710:	0141                	addi	sp,sp,16
    1712:	8082                	ret

00001714 <i2c_app_init>:
i2c_app_init():
c:\Users\Administrator\Documents\MyCode\0331\ch582m\my_ch582m\obj/../Code/my_interface.c:104
        i2c_state = I2C_READY;
    1714:	80018ca3          	sb	zero,-2023(gp) # 200010f9 <i2c_state>
c:\Users\Administrator\Documents\MyCode\0331\ch582m\my_ch582m\obj/../Code/my_interface.c:105
        i2c_send_stop = true;
    1718:	4785                	li	a5,1
c:\Users\Administrator\Documents\MyCode\0331\ch582m\my_ch582m\obj/../Code/my_interface.c:103
    {
    171a:	1141                	addi	sp,sp,-16
c:\Users\Administrator\Documents\MyCode\0331\ch582m\my_ch582m\obj/../Code/my_interface.c:105
        i2c_send_stop = true;
    171c:	80f18a23          	sb	a5,-2028(gp) # 200010f4 <i2c_send_stop>
c:\Users\Administrator\Documents\MyCode\0331\ch582m\my_ch582m\obj/../Code/my_interface.c:109
        GPIOB_ModeCfg(GPIO_Pin_13 | GPIO_Pin_12, GPIO_ModeOut_PP_5mA);
    1720:	458d                	li	a1,3
    1722:	650d                	lui	a0,0x3
c:\Users\Administrator\Documents\MyCode\0331\ch582m\my_ch582m\obj/../Code/my_interface.c:103
    {
    1724:	c606                	sw	ra,12(sp)
c:\Users\Administrator\Documents\MyCode\0331\ch582m\my_ch582m\obj/../Code/my_interface.c:106
        i2c_in_repstart = false;
    1726:	800188a3          	sb	zero,-2031(gp) # 200010f1 <i2c_in_repstart>
c:\Users\Administrator\Documents\MyCode\0331\ch582m\my_ch582m\obj/../Code/my_interface.c:109
        GPIOB_ModeCfg(GPIO_Pin_13 | GPIO_Pin_12, GPIO_ModeOut_PP_5mA);
    172a:	3995                	jal	139e <GPIOB_ModeCfg>
c:\Users\Administrator\Documents\MyCode\0331\ch582m\my_ch582m\obj/../Code/my_interface.c:113
        I2C_GPIO_Write_SCL_1(I2C_Class_1);
    172c:	400017b7          	lui	a5,0x40001
    1730:	80418693          	addi	a3,gp,-2044 # 200010e4 <I2C_Class_1>
    1734:	0c87a603          	lw	a2,200(a5) # 400010c8 <_eusrstack+0x1fffa8c8>
    1738:	0006d703          	lhu	a4,0(a3)
c:\Users\Administrator\Documents\MyCode\0331\ch582m\my_ch582m\obj/../Code/my_interface.c:121
    }
    173c:	40b2                	lw	ra,12(sp)
c:\Users\Administrator\Documents\MyCode\0331\ch582m\my_ch582m\obj/../Code/my_interface.c:113
        I2C_GPIO_Write_SCL_1(I2C_Class_1);
    173e:	8f51                	or	a4,a4,a2
    1740:	0ce7a423          	sw	a4,200(a5)
c:\Users\Administrator\Documents\MyCode\0331\ch582m\my_ch582m\obj/../Code/my_interface.c:114
        I2C_GPIO_Write_SDA_1(I2C_Class_1);
    1744:	0c87a603          	lw	a2,200(a5)
    1748:	0026d703          	lhu	a4,2(a3)
    174c:	8f51                	or	a4,a4,a2
    174e:	0ce7a423          	sw	a4,200(a5)
c:\Users\Administrator\Documents\MyCode\0331\ch582m\my_ch582m\obj/../Code/my_interface.c:121
    }
    1752:	0141                	addi	sp,sp,16
    1754:	8082                	ret

00001756 <i2c_delay>:
i2c_delay():
c:\Users\Administrator\Documents\MyCode\0331\ch582m\my_ch582m\obj/../Code/my_interface.c:591

// #ifndef __I2C__All__Reference__
// #define __I2C__All__Reference__

void i2c_delay(void){
        DelayUs(1);
    1756:	4505                	li	a0,1
    1758:	1ffff317          	auipc	t1,0x1ffff
    175c:	bb830067          	jr	-1096(t1) # 20000310 <mDelayuS>

00001760 <I2C_Driver_Start>:
I2C_Driver_Start():
c:\Users\Administrator\Documents\MyCode\0331\ch582m\my_ch582m\obj/../Code/my_interface.c:692

#ifndef __I2C__Driver__Reference__
#define __I2C__Driver__Reference__
/* Driver Reference Begin */

    void I2C_Driver_Start(I2C_Class_Struct input_I2C_Class){
    1760:	1101                	addi	sp,sp,-32
    1762:	ca26                	sw	s1,20(sp)
    1764:	c84a                	sw	s2,16(sp)
    1766:	c42a                	sw	a0,8(sp)
    1768:	c62e                	sw	a1,12(sp)
    176a:	01055913          	srli	s2,a0,0x10
I2C_GPIO_Mode_SDA():
c:\Users\Administrator\Documents\MyCode\0331\ch582m\my_ch582m\obj/../Code/my_interface.c:886
                            uint8_t				input_SDA_Mode)						
    {
        // GPIO_TypeDef* temp_Port	= input_I2C_Class.SDA_Port;
        // uint16_t temp_Pin       = input_I2C_Class.SDA_Pin;

        GPIOB_ModeCfg(GPIO_Pin_12, 
    176e:	458d                	li	a1,3
    1770:	01051493          	slli	s1,a0,0x10
    1774:	6505                	lui	a0,0x1
I2C_Driver_Start():
c:\Users\Administrator\Documents\MyCode\0331\ch582m\my_ch582m\obj/../Code/my_interface.c:692
    void I2C_Driver_Start(I2C_Class_Struct input_I2C_Class){
    1776:	ce06                	sw	ra,28(sp)
    1778:	cc22                	sw	s0,24(sp)
c:\Users\Administrator\Documents\MyCode\0331\ch582m\my_ch582m\obj/../Code/my_interface.c:700
        I2C_GPIO_Write_SDA_1(input_I2C_Class);
    177a:	40001437          	lui	s0,0x40001
I2C_GPIO_Mode_SDA():
c:\Users\Administrator\Documents\MyCode\0331\ch582m\my_ch582m\obj/../Code/my_interface.c:886
        GPIOB_ModeCfg(GPIO_Pin_12, 
    177e:	3105                	jal	139e <GPIOB_ModeCfg>
I2C_Driver_Start():
c:\Users\Administrator\Documents\MyCode\0331\ch582m\my_ch582m\obj/../Code/my_interface.c:700
        I2C_GPIO_Write_SDA_1(input_I2C_Class);
    1780:	0c842783          	lw	a5,200(s0) # 400010c8 <_eusrstack+0x1fffa8c8>
    1784:	80c1                	srli	s1,s1,0x10
    1786:	0127e7b3          	or	a5,a5,s2
    178a:	0cf42423          	sw	a5,200(s0)
c:\Users\Administrator\Documents\MyCode\0331\ch582m\my_ch582m\obj/../Code/my_interface.c:701
        I2C_GPIO_Write_SCL_1(input_I2C_Class);
    178e:	0c842783          	lw	a5,200(s0)
    1792:	8fc5                	or	a5,a5,s1
    1794:	0cf42423          	sw	a5,200(s0)
c:\Users\Administrator\Documents\MyCode\0331\ch582m\my_ch582m\obj/../Code/my_interface.c:702
        i2c_delay();
    1798:	3f7d                	jal	1756 <i2c_delay>
c:\Users\Administrator\Documents\MyCode\0331\ch582m\my_ch582m\obj/../Code/my_interface.c:703
        I2C_GPIO_Write_SDA_0(input_I2C_Class);
    179a:	0cc42783          	lw	a5,204(s0)
    179e:	00f96933          	or	s2,s2,a5
    17a2:	0d242623          	sw	s2,204(s0)
c:\Users\Administrator\Documents\MyCode\0331\ch582m\my_ch582m\obj/../Code/my_interface.c:704
        i2c_delay();
    17a6:	3f45                	jal	1756 <i2c_delay>
c:\Users\Administrator\Documents\MyCode\0331\ch582m\my_ch582m\obj/../Code/my_interface.c:705
        I2C_GPIO_Write_SCL_0(input_I2C_Class);
    17a8:	0cc42783          	lw	a5,204(s0)
c:\Users\Administrator\Documents\MyCode\0331\ch582m\my_ch582m\obj/../Code/my_interface.c:707
    }
    17ac:	40f2                	lw	ra,28(sp)
    17ae:	4942                	lw	s2,16(sp)
c:\Users\Administrator\Documents\MyCode\0331\ch582m\my_ch582m\obj/../Code/my_interface.c:705
        I2C_GPIO_Write_SCL_0(input_I2C_Class);
    17b0:	8cdd                	or	s1,s1,a5
    17b2:	0c942623          	sw	s1,204(s0)
c:\Users\Administrator\Documents\MyCode\0331\ch582m\my_ch582m\obj/../Code/my_interface.c:707
    }
    17b6:	4462                	lw	s0,24(sp)
    17b8:	44d2                	lw	s1,20(sp)
    17ba:	6105                	addi	sp,sp,32
c:\Users\Administrator\Documents\MyCode\0331\ch582m\my_ch582m\obj/../Code/my_interface.c:706
        i2c_delay();
    17bc:	bf69                	j	1756 <i2c_delay>

000017be <I2C_Driver_Stop>:
I2C_Driver_Stop():
c:\Users\Administrator\Documents\MyCode\0331\ch582m\my_ch582m\obj/../Code/my_interface.c:709
    void I2C_Driver_Stop(I2C_Class_Struct input_I2C_Class){
    17be:	1101                	addi	sp,sp,-32
    17c0:	ca26                	sw	s1,20(sp)
    17c2:	c84a                	sw	s2,16(sp)
    17c4:	c42a                	sw	a0,8(sp)
    17c6:	c62e                	sw	a1,12(sp)
    17c8:	01055493          	srli	s1,a0,0x10
I2C_GPIO_Mode_SDA():
c:\Users\Administrator\Documents\MyCode\0331\ch582m\my_ch582m\obj/../Code/my_interface.c:886
        GPIOB_ModeCfg(GPIO_Pin_12, 
    17cc:	458d                	li	a1,3
    17ce:	01051913          	slli	s2,a0,0x10
    17d2:	6505                	lui	a0,0x1
I2C_Driver_Stop():
c:\Users\Administrator\Documents\MyCode\0331\ch582m\my_ch582m\obj/../Code/my_interface.c:709
    void I2C_Driver_Stop(I2C_Class_Struct input_I2C_Class){
    17d4:	ce06                	sw	ra,28(sp)
    17d6:	cc22                	sw	s0,24(sp)
c:\Users\Administrator\Documents\MyCode\0331\ch582m\my_ch582m\obj/../Code/my_interface.c:717
        I2C_GPIO_Write_SDA_0(input_I2C_Class);
    17d8:	40001437          	lui	s0,0x40001
I2C_GPIO_Mode_SDA():
c:\Users\Administrator\Documents\MyCode\0331\ch582m\my_ch582m\obj/../Code/my_interface.c:886
        GPIOB_ModeCfg(GPIO_Pin_12, 
    17dc:	36c9                	jal	139e <GPIOB_ModeCfg>
I2C_Driver_Stop():
c:\Users\Administrator\Documents\MyCode\0331\ch582m\my_ch582m\obj/../Code/my_interface.c:717
        I2C_GPIO_Write_SDA_0(input_I2C_Class);
    17de:	0cc42783          	lw	a5,204(s0) # 400010cc <_eusrstack+0x1fffa8cc>
    17e2:	01095913          	srli	s2,s2,0x10
    17e6:	8fc5                	or	a5,a5,s1
    17e8:	0cf42623          	sw	a5,204(s0)
c:\Users\Administrator\Documents\MyCode\0331\ch582m\my_ch582m\obj/../Code/my_interface.c:718
        i2c_delay();
    17ec:	37ad                	jal	1756 <i2c_delay>
c:\Users\Administrator\Documents\MyCode\0331\ch582m\my_ch582m\obj/../Code/my_interface.c:719
        I2C_GPIO_Write_SCL_1(input_I2C_Class);
    17ee:	0c842783          	lw	a5,200(s0)
    17f2:	00f96933          	or	s2,s2,a5
    17f6:	0d242423          	sw	s2,200(s0)
c:\Users\Administrator\Documents\MyCode\0331\ch582m\my_ch582m\obj/../Code/my_interface.c:720
        i2c_delay();
    17fa:	3fb1                	jal	1756 <i2c_delay>
c:\Users\Administrator\Documents\MyCode\0331\ch582m\my_ch582m\obj/../Code/my_interface.c:721
        I2C_GPIO_Write_SDA_1(input_I2C_Class);
    17fc:	0c842783          	lw	a5,200(s0)
c:\Users\Administrator\Documents\MyCode\0331\ch582m\my_ch582m\obj/../Code/my_interface.c:723
    }
    1800:	40f2                	lw	ra,28(sp)
    1802:	4942                	lw	s2,16(sp)
c:\Users\Administrator\Documents\MyCode\0331\ch582m\my_ch582m\obj/../Code/my_interface.c:721
        I2C_GPIO_Write_SDA_1(input_I2C_Class);
    1804:	8cdd                	or	s1,s1,a5
    1806:	0c942423          	sw	s1,200(s0)
c:\Users\Administrator\Documents\MyCode\0331\ch582m\my_ch582m\obj/../Code/my_interface.c:723
    }
    180a:	4462                	lw	s0,24(sp)
    180c:	44d2                	lw	s1,20(sp)
    180e:	6105                	addi	sp,sp,32
c:\Users\Administrator\Documents\MyCode\0331\ch582m\my_ch582m\obj/../Code/my_interface.c:722
        i2c_delay();
    1810:	b799                	j	1756 <i2c_delay>

00001812 <I2C_Driver_Wait_Ack>:
I2C_Driver_Wait_Ack():
c:\Users\Administrator\Documents\MyCode\0331\ch582m\my_ch582m\obj/../Code/my_interface.c:725
    bool I2C_Driver_Wait_Ack(I2C_Class_Struct input_I2C_Class){
    1812:	1101                	addi	sp,sp,-32
    1814:	cc22                	sw	s0,24(sp)
    1816:	c84a                	sw	s2,16(sp)
    1818:	c42a                	sw	a0,8(sp)
    181a:	c62e                	sw	a1,12(sp)
    181c:	01051413          	slli	s0,a0,0x10
I2C_GPIO_Mode_SDA():
c:\Users\Administrator\Documents\MyCode\0331\ch582m\my_ch582m\obj/../Code/my_interface.c:886
        GPIOB_ModeCfg(GPIO_Pin_12, 
    1820:	4585                	li	a1,1
    1822:	01055913          	srli	s2,a0,0x10
    1826:	6505                	lui	a0,0x1
I2C_Driver_Wait_Ack():
c:\Users\Administrator\Documents\MyCode\0331\ch582m\my_ch582m\obj/../Code/my_interface.c:725
    bool I2C_Driver_Wait_Ack(I2C_Class_Struct input_I2C_Class){
    1828:	ce06                	sw	ra,28(sp)
    182a:	ca26                	sw	s1,20(sp)
I2C_GPIO_Mode_SDA():
c:\Users\Administrator\Documents\MyCode\0331\ch582m\my_ch582m\obj/../Code/my_interface.c:886
        GPIOB_ModeCfg(GPIO_Pin_12, 
    182c:	3e8d                	jal	139e <GPIOB_ModeCfg>
I2C_Driver_Wait_Ack():
c:\Users\Administrator\Documents\MyCode\0331\ch582m\my_ch582m\obj/../Code/my_interface.c:734
        I2C_GPIO_Write_SDA_1(input_I2C_Class);
    182e:	400014b7          	lui	s1,0x40001
    1832:	0c84a783          	lw	a5,200(s1) # 400010c8 <_eusrstack+0x1fffa8c8>
    1836:	8041                	srli	s0,s0,0x10
    1838:	0127e7b3          	or	a5,a5,s2
    183c:	0cf4a423          	sw	a5,200(s1)
c:\Users\Administrator\Documents\MyCode\0331\ch582m\my_ch582m\obj/../Code/my_interface.c:735
        i2c_delay();
    1840:	3f19                	jal	1756 <i2c_delay>
c:\Users\Administrator\Documents\MyCode\0331\ch582m\my_ch582m\obj/../Code/my_interface.c:736
        I2C_GPIO_Write_SCL_1(input_I2C_Class);
    1842:	0c84a783          	lw	a5,200(s1)
    1846:	8fc1                	or	a5,a5,s0
    1848:	0cf4a423          	sw	a5,200(s1)
c:\Users\Administrator\Documents\MyCode\0331\ch582m\my_ch582m\obj/../Code/my_interface.c:737
        i2c_delay();
    184c:	3729                	jal	1756 <i2c_delay>
c:\Users\Administrator\Documents\MyCode\0331\ch582m\my_ch582m\obj/../Code/my_interface.c:739
        while(I2C_GPIO_Read_SDA(input_I2C_Class)){
    184e:	0fb00793          	li	a5,251
    1852:	40001737          	lui	a4,0x40001
    1856:	0c472683          	lw	a3,196(a4) # 400010c4 <_eusrstack+0x1fffa8c4>
    185a:	00d976b3          	and	a3,s2,a3
    185e:	ea89                	bnez	a3,1870 <I2C_Driver_Wait_Ack+0x5e>
c:\Users\Administrator\Documents\MyCode\0331\ch582m\my_ch582m\obj/../Code/my_interface.c:747
        I2C_GPIO_Write_SCL_0(input_I2C_Class);
    1860:	0cc72783          	lw	a5,204(a4)
    1864:	8c5d                	or	s0,s0,a5
    1866:	0c872623          	sw	s0,204(a4)
c:\Users\Administrator\Documents\MyCode\0331\ch582m\my_ch582m\obj/../Code/my_interface.c:748
        i2c_delay();
    186a:	35f5                	jal	1756 <i2c_delay>
c:\Users\Administrator\Documents\MyCode\0331\ch582m\my_ch582m\obj/../Code/my_interface.c:750
        return true;
    186c:	4505                	li	a0,1
    186e:	a829                	j	1888 <I2C_Driver_Wait_Ack+0x76>
c:\Users\Administrator\Documents\MyCode\0331\ch582m\my_ch582m\obj/../Code/my_interface.c:741
            if(Retry > 250){
    1870:	17fd                	addi	a5,a5,-1
    1872:	0ff7f793          	andi	a5,a5,255
    1876:	f3e5                	bnez	a5,1856 <I2C_Driver_Wait_Ack+0x44>
c:\Users\Administrator\Documents\MyCode\0331\ch582m\my_ch582m\obj/../Code/my_interface.c:742
                I2C_Driver_Stop(input_I2C_Class);
    1878:	00811423          	sh	s0,8(sp)
    187c:	01211523          	sh	s2,10(sp)
    1880:	4522                	lw	a0,8(sp)
    1882:	45b2                	lw	a1,12(sp)
    1884:	3f2d                	jal	17be <I2C_Driver_Stop>
c:\Users\Administrator\Documents\MyCode\0331\ch582m\my_ch582m\obj/../Code/my_interface.c:743
                return false;
    1886:	4501                	li	a0,0
c:\Users\Administrator\Documents\MyCode\0331\ch582m\my_ch582m\obj/../Code/my_interface.c:751
    }
    1888:	40f2                	lw	ra,28(sp)
    188a:	4462                	lw	s0,24(sp)
    188c:	44d2                	lw	s1,20(sp)
    188e:	4942                	lw	s2,16(sp)
    1890:	6105                	addi	sp,sp,32
    1892:	8082                	ret

00001894 <I2C_Driver_Ack>:
I2C_Driver_Ack():
c:\Users\Administrator\Documents\MyCode\0331\ch582m\my_ch582m\obj/../Code/my_interface.c:753
    void I2C_Driver_Ack(I2C_Class_Struct input_I2C_Class){
    1894:	1101                	addi	sp,sp,-32
    1896:	ca26                	sw	s1,20(sp)
    1898:	c84a                	sw	s2,16(sp)
    189a:	c42a                	sw	a0,8(sp)
    189c:	c62e                	sw	a1,12(sp)
    189e:	01055493          	srli	s1,a0,0x10
I2C_GPIO_Mode_SDA():
c:\Users\Administrator\Documents\MyCode\0331\ch582m\my_ch582m\obj/../Code/my_interface.c:886
        GPIOB_ModeCfg(GPIO_Pin_12, 
    18a2:	458d                	li	a1,3
    18a4:	01051913          	slli	s2,a0,0x10
    18a8:	6505                	lui	a0,0x1
I2C_Driver_Ack():
c:\Users\Administrator\Documents\MyCode\0331\ch582m\my_ch582m\obj/../Code/my_interface.c:753
    void I2C_Driver_Ack(I2C_Class_Struct input_I2C_Class){
    18aa:	ce06                	sw	ra,28(sp)
    18ac:	cc22                	sw	s0,24(sp)
c:\Users\Administrator\Documents\MyCode\0331\ch582m\my_ch582m\obj/../Code/my_interface.c:761
        I2C_GPIO_Write_SDA_0(input_I2C_Class);
    18ae:	40001437          	lui	s0,0x40001
I2C_GPIO_Mode_SDA():
c:\Users\Administrator\Documents\MyCode\0331\ch582m\my_ch582m\obj/../Code/my_interface.c:886
        GPIOB_ModeCfg(GPIO_Pin_12, 
    18b2:	34f5                	jal	139e <GPIOB_ModeCfg>
I2C_Driver_Ack():
c:\Users\Administrator\Documents\MyCode\0331\ch582m\my_ch582m\obj/../Code/my_interface.c:761
        I2C_GPIO_Write_SDA_0(input_I2C_Class);
    18b4:	0cc42783          	lw	a5,204(s0) # 400010cc <_eusrstack+0x1fffa8cc>
    18b8:	01095913          	srli	s2,s2,0x10
    18bc:	8fc5                	or	a5,a5,s1
    18be:	0cf42623          	sw	a5,204(s0)
c:\Users\Administrator\Documents\MyCode\0331\ch582m\my_ch582m\obj/../Code/my_interface.c:762
        i2c_delay();
    18c2:	3d51                	jal	1756 <i2c_delay>
c:\Users\Administrator\Documents\MyCode\0331\ch582m\my_ch582m\obj/../Code/my_interface.c:763
        I2C_GPIO_Write_SCL_1(input_I2C_Class);
    18c4:	0c842783          	lw	a5,200(s0)
    18c8:	0127e7b3          	or	a5,a5,s2
    18cc:	0cf42423          	sw	a5,200(s0)
c:\Users\Administrator\Documents\MyCode\0331\ch582m\my_ch582m\obj/../Code/my_interface.c:764
        i2c_delay();
    18d0:	3559                	jal	1756 <i2c_delay>
c:\Users\Administrator\Documents\MyCode\0331\ch582m\my_ch582m\obj/../Code/my_interface.c:765
        I2C_GPIO_Write_SCL_0(input_I2C_Class);
    18d2:	0cc42783          	lw	a5,204(s0)
    18d6:	00f96933          	or	s2,s2,a5
    18da:	0d242623          	sw	s2,204(s0)
c:\Users\Administrator\Documents\MyCode\0331\ch582m\my_ch582m\obj/../Code/my_interface.c:766
        i2c_delay();
    18de:	3da5                	jal	1756 <i2c_delay>
c:\Users\Administrator\Documents\MyCode\0331\ch582m\my_ch582m\obj/../Code/my_interface.c:767
        I2C_GPIO_Write_SDA_1(input_I2C_Class);
    18e0:	0c842783          	lw	a5,200(s0)
c:\Users\Administrator\Documents\MyCode\0331\ch582m\my_ch582m\obj/../Code/my_interface.c:768
    }
    18e4:	40f2                	lw	ra,28(sp)
    18e6:	4942                	lw	s2,16(sp)
c:\Users\Administrator\Documents\MyCode\0331\ch582m\my_ch582m\obj/../Code/my_interface.c:767
        I2C_GPIO_Write_SDA_1(input_I2C_Class);
    18e8:	8cdd                	or	s1,s1,a5
    18ea:	0c942423          	sw	s1,200(s0)
c:\Users\Administrator\Documents\MyCode\0331\ch582m\my_ch582m\obj/../Code/my_interface.c:768
    }
    18ee:	4462                	lw	s0,24(sp)
    18f0:	44d2                	lw	s1,20(sp)
    18f2:	6105                	addi	sp,sp,32
    18f4:	8082                	ret

000018f6 <I2C_Driver_NAck>:
I2C_Driver_NAck():
c:\Users\Administrator\Documents\MyCode\0331\ch582m\my_ch582m\obj/../Code/my_interface.c:770
    void I2C_Driver_NAck(I2C_Class_Struct input_I2C_Class){
    18f6:	1101                	addi	sp,sp,-32
    18f8:	ca26                	sw	s1,20(sp)
    18fa:	c84a                	sw	s2,16(sp)
    18fc:	c42a                	sw	a0,8(sp)
    18fe:	c62e                	sw	a1,12(sp)
    1900:	01051493          	slli	s1,a0,0x10
I2C_GPIO_Mode_SDA():
c:\Users\Administrator\Documents\MyCode\0331\ch582m\my_ch582m\obj/../Code/my_interface.c:886
        GPIOB_ModeCfg(GPIO_Pin_12, 
    1904:	458d                	li	a1,3
    1906:	01055913          	srli	s2,a0,0x10
    190a:	6505                	lui	a0,0x1
I2C_Driver_NAck():
c:\Users\Administrator\Documents\MyCode\0331\ch582m\my_ch582m\obj/../Code/my_interface.c:770
    void I2C_Driver_NAck(I2C_Class_Struct input_I2C_Class){
    190c:	ce06                	sw	ra,28(sp)
    190e:	cc22                	sw	s0,24(sp)
c:\Users\Administrator\Documents\MyCode\0331\ch582m\my_ch582m\obj/../Code/my_interface.c:778
        I2C_GPIO_Write_SDA_1(input_I2C_Class);
    1910:	40001437          	lui	s0,0x40001
I2C_GPIO_Mode_SDA():
c:\Users\Administrator\Documents\MyCode\0331\ch582m\my_ch582m\obj/../Code/my_interface.c:886
        GPIOB_ModeCfg(GPIO_Pin_12, 
    1914:	3469                	jal	139e <GPIOB_ModeCfg>
I2C_Driver_NAck():
c:\Users\Administrator\Documents\MyCode\0331\ch582m\my_ch582m\obj/../Code/my_interface.c:778
        I2C_GPIO_Write_SDA_1(input_I2C_Class);
    1916:	0c842783          	lw	a5,200(s0) # 400010c8 <_eusrstack+0x1fffa8c8>
    191a:	80c1                	srli	s1,s1,0x10
    191c:	00f96933          	or	s2,s2,a5
    1920:	0d242423          	sw	s2,200(s0)
c:\Users\Administrator\Documents\MyCode\0331\ch582m\my_ch582m\obj/../Code/my_interface.c:779
        i2c_delay();
    1924:	3d0d                	jal	1756 <i2c_delay>
c:\Users\Administrator\Documents\MyCode\0331\ch582m\my_ch582m\obj/../Code/my_interface.c:780
        I2C_GPIO_Write_SCL_1(input_I2C_Class);
    1926:	0c842783          	lw	a5,200(s0)
    192a:	8fc5                	or	a5,a5,s1
    192c:	0cf42423          	sw	a5,200(s0)
c:\Users\Administrator\Documents\MyCode\0331\ch582m\my_ch582m\obj/../Code/my_interface.c:781
        i2c_delay();
    1930:	351d                	jal	1756 <i2c_delay>
c:\Users\Administrator\Documents\MyCode\0331\ch582m\my_ch582m\obj/../Code/my_interface.c:782
        I2C_GPIO_Write_SCL_0(input_I2C_Class);
    1932:	0cc42783          	lw	a5,204(s0)
c:\Users\Administrator\Documents\MyCode\0331\ch582m\my_ch582m\obj/../Code/my_interface.c:784
    }
    1936:	40f2                	lw	ra,28(sp)
    1938:	4942                	lw	s2,16(sp)
c:\Users\Administrator\Documents\MyCode\0331\ch582m\my_ch582m\obj/../Code/my_interface.c:782
        I2C_GPIO_Write_SCL_0(input_I2C_Class);
    193a:	8cdd                	or	s1,s1,a5
    193c:	0c942623          	sw	s1,204(s0)
c:\Users\Administrator\Documents\MyCode\0331\ch582m\my_ch582m\obj/../Code/my_interface.c:784
    }
    1940:	4462                	lw	s0,24(sp)
    1942:	44d2                	lw	s1,20(sp)
    1944:	6105                	addi	sp,sp,32
c:\Users\Administrator\Documents\MyCode\0331\ch582m\my_ch582m\obj/../Code/my_interface.c:783
        i2c_delay();
    1946:	bd01                	j	1756 <i2c_delay>

00001948 <I2C_Driver_Write>:
I2C_Driver_Write():
c:\Users\Administrator\Documents\MyCode\0331\ch582m\my_ch582m\obj/../Code/my_interface.c:788
    {
    1948:	7179                	addi	sp,sp,-48
    194a:	ce4e                	sw	s3,28(sp)
    194c:	cc52                	sw	s4,24(sp)
    194e:	c42a                	sw	a0,8(sp)
    1950:	c62e                	sw	a1,12(sp)
    1952:	01051a13          	slli	s4,a0,0x10
    1956:	01055993          	srli	s3,a0,0x10
I2C_GPIO_Mode_SDA():
c:\Users\Administrator\Documents\MyCode\0331\ch582m\my_ch582m\obj/../Code/my_interface.c:886
        GPIOB_ModeCfg(GPIO_Pin_12, 
    195a:	458d                	li	a1,3
    195c:	6505                	lui	a0,0x1
I2C_Driver_Write():
c:\Users\Administrator\Documents\MyCode\0331\ch582m\my_ch582m\obj/../Code/my_interface.c:788
    {
    195e:	d422                	sw	s0,40(sp)
    1960:	d226                	sw	s1,36(sp)
    1962:	d04a                	sw	s2,32(sp)
    1964:	d606                	sw	ra,44(sp)
    1966:	ca56                	sw	s5,20(sp)
    1968:	8932                	mv	s2,a2
    196a:	010a5a13          	srli	s4,s4,0x10
I2C_GPIO_Mode_SDA():
c:\Users\Administrator\Documents\MyCode\0331\ch582m\my_ch582m\obj/../Code/my_interface.c:886
        GPIOB_ModeCfg(GPIO_Pin_12, 
    196e:	3c05                	jal	139e <GPIOB_ModeCfg>
    1970:	44a1                	li	s1,8
I2C_Driver_Write():
c:\Users\Administrator\Documents\MyCode\0331\ch582m\my_ch582m\obj/../Code/my_interface.c:798
            I2C_GPIO_Write_SCL_0(input_I2C_Class);
    1972:	40001437          	lui	s0,0x40001
    1976:	0cc42783          	lw	a5,204(s0) # 400010cc <_eusrstack+0x1fffa8cc>
    197a:	0147e7b3          	or	a5,a5,s4
    197e:	0cf42623          	sw	a5,204(s0)
c:\Users\Administrator\Documents\MyCode\0331\ch582m\my_ch582m\obj/../Code/my_interface.c:799
            i2c_delay();
    1982:	3bd1                	jal	1756 <i2c_delay>
c:\Users\Administrator\Documents\MyCode\0331\ch582m\my_ch582m\obj/../Code/my_interface.c:802
                if(input_Data & 0x80){
    1984:	01891793          	slli	a5,s2,0x18
    1988:	87e1                	srai	a5,a5,0x18
    198a:	0407dc63          	bgez	a5,19e2 <I2C_Driver_Write+0x9a>
c:\Users\Administrator\Documents\MyCode\0331\ch582m\my_ch582m\obj/../Code/my_interface.c:803
                    I2C_GPIO_Write_SDA_1(input_I2C_Class);
    198e:	0c842783          	lw	a5,200(s0)
    1992:	0137e7b3          	or	a5,a5,s3
    1996:	0cf42423          	sw	a5,200(s0)
c:\Users\Administrator\Documents\MyCode\0331\ch582m\my_ch582m\obj/../Code/my_interface.c:811 (discriminator 2)
            i2c_delay();
    199a:	3b75                	jal	1756 <i2c_delay>
c:\Users\Administrator\Documents\MyCode\0331\ch582m\my_ch582m\obj/../Code/my_interface.c:812 (discriminator 2)
            I2C_GPIO_Write_SCL_1(input_I2C_Class);
    199c:	0c842783          	lw	a5,200(s0)
    19a0:	14fd                	addi	s1,s1,-1
c:\Users\Administrator\Documents\MyCode\0331\ch582m\my_ch582m\obj/../Code/my_interface.c:815 (discriminator 2)
            input_Data <<= 1;
    19a2:	0906                	slli	s2,s2,0x1
c:\Users\Administrator\Documents\MyCode\0331\ch582m\my_ch582m\obj/../Code/my_interface.c:812 (discriminator 2)
            I2C_GPIO_Write_SCL_1(input_I2C_Class);
    19a4:	00fa67b3          	or	a5,s4,a5
    19a8:	0cf42423          	sw	a5,200(s0)
c:\Users\Administrator\Documents\MyCode\0331\ch582m\my_ch582m\obj/../Code/my_interface.c:813 (discriminator 2)
            i2c_delay();
    19ac:	336d                	jal	1756 <i2c_delay>
c:\Users\Administrator\Documents\MyCode\0331\ch582m\my_ch582m\obj/../Code/my_interface.c:814 (discriminator 2)
            I2C_GPIO_Write_SCL_0(input_I2C_Class);
    19ae:	0cc42783          	lw	a5,204(s0)
    19b2:	0ff4f493          	andi	s1,s1,255
c:\Users\Administrator\Documents\MyCode\0331\ch582m\my_ch582m\obj/../Code/my_interface.c:815 (discriminator 2)
            input_Data <<= 1;
    19b6:	0ff97913          	andi	s2,s2,255
c:\Users\Administrator\Documents\MyCode\0331\ch582m\my_ch582m\obj/../Code/my_interface.c:814 (discriminator 2)
            I2C_GPIO_Write_SCL_0(input_I2C_Class);
    19ba:	00fa67b3          	or	a5,s4,a5
    19be:	0cf42623          	sw	a5,204(s0)
c:\Users\Administrator\Documents\MyCode\0331\ch582m\my_ch582m\obj/../Code/my_interface.c:797 (discriminator 2)
        for(i = 0; i < 8; i ++){
    19c2:	f8d5                	bnez	s1,1976 <I2C_Driver_Write+0x2e>
c:\Users\Administrator\Documents\MyCode\0331\ch582m\my_ch582m\obj/../Code/my_interface.c:818
        I2C_GPIO_Write_SDA_1(input_I2C_Class);
    19c4:	0c842503          	lw	a0,200(s0)
c:\Users\Administrator\Documents\MyCode\0331\ch582m\my_ch582m\obj/../Code/my_interface.c:819
    }
    19c8:	50b2                	lw	ra,44(sp)
    19ca:	5492                	lw	s1,36(sp)
c:\Users\Administrator\Documents\MyCode\0331\ch582m\my_ch582m\obj/../Code/my_interface.c:818
        I2C_GPIO_Write_SDA_1(input_I2C_Class);
    19cc:	01356533          	or	a0,a0,s3
    19d0:	0ca42423          	sw	a0,200(s0)
c:\Users\Administrator\Documents\MyCode\0331\ch582m\my_ch582m\obj/../Code/my_interface.c:819
    }
    19d4:	5422                	lw	s0,40(sp)
    19d6:	5902                	lw	s2,32(sp)
    19d8:	49f2                	lw	s3,28(sp)
    19da:	4a62                	lw	s4,24(sp)
    19dc:	4ad2                	lw	s5,20(sp)
    19de:	6145                	addi	sp,sp,48
    19e0:	8082                	ret
c:\Users\Administrator\Documents\MyCode\0331\ch582m\my_ch582m\obj/../Code/my_interface.c:805
                    I2C_GPIO_Write_SDA_0(input_I2C_Class);
    19e2:	0cc42783          	lw	a5,204(s0)
    19e6:	0137e7b3          	or	a5,a5,s3
    19ea:	0cf42623          	sw	a5,204(s0)
    19ee:	b775                	j	199a <I2C_Driver_Write+0x52>

000019f0 <I2C_APP_Write_Single_Byte>:
I2C_APP_Write_Single_Byte():
c:\Users\Administrator\Documents\MyCode\0331\ch582m\my_ch582m\obj/../Code/my_interface.c:645
    {
    19f0:	7179                	addi	sp,sp,-48
    19f2:	d606                	sw	ra,44(sp)
    19f4:	c63a                	sw	a4,12(sp)
    19f6:	c836                	sw	a3,16(sp)
    19f8:	cc2a                	sw	a0,24(sp)
    19fa:	ce2e                	sw	a1,28(sp)
    19fc:	ca32                	sw	a2,20(sp)
c:\Users\Administrator\Documents\MyCode\0331\ch582m\my_ch582m\obj/../Code/my_interface.c:646
        I2C_Driver_Start(input_I2C_Class);
    19fe:	338d                	jal	1760 <I2C_Driver_Start>
c:\Users\Administrator\Documents\MyCode\0331\ch582m\my_ch582m\obj/../Code/my_interface.c:647
        I2C_Driver_Write(	input_I2C_Class, 
    1a00:	4652                	lw	a2,20(sp)
    1a02:	4562                	lw	a0,24(sp)
    1a04:	45f2                	lw	a1,28(sp)
    1a06:	3789                	jal	1948 <I2C_Driver_Write>
c:\Users\Administrator\Documents\MyCode\0331\ch582m\my_ch582m\obj/../Code/my_interface.c:649
        I2C_Driver_Wait_Ack(input_I2C_Class);
    1a08:	45f2                	lw	a1,28(sp)
    1a0a:	4562                	lw	a0,24(sp)
    1a0c:	3519                	jal	1812 <I2C_Driver_Wait_Ack>
c:\Users\Administrator\Documents\MyCode\0331\ch582m\my_ch582m\obj/../Code/my_interface.c:650
        I2C_Driver_Write(	input_I2C_Class, 
    1a0e:	46c2                	lw	a3,16(sp)
    1a10:	4562                	lw	a0,24(sp)
    1a12:	45f2                	lw	a1,28(sp)
    1a14:	8636                	mv	a2,a3
    1a16:	3f0d                	jal	1948 <I2C_Driver_Write>
c:\Users\Administrator\Documents\MyCode\0331\ch582m\my_ch582m\obj/../Code/my_interface.c:652
        I2C_Driver_Wait_Ack(input_I2C_Class);
    1a18:	45f2                	lw	a1,28(sp)
    1a1a:	4562                	lw	a0,24(sp)
    1a1c:	3bdd                	jal	1812 <I2C_Driver_Wait_Ack>
c:\Users\Administrator\Documents\MyCode\0331\ch582m\my_ch582m\obj/../Code/my_interface.c:653
        I2C_Driver_Write(	input_I2C_Class, 
    1a1e:	4732                	lw	a4,12(sp)
    1a20:	4562                	lw	a0,24(sp)
    1a22:	45f2                	lw	a1,28(sp)
    1a24:	863a                	mv	a2,a4
    1a26:	370d                	jal	1948 <I2C_Driver_Write>
c:\Users\Administrator\Documents\MyCode\0331\ch582m\my_ch582m\obj/../Code/my_interface.c:655
        I2C_Driver_Wait_Ack(input_I2C_Class);
    1a28:	45f2                	lw	a1,28(sp)
    1a2a:	4562                	lw	a0,24(sp)
    1a2c:	33dd                	jal	1812 <I2C_Driver_Wait_Ack>
c:\Users\Administrator\Documents\MyCode\0331\ch582m\my_ch582m\obj/../Code/my_interface.c:656
        I2C_Driver_Stop(input_I2C_Class);
    1a2e:	4562                	lw	a0,24(sp)
    1a30:	45f2                	lw	a1,28(sp)
c:\Users\Administrator\Documents\MyCode\0331\ch582m\my_ch582m\obj/../Code/my_interface.c:657
    }
    1a32:	50b2                	lw	ra,44(sp)
    1a34:	6145                	addi	sp,sp,48
c:\Users\Administrator\Documents\MyCode\0331\ch582m\my_ch582m\obj/../Code/my_interface.c:656
        I2C_Driver_Stop(input_I2C_Class);
    1a36:	b361                	j	17be <I2C_Driver_Stop>

00001a38 <I2C_1_Write>:
I2C_1_Write():
c:\Users\Administrator\Documents\MyCode\0331\ch582m\my_ch582m\obj/../Code/my_interface.c:619
        I2C_APP_Write_Single_Byte(I2C_Class_1, DeviceAddress, RegisterAddress, input_Data);
    1a38:	80418793          	addi	a5,gp,-2044 # 200010e4 <I2C_Class_1>
    1a3c:	8732                	mv	a4,a2
    1a3e:	86ae                	mv	a3,a1
    1a40:	862a                	mv	a2,a0
    1a42:	43cc                	lw	a1,4(a5)
    1a44:	4388                	lw	a0,0(a5)
    1a46:	b76d                	j	19f0 <I2C_APP_Write_Single_Byte>

00001a48 <I2C_Driver_Read>:
I2C_Driver_Read():
c:\Users\Administrator\Documents\MyCode\0331\ch582m\my_ch582m\obj/../Code/my_interface.c:823
    {
    1a48:	7179                	addi	sp,sp,-48
    1a4a:	ce4e                	sw	s3,28(sp)
    1a4c:	cc52                	sw	s4,24(sp)
    1a4e:	c42a                	sw	a0,8(sp)
    1a50:	c62e                	sw	a1,12(sp)
    1a52:	01051993          	slli	s3,a0,0x10
    1a56:	01055a13          	srli	s4,a0,0x10
I2C_GPIO_Mode_SDA():
c:\Users\Administrator\Documents\MyCode\0331\ch582m\my_ch582m\obj/../Code/my_interface.c:886
        GPIOB_ModeCfg(GPIO_Pin_12, 
    1a5a:	4585                	li	a1,1
    1a5c:	6505                	lui	a0,0x1
I2C_Driver_Read():
c:\Users\Administrator\Documents\MyCode\0331\ch582m\my_ch582m\obj/../Code/my_interface.c:823
    {
    1a5e:	d422                	sw	s0,40(sp)
    1a60:	d226                	sw	s1,36(sp)
    1a62:	d04a                	sw	s2,32(sp)
    1a64:	ca56                	sw	s5,20(sp)
    1a66:	d606                	sw	ra,44(sp)
    1a68:	8ab2                	mv	s5,a2
    1a6a:	0109d993          	srli	s3,s3,0x10
I2C_GPIO_Mode_SDA():
c:\Users\Administrator\Documents\MyCode\0331\ch582m\my_ch582m\obj/../Code/my_interface.c:886
        GPIOB_ModeCfg(GPIO_Pin_12, 
    1a6e:	931ff0ef          	jal	ra,139e <GPIOB_ModeCfg>
    1a72:	44a1                	li	s1,8
I2C_Driver_Read():
c:\Users\Administrator\Documents\MyCode\0331\ch582m\my_ch582m\obj/../Code/my_interface.c:824
        uint8_t i, output_Data = 0;
    1a74:	4401                	li	s0,0
c:\Users\Administrator\Documents\MyCode\0331\ch582m\my_ch582m\obj/../Code/my_interface.c:834
            I2C_GPIO_Write_SCL_1(input_I2C_Class);
    1a76:	40001937          	lui	s2,0x40001
    1a7a:	0c892783          	lw	a5,200(s2) # 400010c8 <_eusrstack+0x1fffa8c8>
c:\Users\Administrator\Documents\MyCode\0331\ch582m\my_ch582m\obj/../Code/my_interface.c:833
            output_Data <<= 1;
    1a7e:	0406                	slli	s0,s0,0x1
    1a80:	0ff47413          	andi	s0,s0,255
c:\Users\Administrator\Documents\MyCode\0331\ch582m\my_ch582m\obj/../Code/my_interface.c:834
            I2C_GPIO_Write_SCL_1(input_I2C_Class);
    1a84:	0137e7b3          	or	a5,a5,s3
    1a88:	0cf92423          	sw	a5,200(s2)
c:\Users\Administrator\Documents\MyCode\0331\ch582m\my_ch582m\obj/../Code/my_interface.c:835
            i2c_delay();
    1a8c:	31e9                	jal	1756 <i2c_delay>
c:\Users\Administrator\Documents\MyCode\0331\ch582m\my_ch582m\obj/../Code/my_interface.c:837
            if(I2C_GPIO_Read_SDA(input_I2C_Class)){
    1a8e:	0c492783          	lw	a5,196(s2)
    1a92:	00fa77b3          	and	a5,s4,a5
    1a96:	c781                	beqz	a5,1a9e <I2C_Driver_Read+0x56>
c:\Users\Administrator\Documents\MyCode\0331\ch582m\my_ch582m\obj/../Code/my_interface.c:838
                output_Data++;
    1a98:	0405                	addi	s0,s0,1
    1a9a:	0ff47413          	andi	s0,s0,255
c:\Users\Administrator\Documents\MyCode\0331\ch582m\my_ch582m\obj/../Code/my_interface.c:841 (discriminator 2)
            I2C_GPIO_Write_SCL_0(input_I2C_Class);
    1a9e:	0cc92783          	lw	a5,204(s2)
    1aa2:	14fd                	addi	s1,s1,-1
    1aa4:	0ff4f493          	andi	s1,s1,255
    1aa8:	00f9e7b3          	or	a5,s3,a5
    1aac:	0cf92623          	sw	a5,204(s2)
c:\Users\Administrator\Documents\MyCode\0331\ch582m\my_ch582m\obj/../Code/my_interface.c:842 (discriminator 2)
            i2c_delay();
    1ab0:	315d                	jal	1756 <i2c_delay>
c:\Users\Administrator\Documents\MyCode\0331\ch582m\my_ch582m\obj/../Code/my_interface.c:832 (discriminator 2)
        for(i = 0; i < 8; i++){
    1ab2:	f4e1                	bnez	s1,1a7a <I2C_Driver_Read+0x32>
c:\Users\Administrator\Documents\MyCode\0331\ch582m\my_ch582m\obj/../Code/my_interface.c:846
            I2C_Driver_Ack(input_I2C_Class);
    1ab4:	01311423          	sh	s3,8(sp)
    1ab8:	01411523          	sh	s4,10(sp)
c:\Users\Administrator\Documents\MyCode\0331\ch582m\my_ch582m\obj/../Code/my_interface.c:845
        if(enum_ACK == Ack){
    1abc:	4785                	li	a5,1
c:\Users\Administrator\Documents\MyCode\0331\ch582m\my_ch582m\obj/../Code/my_interface.c:846
            I2C_Driver_Ack(input_I2C_Class);
    1abe:	4522                	lw	a0,8(sp)
    1ac0:	45b2                	lw	a1,12(sp)
c:\Users\Administrator\Documents\MyCode\0331\ch582m\my_ch582m\obj/../Code/my_interface.c:845
        if(enum_ACK == Ack){
    1ac2:	00fa9d63          	bne	s5,a5,1adc <I2C_Driver_Read+0x94>
c:\Users\Administrator\Documents\MyCode\0331\ch582m\my_ch582m\obj/../Code/my_interface.c:846
            I2C_Driver_Ack(input_I2C_Class);
    1ac6:	33f9                	jal	1894 <I2C_Driver_Ack>
c:\Users\Administrator\Documents\MyCode\0331\ch582m\my_ch582m\obj/../Code/my_interface.c:852
    }
    1ac8:	8522                	mv	a0,s0
    1aca:	50b2                	lw	ra,44(sp)
    1acc:	5422                	lw	s0,40(sp)
    1ace:	5492                	lw	s1,36(sp)
    1ad0:	5902                	lw	s2,32(sp)
    1ad2:	49f2                	lw	s3,28(sp)
    1ad4:	4a62                	lw	s4,24(sp)
    1ad6:	4ad2                	lw	s5,20(sp)
    1ad8:	6145                	addi	sp,sp,48
    1ada:	8082                	ret
c:\Users\Administrator\Documents\MyCode\0331\ch582m\my_ch582m\obj/../Code/my_interface.c:848
            I2C_Driver_NAck(input_I2C_Class);
    1adc:	3d29                	jal	18f6 <I2C_Driver_NAck>
    1ade:	b7ed                	j	1ac8 <I2C_Driver_Read+0x80>

00001ae0 <I2C_APP_Read_Single_Byte>:
I2C_APP_Read_Single_Byte():
c:\Users\Administrator\Documents\MyCode\0331\ch582m\my_ch582m\obj/../Code/my_interface.c:662
    {
    1ae0:	1101                	addi	sp,sp,-32
    1ae2:	ce06                	sw	ra,28(sp)
    1ae4:	cc22                	sw	s0,24(sp)
    1ae6:	c236                	sw	a3,4(sp)
    1ae8:	8432                	mv	s0,a2
    1aea:	c42a                	sw	a0,8(sp)
    1aec:	c62e                	sw	a1,12(sp)
c:\Users\Administrator\Documents\MyCode\0331\ch582m\my_ch582m\obj/../Code/my_interface.c:665
        I2C_Driver_Start(input_I2C_Class);
    1aee:	398d                	jal	1760 <I2C_Driver_Start>
c:\Users\Administrator\Documents\MyCode\0331\ch582m\my_ch582m\obj/../Code/my_interface.c:666
        I2C_Driver_Write(	input_I2C_Class, 
    1af0:	4522                	lw	a0,8(sp)
    1af2:	45b2                	lw	a1,12(sp)
    1af4:	8622                	mv	a2,s0
    1af6:	3d89                	jal	1948 <I2C_Driver_Write>
c:\Users\Administrator\Documents\MyCode\0331\ch582m\my_ch582m\obj/../Code/my_interface.c:668
        I2C_Driver_Wait_Ack(input_I2C_Class);
    1af8:	45b2                	lw	a1,12(sp)
    1afa:	4522                	lw	a0,8(sp)
    1afc:	3b19                	jal	1812 <I2C_Driver_Wait_Ack>
c:\Users\Administrator\Documents\MyCode\0331\ch582m\my_ch582m\obj/../Code/my_interface.c:669
        I2C_Driver_Write(	input_I2C_Class, 
    1afe:	4692                	lw	a3,4(sp)
    1b00:	4522                	lw	a0,8(sp)
    1b02:	45b2                	lw	a1,12(sp)
    1b04:	8636                	mv	a2,a3
    1b06:	3589                	jal	1948 <I2C_Driver_Write>
c:\Users\Administrator\Documents\MyCode\0331\ch582m\my_ch582m\obj/../Code/my_interface.c:671
        I2C_Driver_Wait_Ack(input_I2C_Class);
    1b08:	45b2                	lw	a1,12(sp)
    1b0a:	4522                	lw	a0,8(sp)
    1b0c:	3319                	jal	1812 <I2C_Driver_Wait_Ack>
c:\Users\Administrator\Documents\MyCode\0331\ch582m\my_ch582m\obj/../Code/my_interface.c:672
        I2C_Driver_Start(input_I2C_Class);
    1b0e:	4522                	lw	a0,8(sp)
    1b10:	45b2                	lw	a1,12(sp)
    1b12:	31b9                	jal	1760 <I2C_Driver_Start>
c:\Users\Administrator\Documents\MyCode\0331\ch582m\my_ch582m\obj/../Code/my_interface.c:673
        I2C_Driver_Write(	input_I2C_Class, 
    1b14:	4522                	lw	a0,8(sp)
    1b16:	45b2                	lw	a1,12(sp)
    1b18:	00146613          	ori	a2,s0,1
    1b1c:	3535                	jal	1948 <I2C_Driver_Write>
c:\Users\Administrator\Documents\MyCode\0331\ch582m\my_ch582m\obj/../Code/my_interface.c:675
        I2C_Driver_Wait_Ack(input_I2C_Class);
    1b1e:	45b2                	lw	a1,12(sp)
    1b20:	4522                	lw	a0,8(sp)
    1b22:	39c5                	jal	1812 <I2C_Driver_Wait_Ack>
c:\Users\Administrator\Documents\MyCode\0331\ch582m\my_ch582m\obj/../Code/my_interface.c:676
        output_Data = I2C_Driver_Read(	input_I2C_Class, 
    1b24:	45b2                	lw	a1,12(sp)
    1b26:	4522                	lw	a0,8(sp)
    1b28:	4601                	li	a2,0
    1b2a:	3f39                	jal	1a48 <I2C_Driver_Read>
    1b2c:	842a                	mv	s0,a0
c:\Users\Administrator\Documents\MyCode\0331\ch582m\my_ch582m\obj/../Code/my_interface.c:678
        I2C_Driver_Stop(input_I2C_Class);
    1b2e:	45b2                	lw	a1,12(sp)
    1b30:	4522                	lw	a0,8(sp)
    1b32:	3171                	jal	17be <I2C_Driver_Stop>
c:\Users\Administrator\Documents\MyCode\0331\ch582m\my_ch582m\obj/../Code/my_interface.c:681
    }
    1b34:	8522                	mv	a0,s0
    1b36:	40f2                	lw	ra,28(sp)
    1b38:	4462                	lw	s0,24(sp)
    1b3a:	6105                	addi	sp,sp,32
    1b3c:	8082                	ret

00001b3e <I2C_1_Read>:
I2C_1_Read():
c:\Users\Administrator\Documents\MyCode\0331\ch582m\my_ch582m\obj/../Code/my_interface.c:616
        return I2C_APP_Read_Single_Byte(I2C_Class_1, DeviceAddress, RegisterAddress);
    1b3e:	80418793          	addi	a5,gp,-2044 # 200010e4 <I2C_Class_1>
    1b42:	86ae                	mv	a3,a1
    1b44:	862a                	mv	a2,a0
    1b46:	43cc                	lw	a1,4(a5)
    1b48:	4388                	lw	a0,0(a5)
    1b4a:	bf59                	j	1ae0 <I2C_APP_Read_Single_Byte>

00001b4c <QMC5883_Init>:
QMC5883_Init():
c:\Users\Administrator\Documents\MyCode\0331\ch582m\my_ch582m\obj/../Code/my_module.c:22
        // i2c_write_to(DeviceAddress, &input_Data, sizeof(input_Data), true, true);
        I2C_1_Write(DeviceAddress, RegisterAddress, input_Data);
    }


    void QMC5883_Init(void){
    1b4c:	1141                	addi	sp,sp,-16
c:\Users\Administrator\Documents\MyCode\0331\ch582m\my_ch582m\obj/../Code/my_module.c:23
        i2c_app_init(MAG_ADDRESS);  // I2C_APP_Init();
    1b4e:	4569                	li	a0,26
c:\Users\Administrator\Documents\MyCode\0331\ch582m\my_ch582m\obj/../Code/my_module.c:22
    void QMC5883_Init(void){
    1b50:	c606                	sw	ra,12(sp)
c:\Users\Administrator\Documents\MyCode\0331\ch582m\my_ch582m\obj/../Code/my_module.c:23
        i2c_app_init(MAG_ADDRESS);  // I2C_APP_Init();
    1b52:	36c9                	jal	1714 <i2c_app_init>
I2C_Write_QMC5883():
c:\Users\Administrator\Documents\MyCode\0331\ch582m\my_ch582m\obj/../Code/my_module.c:18
        I2C_1_Write(DeviceAddress, RegisterAddress, input_Data);
    1b54:	04000613          	li	a2,64
    1b58:	02000593          	li	a1,32
    1b5c:	4569                	li	a0,26
    1b5e:	3de9                	jal	1a38 <I2C_1_Write>
    1b60:	4569                	li	a0,26
    1b62:	4605                	li	a2,1
    1b64:	02100593          	li	a1,33
    1b68:	3dc1                	jal	1a38 <I2C_1_Write>
QMC5883_Init():
c:\Users\Administrator\Documents\MyCode\0331\ch582m\my_ch582m\obj/../Code/my_module.c:33
        // I2C_Write_QMC5883(MAG_ADDRESS,  0x0B,  0x01);
        I2C_Write_QMC5883(MAG_ADDRESS,  0x20,  0x40);
        I2C_Write_QMC5883(MAG_ADDRESS,  0x21,  0x01);

        DelayMs(10);
    }
    1b6a:	40b2                	lw	ra,12(sp)
c:\Users\Administrator\Documents\MyCode\0331\ch582m\my_ch582m\obj/../Code/my_module.c:32
        DelayMs(10);
    1b6c:	4529                	li	a0,10
c:\Users\Administrator\Documents\MyCode\0331\ch582m\my_ch582m\obj/../Code/my_module.c:33
    }
    1b6e:	0141                	addi	sp,sp,16
c:\Users\Administrator\Documents\MyCode\0331\ch582m\my_ch582m\obj/../Code/my_module.c:32
        DelayMs(10);
    1b70:	1fffe317          	auipc	t1,0x1fffe
    1b74:	7ae30067          	jr	1966(t1) # 2000031e <mDelaymS>

00001b78 <QMC5883_Read_Mag>:
QMC5883_Read_Mag():
c:\Users\Administrator\Documents\MyCode\0331\ch582m\my_ch582m\obj/../Code/my_module.c:39

    void QMC5883_Update_Data(void){
        QMC5883_Read_Mag();
    }

    void QMC5883_Read_Mag(void){
    1b78:	1141                	addi	sp,sp,-16
I2C_Read_QMC5883():
c:\Users\Administrator\Documents\MyCode\0331\ch582m\my_ch582m\obj/../Code/my_module.c:14
        return I2C_1_Read(DeviceAddress, RegisterAddress);
    1b7a:	4581                	li	a1,0
    1b7c:	4569                	li	a0,26
QMC5883_Read_Mag():
c:\Users\Administrator\Documents\MyCode\0331\ch582m\my_ch582m\obj/../Code/my_module.c:39
    void QMC5883_Read_Mag(void){
    1b7e:	c606                	sw	ra,12(sp)
    1b80:	c422                	sw	s0,8(sp)
c:\Users\Administrator\Documents\MyCode\0331\ch582m\my_ch582m\obj/../Code/my_module.c:41

        temp_qmc5883[0] = I2C_Read_QMC5883(MAG_ADDRESS, MAG_XOUT_L);
    1b82:	82c18413          	addi	s0,gp,-2004 # 2000110c <temp_qmc5883>
I2C_Read_QMC5883():
c:\Users\Administrator\Documents\MyCode\0331\ch582m\my_ch582m\obj/../Code/my_module.c:14
        return I2C_1_Read(DeviceAddress, RegisterAddress);
    1b86:	3f65                	jal	1b3e <I2C_1_Read>
QMC5883_Read_Mag():
c:\Users\Administrator\Documents\MyCode\0331\ch582m\my_ch582m\obj/../Code/my_module.c:41
        temp_qmc5883[0] = I2C_Read_QMC5883(MAG_ADDRESS, MAG_XOUT_L);
    1b88:	00a40023          	sb	a0,0(s0)
I2C_Read_QMC5883():
c:\Users\Administrator\Documents\MyCode\0331\ch582m\my_ch582m\obj/../Code/my_module.c:14
        return I2C_1_Read(DeviceAddress, RegisterAddress);
    1b8c:	4585                	li	a1,1
    1b8e:	4569                	li	a0,26
    1b90:	377d                	jal	1b3e <I2C_1_Read>
QMC5883_Read_Mag():
c:\Users\Administrator\Documents\MyCode\0331\ch582m\my_ch582m\obj/../Code/my_module.c:42
        temp_qmc5883[1] = I2C_Read_QMC5883(MAG_ADDRESS, MAG_XOUT_H);
    1b92:	00a400a3          	sb	a0,1(s0)
I2C_Read_QMC5883():
c:\Users\Administrator\Documents\MyCode\0331\ch582m\my_ch582m\obj/../Code/my_module.c:14
        return I2C_1_Read(DeviceAddress, RegisterAddress);
    1b96:	4589                	li	a1,2
    1b98:	4569                	li	a0,26
    1b9a:	3755                	jal	1b3e <I2C_1_Read>
QMC5883_Read_Mag():
c:\Users\Administrator\Documents\MyCode\0331\ch582m\my_ch582m\obj/../Code/my_module.c:44
    
        temp_qmc5883[2] = I2C_Read_QMC5883(MAG_ADDRESS, MAG_YOUT_L);
    1b9c:	00a40123          	sb	a0,2(s0)
I2C_Read_QMC5883():
c:\Users\Administrator\Documents\MyCode\0331\ch582m\my_ch582m\obj/../Code/my_module.c:14
        return I2C_1_Read(DeviceAddress, RegisterAddress);
    1ba0:	458d                	li	a1,3
    1ba2:	4569                	li	a0,26
    1ba4:	3f69                	jal	1b3e <I2C_1_Read>
QMC5883_Read_Mag():
c:\Users\Administrator\Documents\MyCode\0331\ch582m\my_ch582m\obj/../Code/my_module.c:45
        temp_qmc5883[3] = I2C_Read_QMC5883(MAG_ADDRESS, MAG_YOUT_H);
    1ba6:	00a401a3          	sb	a0,3(s0)
I2C_Read_QMC5883():
c:\Users\Administrator\Documents\MyCode\0331\ch582m\my_ch582m\obj/../Code/my_module.c:14
        return I2C_1_Read(DeviceAddress, RegisterAddress);
    1baa:	4591                	li	a1,4
    1bac:	4569                	li	a0,26
    1bae:	3f41                	jal	1b3e <I2C_1_Read>
QMC5883_Read_Mag():
c:\Users\Administrator\Documents\MyCode\0331\ch582m\my_ch582m\obj/../Code/my_module.c:47
    
        temp_qmc5883[4] = I2C_Read_QMC5883(MAG_ADDRESS, MAG_ZOUT_L);
    1bb0:	00a40223          	sb	a0,4(s0)
I2C_Read_QMC5883():
c:\Users\Administrator\Documents\MyCode\0331\ch582m\my_ch582m\obj/../Code/my_module.c:14
        return I2C_1_Read(DeviceAddress, RegisterAddress);
    1bb4:	4595                	li	a1,5
    1bb6:	4569                	li	a0,26
    1bb8:	3759                	jal	1b3e <I2C_1_Read>
QMC5883_Read_Mag():
c:\Users\Administrator\Documents\MyCode\0331\ch582m\my_ch582m\obj/../Code/my_module.c:50
        temp_qmc5883[5] = I2C_Read_QMC5883(MAG_ADDRESS, MAG_ZOUT_H);

        qmc5883_mag[1] = (temp_qmc5883[1] << 8) | temp_qmc5883[0];
    1bba:	00144783          	lbu	a5,1(s0)
    1bbe:	00044683          	lbu	a3,0(s0)
    1bc2:	82418713          	addi	a4,gp,-2012 # 20001104 <qmc5883_mag>
    1bc6:	07a2                	slli	a5,a5,0x8
    1bc8:	8fd5                	or	a5,a5,a3
    1bca:	00f71123          	sh	a5,2(a4)
c:\Users\Administrator\Documents\MyCode\0331\ch582m\my_ch582m\obj/../Code/my_module.c:51
        qmc5883_mag[0] = (temp_qmc5883[3] << 8) | temp_qmc5883[2];
    1bce:	00344783          	lbu	a5,3(s0)
    1bd2:	00244683          	lbu	a3,2(s0)
c:\Users\Administrator\Documents\MyCode\0331\ch582m\my_ch582m\obj/../Code/my_module.c:48
        temp_qmc5883[5] = I2C_Read_QMC5883(MAG_ADDRESS, MAG_ZOUT_H);
    1bd6:	00a402a3          	sb	a0,5(s0)
c:\Users\Administrator\Documents\MyCode\0331\ch582m\my_ch582m\obj/../Code/my_module.c:51
        qmc5883_mag[0] = (temp_qmc5883[3] << 8) | temp_qmc5883[2];
    1bda:	07a2                	slli	a5,a5,0x8
    1bdc:	8fd5                	or	a5,a5,a3
    1bde:	00f71023          	sh	a5,0(a4)
c:\Users\Administrator\Documents\MyCode\0331\ch582m\my_ch582m\obj/../Code/my_module.c:52
        qmc5883_mag[2] = (temp_qmc5883[5] << 8) | temp_qmc5883[4];
    1be2:	00444783          	lbu	a5,4(s0)
    1be6:	0522                	slli	a0,a0,0x8
c:\Users\Administrator\Documents\MyCode\0331\ch582m\my_ch582m\obj/../Code/my_module.c:55

        qmc5883_mag[2] = -qmc5883_mag[2];
    }
    1be8:	40b2                	lw	ra,12(sp)
    1bea:	4422                	lw	s0,8(sp)
c:\Users\Administrator\Documents\MyCode\0331\ch582m\my_ch582m\obj/../Code/my_module.c:52
        qmc5883_mag[2] = (temp_qmc5883[5] << 8) | temp_qmc5883[4];
    1bec:	8d5d                	or	a0,a0,a5
c:\Users\Administrator\Documents\MyCode\0331\ch582m\my_ch582m\obj/../Code/my_module.c:54
        qmc5883_mag[2] = -qmc5883_mag[2];
    1bee:	40a00533          	neg	a0,a0
    1bf2:	00a71223          	sh	a0,4(a4)
c:\Users\Administrator\Documents\MyCode\0331\ch582m\my_ch582m\obj/../Code/my_module.c:55
    }
    1bf6:	0141                	addi	sp,sp,16
    1bf8:	8082                	ret

00001bfa <my_qmc5883_self_test>:
my_qmc5883_self_test():
c:\Users\Administrator\Documents\MyCode\0331\ch582m\my_ch582m\obj/../Code/my_module.c:58


    void my_qmc5883_self_test(void){
    1bfa:	1141                	addi	sp,sp,-16
    1bfc:	c606                	sw	ra,12(sp)
QMC5883_Update_Data():
c:\Users\Administrator\Documents\MyCode\0331\ch582m\my_ch582m\obj/../Code/my_module.c:36
        QMC5883_Read_Mag();
    1bfe:	3fad                	jal	1b78 <QMC5883_Read_Mag>
my_qmc5883_self_test():
c:\Users\Administrator\Documents\MyCode\0331\ch582m\my_ch582m\obj/../Code/my_module.c:62

        QMC5883_Update_Data();
        
        char* temp_char = muti_printf_arrays(1, ",", "%d",
    1c00:	470d                	li	a4,3
    1c02:	82418693          	addi	a3,gp,-2012 # 20001104 <qmc5883_mag>
    1c06:	00002617          	auipc	a2,0x2
    1c0a:	d6660613          	addi	a2,a2,-666 # 396c <_read+0x2fe>
    1c0e:	00002597          	auipc	a1,0x2
    1c12:	d6258593          	addi	a1,a1,-670 # 3970 <_read+0x302>
    1c16:	4505                	li	a0,1
    1c18:	2839                	jal	1c36 <muti_printf_arrays>
c:\Users\Administrator\Documents\MyCode\0331\ch582m\my_ch582m\obj/../Code/my_module.c:65
            qmc5883_mag, 3
        );
        printf("%s\r\n", temp_char);
    1c1a:	85aa                	mv	a1,a0
    1c1c:	00002517          	auipc	a0,0x2
    1c20:	d5850513          	addi	a0,a0,-680 # 3974 <_read+0x306>
    1c24:	24d9                	jal	1eea <iprintf>
c:\Users\Administrator\Documents\MyCode\0331\ch582m\my_ch582m\obj/../Code/my_module.c:67
        DelayMs(100);
    }
    1c26:	40b2                	lw	ra,12(sp)
c:\Users\Administrator\Documents\MyCode\0331\ch582m\my_ch582m\obj/../Code/my_module.c:66
        DelayMs(100);
    1c28:	06400513          	li	a0,100
c:\Users\Administrator\Documents\MyCode\0331\ch582m\my_ch582m\obj/../Code/my_module.c:67
    }
    1c2c:	0141                	addi	sp,sp,16
c:\Users\Administrator\Documents\MyCode\0331\ch582m\my_ch582m\obj/../Code/my_module.c:66
        DelayMs(100);
    1c2e:	1fffe317          	auipc	t1,0x1fffe
    1c32:	6f030067          	jr	1776(t1) # 2000031e <mDelaymS>

00001c36 <muti_printf_arrays>:
muti_printf_arrays():
c:\Users\Administrator\Documents\MyCode\0331\ch582m\my_ch582m\obj/../Code/my_tool.c:44
        *         @arg "%x": Hex
        *         @arg "%s": String
        *         @arg ...
        * @retval Char*
        */
        char* muti_printf_arrays(int num_arrays, const char* delimiter, const char* format, ...){
    1c36:	7119                	addi	sp,sp,-128
    1c38:	dabe                	sw	a5,116(sp)
c:\Users\Administrator\Documents\MyCode\0331\ch582m\my_ch582m\obj/../Code/my_tool.c:46
            static char result[mpa_MAX_STR_LEN];  // 静态缓冲区存储结果
            result[0] = '\0';  // 初始化为空字符串
    1c3a:	90018023          	sb	zero,-1792(gp) # 200011e0 <result.4415>
c:\Users\Administrator\Documents\MyCode\0331\ch582m\my_ch582m\obj/../Code/my_tool.c:49

            va_list args;
            va_start(args, format);
    1c3e:	10fc                	addi	a5,sp,108
c:\Users\Administrator\Documents\MyCode\0331\ch582m\my_ch582m\obj/../Code/my_tool.c:44
        char* muti_printf_arrays(int num_arrays, const char* delimiter, const char* format, ...){
    1c40:	cca2                	sw	s0,88(sp)
    1c42:	caa6                	sw	s1,84(sp)
    1c44:	c6ce                	sw	s3,76(sp)
    1c46:	c4d2                	sw	s4,72(sp)
    1c48:	c2d6                	sw	s5,68(sp)
    1c4a:	dc62                	sw	s8,56(sp)
    1c4c:	da66                	sw	s9,52(sp)
    1c4e:	ce86                	sw	ra,92(sp)
    1c50:	c8ca                	sw	s2,80(sp)
    1c52:	c0da                	sw	s6,64(sp)
    1c54:	de5e                	sw	s7,60(sp)
    1c56:	8c2a                	mv	s8,a0
    1c58:	8aae                	mv	s5,a1
    1c5a:	8a32                	mv	s4,a2
    1c5c:	d6b6                	sw	a3,108(sp)
    1c5e:	d8ba                	sw	a4,112(sp)
    1c60:	dcc2                	sw	a6,120(sp)
    1c62:	dec6                	sw	a7,124(sp)
c:\Users\Administrator\Documents\MyCode\0331\ch582m\my_ch582m\obj/../Code/my_tool.c:49
            va_start(args, format);
    1c64:	c63e                	sw	a5,12(sp)
c:\Users\Administrator\Documents\MyCode\0331\ch582m\my_ch582m\obj/../Code/my_tool.c:54

            char buffer[32];  // 临时存储格式化后的数据
            int first = 1;    // 用于避免首个元素前的分隔符

            for (int i = 0; i < num_arrays; i++) {
    1c66:	4981                	li	s3,0
c:\Users\Administrator\Documents\MyCode\0331\ch582m\my_ch582m\obj/../Code/my_tool.c:52
            int first = 1;    // 用于避免首个元素前的分隔符
    1c68:	4405                	li	s0,1
c:\Users\Administrator\Documents\MyCode\0331\ch582m\my_ch582m\obj/../Code/my_tool.c:56
                
                if (strcmp(format, "%f") == 0) {
    1c6a:	00002c97          	auipc	s9,0x2
    1c6e:	d12c8c93          	addi	s9,s9,-750 # 397c <_read+0x30e>
c:\Users\Administrator\Documents\MyCode\0331\ch582m\my_ch582m\obj/../Code/my_tool.c:74
                    int* array = va_arg(args, int*);  // 处理整数数组
                    int size = va_arg(args, int);

                    for (int j = 0; j < size; j++) {
                        if (!first) {
                            strcat(result, delimiter);
    1c72:	90018493          	addi	s1,gp,-1792 # 200011e0 <result.4415>
c:\Users\Administrator\Documents\MyCode\0331\ch582m\my_ch582m\obj/../Code/my_tool.c:54 (discriminator 1)
            for (int i = 0; i < num_arrays; i++) {
    1c76:	0389c163          	blt	s3,s8,1c98 <muti_printf_arrays+0x62>
c:\Users\Administrator\Documents\MyCode\0331\ch582m\my_ch582m\obj/../Code/my_tool.c:85
                }
            }

            va_end(args);
            return result;
        }
    1c7a:	40f6                	lw	ra,92(sp)
    1c7c:	4466                	lw	s0,88(sp)
    1c7e:	44d6                	lw	s1,84(sp)
    1c80:	4946                	lw	s2,80(sp)
    1c82:	49b6                	lw	s3,76(sp)
    1c84:	4a26                	lw	s4,72(sp)
    1c86:	4a96                	lw	s5,68(sp)
    1c88:	4b06                	lw	s6,64(sp)
    1c8a:	5bf2                	lw	s7,60(sp)
    1c8c:	5c62                	lw	s8,56(sp)
    1c8e:	5cd2                	lw	s9,52(sp)
    1c90:	90018513          	addi	a0,gp,-1792 # 200011e0 <result.4415>
    1c94:	6109                	addi	sp,sp,128
    1c96:	8082                	ret
c:\Users\Administrator\Documents\MyCode\0331\ch582m\my_ch582m\obj/../Code/my_tool.c:56
                if (strcmp(format, "%f") == 0) {
    1c98:	85e6                	mv	a1,s9
    1c9a:	8552                	mv	a0,s4
    1c9c:	d36ff0ef          	jal	ra,11d2 <strcmp>
    1ca0:	47b2                	lw	a5,12(sp)
c:\Users\Administrator\Documents\MyCode\0331\ch582m\my_ch582m\obj/../Code/my_tool.c:60
                    for (int j = 0; j < size; j++) {
    1ca2:	4901                	li	s2,0
    1ca4:	00878713          	addi	a4,a5,8
c:\Users\Administrator\Documents\MyCode\0331\ch582m\my_ch582m\obj/../Code/my_tool.c:58
                    int size = va_arg(args, int);
    1ca8:	c63a                	sw	a4,12(sp)
    1caa:	0007ab83          	lw	s7,0(a5)
    1cae:	0047ab03          	lw	s6,4(a5)
c:\Users\Administrator\Documents\MyCode\0331\ch582m\my_ch582m\obj/../Code/my_tool.c:56
                if (strcmp(format, "%f") == 0) {
    1cb2:	ed29                	bnez	a0,1d0c <muti_printf_arrays+0xd6>
c:\Users\Administrator\Documents\MyCode\0331\ch582m\my_ch582m\obj/../Code/my_tool.c:60 (discriminator 1)
                    for (int j = 0; j < size; j++) {
    1cb4:	01694463          	blt	s2,s6,1cbc <muti_printf_arrays+0x86>
c:\Users\Administrator\Documents\MyCode\0331\ch582m\my_ch582m\obj/../Code/my_tool.c:54 (discriminator 2)
            for (int i = 0; i < num_arrays; i++) {
    1cb8:	0985                	addi	s3,s3,1
    1cba:	bf75                	j	1c76 <muti_printf_arrays+0x40>
c:\Users\Administrator\Documents\MyCode\0331\ch582m\my_ch582m\obj/../Code/my_tool.c:61
                        if (!first) {
    1cbc:	e401                	bnez	s0,1cc4 <muti_printf_arrays+0x8e>
c:\Users\Administrator\Documents\MyCode\0331\ch582m\my_ch582m\obj/../Code/my_tool.c:62
                            strcat(result, delimiter);
    1cbe:	85d6                	mv	a1,s5
    1cc0:	8526                	mv	a0,s1
    1cc2:	26dd                	jal	20a8 <strcat>
c:\Users\Administrator\Documents\MyCode\0331\ch582m\my_ch582m\obj/../Code/my_tool.c:65 (discriminator 2)
                        snprintf(buffer, sizeof(buffer), format, array[j]);  // 处理浮点数
    1cc4:	00291793          	slli	a5,s2,0x2
    1cc8:	97de                	add	a5,a5,s7
    1cca:	4388                	lw	a0,0(a5)
c:\Users\Administrator\Documents\MyCode\0331\ch582m\my_ch582m\obj/../Code/my_tool.c:60 (discriminator 2)
                    for (int j = 0; j < size; j++) {
    1ccc:	0905                	addi	s2,s2,1
c:\Users\Administrator\Documents\MyCode\0331\ch582m\my_ch582m\obj/../Code/my_tool.c:64 (discriminator 2)
                        first = 0;
    1cce:	4401                	li	s0,0
c:\Users\Administrator\Documents\MyCode\0331\ch582m\my_ch582m\obj/../Code/my_tool.c:65 (discriminator 2)
                        snprintf(buffer, sizeof(buffer), format, array[j]);  // 处理浮点数
    1cd0:	2089                	jal	1d12 <__extendsfdf2>
    1cd2:	872a                	mv	a4,a0
    1cd4:	87ae                	mv	a5,a1
    1cd6:	8652                	mv	a2,s4
    1cd8:	02000593          	li	a1,32
    1cdc:	0808                	addi	a0,sp,16
    1cde:	2ea9                	jal	2038 <sniprintf>
c:\Users\Administrator\Documents\MyCode\0331\ch582m\my_ch582m\obj/../Code/my_tool.c:66 (discriminator 2)
                        strcat(result, buffer);
    1ce0:	080c                	addi	a1,sp,16
    1ce2:	8526                	mv	a0,s1
    1ce4:	26d1                	jal	20a8 <strcat>
    1ce6:	b7f9                	j	1cb4 <muti_printf_arrays+0x7e>
c:\Users\Administrator\Documents\MyCode\0331\ch582m\my_ch582m\obj/../Code/my_tool.c:73
                        if (!first) {
    1ce8:	e401                	bnez	s0,1cf0 <muti_printf_arrays+0xba>
c:\Users\Administrator\Documents\MyCode\0331\ch582m\my_ch582m\obj/../Code/my_tool.c:74
                            strcat(result, delimiter);
    1cea:	85d6                	mv	a1,s5
    1cec:	8526                	mv	a0,s1
    1cee:	2e6d                	jal	20a8 <strcat>
c:\Users\Administrator\Documents\MyCode\0331\ch582m\my_ch582m\obj/../Code/my_tool.c:77 (discriminator 2)
                        snprintf(buffer, sizeof(buffer), format, array[j]);  // 处理整数
    1cf0:	00291793          	slli	a5,s2,0x2
    1cf4:	97de                	add	a5,a5,s7
    1cf6:	4394                	lw	a3,0(a5)
    1cf8:	8652                	mv	a2,s4
    1cfa:	02000593          	li	a1,32
    1cfe:	0808                	addi	a0,sp,16
    1d00:	2e25                	jal	2038 <sniprintf>
c:\Users\Administrator\Documents\MyCode\0331\ch582m\my_ch582m\obj/../Code/my_tool.c:78 (discriminator 2)
                        strcat(result, buffer);
    1d02:	080c                	addi	a1,sp,16
    1d04:	8526                	mv	a0,s1
    1d06:	264d                	jal	20a8 <strcat>
c:\Users\Administrator\Documents\MyCode\0331\ch582m\my_ch582m\obj/../Code/my_tool.c:72 (discriminator 2)
                    for (int j = 0; j < size; j++) {
    1d08:	0905                	addi	s2,s2,1
c:\Users\Administrator\Documents\MyCode\0331\ch582m\my_ch582m\obj/../Code/my_tool.c:76 (discriminator 2)
                        first = 0;
    1d0a:	4401                	li	s0,0
c:\Users\Administrator\Documents\MyCode\0331\ch582m\my_ch582m\obj/../Code/my_tool.c:72 (discriminator 1)
                    for (int j = 0; j < size; j++) {
    1d0c:	fd694ee3          	blt	s2,s6,1ce8 <muti_printf_arrays+0xb2>
    1d10:	b765                	j	1cb8 <muti_printf_arrays+0x82>

00001d12 <__extendsfdf2>:
__extendsfdf2():
    1d12:	01755713          	srli	a4,a0,0x17
    1d16:	0ff77713          	andi	a4,a4,255
    1d1a:	1141                	addi	sp,sp,-16
    1d1c:	00170793          	addi	a5,a4,1
    1d20:	c422                	sw	s0,8(sp)
    1d22:	c226                	sw	s1,4(sp)
    1d24:	00951413          	slli	s0,a0,0x9
    1d28:	c606                	sw	ra,12(sp)
    1d2a:	0fe7f793          	andi	a5,a5,254
    1d2e:	8025                	srli	s0,s0,0x9
    1d30:	01f55493          	srli	s1,a0,0x1f
    1d34:	c785                	beqz	a5,1d5c <__extendsfdf2+0x4a>
    1d36:	00345793          	srli	a5,s0,0x3
    1d3a:	38070713          	addi	a4,a4,896
    1d3e:	0476                	slli	s0,s0,0x1d
    1d40:	07b2                	slli	a5,a5,0xc
    1d42:	0752                	slli	a4,a4,0x14
    1d44:	83b1                	srli	a5,a5,0xc
    1d46:	01f49513          	slli	a0,s1,0x1f
    1d4a:	8fd9                	or	a5,a5,a4
    1d4c:	8fc9                	or	a5,a5,a0
    1d4e:	40b2                	lw	ra,12(sp)
    1d50:	8522                	mv	a0,s0
    1d52:	4422                	lw	s0,8(sp)
    1d54:	4492                	lw	s1,4(sp)
    1d56:	85be                	mv	a1,a5
    1d58:	0141                	addi	sp,sp,16
    1d5a:	8082                	ret
    1d5c:	eb05                	bnez	a4,1d8c <__extendsfdf2+0x7a>
    1d5e:	c439                	beqz	s0,1dac <__extendsfdf2+0x9a>
    1d60:	8522                	mv	a0,s0
    1d62:	28b1                	jal	1dbe <__clzsi2>
    1d64:	47a9                	li	a5,10
    1d66:	04a7c663          	blt	a5,a0,1db2 <__extendsfdf2+0xa0>
    1d6a:	472d                	li	a4,11
    1d6c:	8f09                	sub	a4,a4,a0
    1d6e:	01550793          	addi	a5,a0,21
    1d72:	00e45733          	srl	a4,s0,a4
    1d76:	00f41433          	sll	s0,s0,a5
    1d7a:	00c71793          	slli	a5,a4,0xc
    1d7e:	38900713          	li	a4,905
    1d82:	8f09                	sub	a4,a4,a0
    1d84:	83b1                	srli	a5,a5,0xc
    1d86:	7ff77713          	andi	a4,a4,2047
    1d8a:	bf5d                	j	1d40 <__extendsfdf2+0x2e>
    1d8c:	cc01                	beqz	s0,1da4 <__extendsfdf2+0x92>
    1d8e:	00345713          	srli	a4,s0,0x3
    1d92:	000807b7          	lui	a5,0x80
    1d96:	8fd9                	or	a5,a5,a4
    1d98:	07b2                	slli	a5,a5,0xc
    1d9a:	0476                	slli	s0,s0,0x1d
    1d9c:	83b1                	srli	a5,a5,0xc
    1d9e:	7ff00713          	li	a4,2047
    1da2:	bf79                	j	1d40 <__extendsfdf2+0x2e>
    1da4:	7ff00713          	li	a4,2047
    1da8:	4781                	li	a5,0
    1daa:	bf59                	j	1d40 <__extendsfdf2+0x2e>
    1dac:	4701                	li	a4,0
    1dae:	4781                	li	a5,0
    1db0:	bf41                	j	1d40 <__extendsfdf2+0x2e>
    1db2:	ff550713          	addi	a4,a0,-11
    1db6:	00e41733          	sll	a4,s0,a4
    1dba:	4401                	li	s0,0
    1dbc:	bf7d                	j	1d7a <__extendsfdf2+0x68>

00001dbe <__clzsi2>:
__clzsi2():
    1dbe:	67c1                	lui	a5,0x10
    1dc0:	02f57e63          	bgeu	a0,a5,1dfc <__clzsi2+0x3e>
    1dc4:	0ff00793          	li	a5,255
    1dc8:	02000713          	li	a4,32
    1dcc:	00a7ec63          	bltu	a5,a0,1de4 <__clzsi2+0x26>
    1dd0:	00002797          	auipc	a5,0x2
    1dd4:	bb078793          	addi	a5,a5,-1104 # 3980 <__clz_tab>
    1dd8:	97aa                	add	a5,a5,a0
    1dda:	0007c503          	lbu	a0,0(a5)
    1dde:	40a70533          	sub	a0,a4,a0
    1de2:	8082                	ret
    1de4:	8121                	srli	a0,a0,0x8
    1de6:	00002797          	auipc	a5,0x2
    1dea:	b9a78793          	addi	a5,a5,-1126 # 3980 <__clz_tab>
    1dee:	97aa                	add	a5,a5,a0
    1df0:	0007c503          	lbu	a0,0(a5)
    1df4:	4761                	li	a4,24
    1df6:	40a70533          	sub	a0,a4,a0
    1dfa:	8082                	ret
    1dfc:	010007b7          	lui	a5,0x1000
    1e00:	00f56e63          	bltu	a0,a5,1e1c <__clzsi2+0x5e>
    1e04:	8161                	srli	a0,a0,0x18
    1e06:	00002797          	auipc	a5,0x2
    1e0a:	b7a78793          	addi	a5,a5,-1158 # 3980 <__clz_tab>
    1e0e:	97aa                	add	a5,a5,a0
    1e10:	0007c503          	lbu	a0,0(a5)
    1e14:	4721                	li	a4,8
    1e16:	40a70533          	sub	a0,a4,a0
    1e1a:	8082                	ret
    1e1c:	8141                	srli	a0,a0,0x10
    1e1e:	00002797          	auipc	a5,0x2
    1e22:	b6278793          	addi	a5,a5,-1182 # 3980 <__clz_tab>
    1e26:	97aa                	add	a5,a5,a0
    1e28:	0007c503          	lbu	a0,0(a5)
    1e2c:	4741                	li	a4,16
    1e2e:	40a70533          	sub	a0,a4,a0
    1e32:	8082                	ret

00001e34 <memcpy>:
memcpy():
    1e34:	00a5c7b3          	xor	a5,a1,a0
    1e38:	8b8d                	andi	a5,a5,3
    1e3a:	00c50733          	add	a4,a0,a2
    1e3e:	e781                	bnez	a5,1e46 <memcpy+0x12>
    1e40:	478d                	li	a5,3
    1e42:	00c7ee63          	bltu	a5,a2,1e5e <memcpy+0x2a>
    1e46:	87aa                	mv	a5,a0
    1e48:	0ae57063          	bgeu	a0,a4,1ee8 <memcpy+0xb4>
    1e4c:	0005c683          	lbu	a3,0(a1)
    1e50:	0785                	addi	a5,a5,1
    1e52:	0585                	addi	a1,a1,1
    1e54:	fed78fa3          	sb	a3,-1(a5)
    1e58:	fee7eae3          	bltu	a5,a4,1e4c <memcpy+0x18>
    1e5c:	8082                	ret
    1e5e:	00357693          	andi	a3,a0,3
    1e62:	87aa                	mv	a5,a0
    1e64:	ca91                	beqz	a3,1e78 <memcpy+0x44>
    1e66:	0005c683          	lbu	a3,0(a1)
    1e6a:	0785                	addi	a5,a5,1
    1e6c:	0585                	addi	a1,a1,1
    1e6e:	fed78fa3          	sb	a3,-1(a5)
    1e72:	0037f693          	andi	a3,a5,3
    1e76:	b7fd                	j	1e64 <memcpy+0x30>
    1e78:	ffc77693          	andi	a3,a4,-4
    1e7c:	fe068613          	addi	a2,a3,-32
    1e80:	06c7f063          	bgeu	a5,a2,1ee0 <memcpy+0xac>
    1e84:	0005a383          	lw	t2,0(a1)
    1e88:	0045a283          	lw	t0,4(a1)
    1e8c:	0085af83          	lw	t6,8(a1)
    1e90:	00c5af03          	lw	t5,12(a1)
    1e94:	0105ae83          	lw	t4,16(a1)
    1e98:	0145ae03          	lw	t3,20(a1)
    1e9c:	0185a303          	lw	t1,24(a1)
    1ea0:	01c5a883          	lw	a7,28(a1)
    1ea4:	02458593          	addi	a1,a1,36
    1ea8:	0077a023          	sw	t2,0(a5)
    1eac:	ffc5a803          	lw	a6,-4(a1)
    1eb0:	0057a223          	sw	t0,4(a5)
    1eb4:	01f7a423          	sw	t6,8(a5)
    1eb8:	01e7a623          	sw	t5,12(a5)
    1ebc:	01d7a823          	sw	t4,16(a5)
    1ec0:	01c7aa23          	sw	t3,20(a5)
    1ec4:	0067ac23          	sw	t1,24(a5)
    1ec8:	0117ae23          	sw	a7,28(a5)
    1ecc:	02478793          	addi	a5,a5,36
    1ed0:	ff07ae23          	sw	a6,-4(a5)
    1ed4:	b775                	j	1e80 <memcpy+0x4c>
    1ed6:	4190                	lw	a2,0(a1)
    1ed8:	0791                	addi	a5,a5,4
    1eda:	0591                	addi	a1,a1,4
    1edc:	fec7ae23          	sw	a2,-4(a5)
    1ee0:	fed7ebe3          	bltu	a5,a3,1ed6 <memcpy+0xa2>
    1ee4:	f6e7e4e3          	bltu	a5,a4,1e4c <memcpy+0x18>
    1ee8:	8082                	ret

00001eea <iprintf>:
printf():
    1eea:	7139                	addi	sp,sp,-64
    1eec:	da3e                	sw	a5,52(sp)
    1eee:	d22e                	sw	a1,36(sp)
    1ef0:	d432                	sw	a2,40(sp)
    1ef2:	d636                	sw	a3,44(sp)
    1ef4:	d83a                	sw	a4,48(sp)
    1ef6:	dc42                	sw	a6,56(sp)
    1ef8:	de46                	sw	a7,60(sp)
    1efa:	80c18793          	addi	a5,gp,-2036 # 200010ec <_impure_ptr>
    1efe:	cc22                	sw	s0,24(sp)
    1f00:	4380                	lw	s0,0(a5)
    1f02:	ca26                	sw	s1,20(sp)
    1f04:	ce06                	sw	ra,28(sp)
    1f06:	84aa                	mv	s1,a0
    1f08:	c409                	beqz	s0,1f12 <iprintf+0x28>
    1f0a:	4c1c                	lw	a5,24(s0)
    1f0c:	e399                	bnez	a5,1f12 <iprintf+0x28>
    1f0e:	8522                	mv	a0,s0
    1f10:	2bf9                	jal	24ee <__sinit>
    1f12:	440c                	lw	a1,8(s0)
    1f14:	1054                	addi	a3,sp,36
    1f16:	8626                	mv	a2,s1
    1f18:	8522                	mv	a0,s0
    1f1a:	c636                	sw	a3,12(sp)
    1f1c:	595000ef          	jal	ra,2cb0 <_vfiprintf_r>
    1f20:	40f2                	lw	ra,28(sp)
    1f22:	4462                	lw	s0,24(sp)
    1f24:	44d2                	lw	s1,20(sp)
    1f26:	6121                	addi	sp,sp,64
    1f28:	8082                	ret

00001f2a <putchar>:
putchar():
    1f2a:	1101                	addi	sp,sp,-32
    1f2c:	80c18793          	addi	a5,gp,-2036 # 200010ec <_impure_ptr>
    1f30:	cc22                	sw	s0,24(sp)
    1f32:	4380                	lw	s0,0(a5)
    1f34:	ce06                	sw	ra,28(sp)
    1f36:	85aa                	mv	a1,a0
    1f38:	c419                	beqz	s0,1f46 <putchar+0x1c>
    1f3a:	4c1c                	lw	a5,24(s0)
    1f3c:	e789                	bnez	a5,1f46 <putchar+0x1c>
    1f3e:	c62a                	sw	a0,12(sp)
    1f40:	8522                	mv	a0,s0
    1f42:	2375                	jal	24ee <__sinit>
    1f44:	45b2                	lw	a1,12(sp)
    1f46:	4410                	lw	a2,8(s0)
    1f48:	8522                	mv	a0,s0
    1f4a:	4462                	lw	s0,24(sp)
    1f4c:	40f2                	lw	ra,28(sp)
    1f4e:	6105                	addi	sp,sp,32
    1f50:	3b00106f          	j	3300 <_putc_r>

00001f54 <_puts_r>:
_puts_r():
    1f54:	1101                	addi	sp,sp,-32
    1f56:	ca26                	sw	s1,20(sp)
    1f58:	c84a                	sw	s2,16(sp)
    1f5a:	ce06                	sw	ra,28(sp)
    1f5c:	cc22                	sw	s0,24(sp)
    1f5e:	c64e                	sw	s3,12(sp)
    1f60:	c452                	sw	s4,8(sp)
    1f62:	84aa                	mv	s1,a0
    1f64:	892e                	mv	s2,a1
    1f66:	c501                	beqz	a0,1f6e <_puts_r+0x1a>
    1f68:	4d1c                	lw	a5,24(a0)
    1f6a:	e391                	bnez	a5,1f6e <_puts_r+0x1a>
    1f6c:	2349                	jal	24ee <__sinit>
    1f6e:	4c9c                	lw	a5,24(s1)
    1f70:	4480                	lw	s0,8(s1)
    1f72:	e399                	bnez	a5,1f78 <_puts_r+0x24>
    1f74:	8526                	mv	a0,s1
    1f76:	2ba5                	jal	24ee <__sinit>
    1f78:	00002797          	auipc	a5,0x2
    1f7c:	b2878793          	addi	a5,a5,-1240 # 3aa0 <__sf_fake_stdin>
    1f80:	02f41c63          	bne	s0,a5,1fb8 <_puts_r+0x64>
    1f84:	40c0                	lw	s0,4(s1)
    1f86:	00c45783          	lhu	a5,12(s0)
    1f8a:	8ba1                	andi	a5,a5,8
    1f8c:	c7b1                	beqz	a5,1fd8 <_puts_r+0x84>
    1f8e:	481c                	lw	a5,16(s0)
    1f90:	c7a1                	beqz	a5,1fd8 <_puts_r+0x84>
    1f92:	59fd                	li	s3,-1
    1f94:	4a29                	li	s4,10
    1f96:	441c                	lw	a5,8(s0)
    1f98:	00094583          	lbu	a1,0(s2)
    1f9c:	17fd                	addi	a5,a5,-1
    1f9e:	e9b1                	bnez	a1,1ff2 <_puts_r+0x9e>
    1fa0:	c41c                	sw	a5,8(s0)
    1fa2:	0607de63          	bgez	a5,201e <_puts_r+0xca>
    1fa6:	8622                	mv	a2,s0
    1fa8:	45a9                	li	a1,10
    1faa:	8526                	mv	a0,s1
    1fac:	2a31                	jal	20c8 <__swbuf_r>
    1fae:	57fd                	li	a5,-1
    1fb0:	02f50863          	beq	a0,a5,1fe0 <_puts_r+0x8c>
    1fb4:	4529                	li	a0,10
    1fb6:	a035                	j	1fe2 <_puts_r+0x8e>
    1fb8:	00002797          	auipc	a5,0x2
    1fbc:	b0878793          	addi	a5,a5,-1272 # 3ac0 <__sf_fake_stdout>
    1fc0:	00f41463          	bne	s0,a5,1fc8 <_puts_r+0x74>
    1fc4:	4480                	lw	s0,8(s1)
    1fc6:	b7c1                	j	1f86 <_puts_r+0x32>
    1fc8:	00002797          	auipc	a5,0x2
    1fcc:	ab878793          	addi	a5,a5,-1352 # 3a80 <__sf_fake_stderr>
    1fd0:	faf41be3          	bne	s0,a5,1f86 <_puts_r+0x32>
    1fd4:	44c0                	lw	s0,12(s1)
    1fd6:	bf45                	j	1f86 <_puts_r+0x32>
    1fd8:	85a2                	mv	a1,s0
    1fda:	8526                	mv	a0,s1
    1fdc:	2275                	jal	2188 <__swsetup_r>
    1fde:	d955                	beqz	a0,1f92 <_puts_r+0x3e>
    1fe0:	557d                	li	a0,-1
    1fe2:	40f2                	lw	ra,28(sp)
    1fe4:	4462                	lw	s0,24(sp)
    1fe6:	44d2                	lw	s1,20(sp)
    1fe8:	4942                	lw	s2,16(sp)
    1fea:	49b2                	lw	s3,12(sp)
    1fec:	4a22                	lw	s4,8(sp)
    1fee:	6105                	addi	sp,sp,32
    1ff0:	8082                	ret
    1ff2:	c41c                	sw	a5,8(s0)
    1ff4:	0905                	addi	s2,s2,1
    1ff6:	0007d763          	bgez	a5,2004 <_puts_r+0xb0>
    1ffa:	4c18                	lw	a4,24(s0)
    1ffc:	00e7cb63          	blt	a5,a4,2012 <_puts_r+0xbe>
    2000:	01458963          	beq	a1,s4,2012 <_puts_r+0xbe>
    2004:	401c                	lw	a5,0(s0)
    2006:	00178713          	addi	a4,a5,1
    200a:	c018                	sw	a4,0(s0)
    200c:	00b78023          	sb	a1,0(a5)
    2010:	b759                	j	1f96 <_puts_r+0x42>
    2012:	8622                	mv	a2,s0
    2014:	8526                	mv	a0,s1
    2016:	284d                	jal	20c8 <__swbuf_r>
    2018:	f7351fe3          	bne	a0,s3,1f96 <_puts_r+0x42>
    201c:	b7d1                	j	1fe0 <_puts_r+0x8c>
    201e:	401c                	lw	a5,0(s0)
    2020:	00178713          	addi	a4,a5,1
    2024:	c018                	sw	a4,0(s0)
    2026:	4729                	li	a4,10
    2028:	00e78023          	sb	a4,0(a5)
    202c:	b761                	j	1fb4 <_puts_r+0x60>

0000202e <puts>:
puts():
    202e:	80c18793          	addi	a5,gp,-2036 # 200010ec <_impure_ptr>
    2032:	85aa                	mv	a1,a0
    2034:	4388                	lw	a0,0(a5)
    2036:	bf39                	j	1f54 <_puts_r>

00002038 <sniprintf>:
snprintf():
    2038:	7135                	addi	sp,sp,-160
    203a:	cb3e                	sw	a5,148(sp)
    203c:	daa6                	sw	s1,116(sp)
    203e:	c736                	sw	a3,140(sp)
    2040:	c93a                	sw	a4,144(sp)
    2042:	cd42                	sw	a6,152(sp)
    2044:	cf46                	sw	a7,156(sp)
    2046:	80c18793          	addi	a5,gp,-2036 # 200010ec <_impure_ptr>
    204a:	de86                	sw	ra,124(sp)
    204c:	dca2                	sw	s0,120(sp)
    204e:	4384                	lw	s1,0(a5)
    2050:	0005db63          	bgez	a1,2066 <sniprintf+0x2e>
    2054:	08b00793          	li	a5,139
    2058:	c09c                	sw	a5,0(s1)
    205a:	557d                	li	a0,-1
    205c:	50f6                	lw	ra,124(sp)
    205e:	5466                	lw	s0,120(sp)
    2060:	54d6                	lw	s1,116(sp)
    2062:	610d                	addi	sp,sp,160
    2064:	8082                	ret
    2066:	20800793          	li	a5,520
    206a:	00f11a23          	sh	a5,20(sp)
    206e:	c42a                	sw	a0,8(sp)
    2070:	cc2a                	sw	a0,24(sp)
    2072:	4781                	li	a5,0
    2074:	c199                	beqz	a1,207a <sniprintf+0x42>
    2076:	fff58793          	addi	a5,a1,-1
    207a:	c83e                	sw	a5,16(sp)
    207c:	ce3e                	sw	a5,28(sp)
    207e:	0174                	addi	a3,sp,140
    2080:	57fd                	li	a5,-1
    2082:	842e                	mv	s0,a1
    2084:	8526                	mv	a0,s1
    2086:	002c                	addi	a1,sp,8
    2088:	00f11b23          	sh	a5,22(sp)
    208c:	c236                	sw	a3,4(sp)
    208e:	13b000ef          	jal	ra,29c8 <_svfiprintf_r>
    2092:	57fd                	li	a5,-1
    2094:	00f55563          	bge	a0,a5,209e <sniprintf+0x66>
    2098:	08b00793          	li	a5,139
    209c:	c09c                	sw	a5,0(s1)
    209e:	dc5d                	beqz	s0,205c <sniprintf+0x24>
    20a0:	47a2                	lw	a5,8(sp)
    20a2:	00078023          	sb	zero,0(a5)
    20a6:	bf5d                	j	205c <sniprintf+0x24>

000020a8 <strcat>:
strcat():
    20a8:	87aa                	mv	a5,a0
    20aa:	0007c703          	lbu	a4,0(a5)
    20ae:	00178693          	addi	a3,a5,1
    20b2:	eb09                	bnez	a4,20c4 <strcat+0x1c>
    20b4:	0585                	addi	a1,a1,1
    20b6:	fff5c703          	lbu	a4,-1(a1)
    20ba:	0785                	addi	a5,a5,1
    20bc:	fee78fa3          	sb	a4,-1(a5)
    20c0:	fb75                	bnez	a4,20b4 <strcat+0xc>
    20c2:	8082                	ret
    20c4:	87b6                	mv	a5,a3
    20c6:	b7d5                	j	20aa <strcat+0x2>

000020c8 <__swbuf_r>:
__swbuf_r():
    20c8:	1101                	addi	sp,sp,-32
    20ca:	cc22                	sw	s0,24(sp)
    20cc:	ca26                	sw	s1,20(sp)
    20ce:	c84a                	sw	s2,16(sp)
    20d0:	ce06                	sw	ra,28(sp)
    20d2:	c64e                	sw	s3,12(sp)
    20d4:	84aa                	mv	s1,a0
    20d6:	892e                	mv	s2,a1
    20d8:	8432                	mv	s0,a2
    20da:	c501                	beqz	a0,20e2 <__swbuf_r+0x1a>
    20dc:	4d1c                	lw	a5,24(a0)
    20de:	e391                	bnez	a5,20e2 <__swbuf_r+0x1a>
    20e0:	2139                	jal	24ee <__sinit>
    20e2:	00002797          	auipc	a5,0x2
    20e6:	9be78793          	addi	a5,a5,-1602 # 3aa0 <__sf_fake_stdin>
    20ea:	06f41963          	bne	s0,a5,215c <__swbuf_r+0x94>
    20ee:	40c0                	lw	s0,4(s1)
    20f0:	4c1c                	lw	a5,24(s0)
    20f2:	c41c                	sw	a5,8(s0)
    20f4:	00c45783          	lhu	a5,12(s0)
    20f8:	8ba1                	andi	a5,a5,8
    20fa:	c3c9                	beqz	a5,217c <__swbuf_r+0xb4>
    20fc:	481c                	lw	a5,16(s0)
    20fe:	cfbd                	beqz	a5,217c <__swbuf_r+0xb4>
    2100:	481c                	lw	a5,16(s0)
    2102:	4008                	lw	a0,0(s0)
    2104:	0ff97993          	andi	s3,s2,255
    2108:	0ff97913          	andi	s2,s2,255
    210c:	8d1d                	sub	a0,a0,a5
    210e:	485c                	lw	a5,20(s0)
    2110:	00f54663          	blt	a0,a5,211c <__swbuf_r+0x54>
    2114:	85a2                	mv	a1,s0
    2116:	8526                	mv	a0,s1
    2118:	2c65                	jal	23d0 <_fflush_r>
    211a:	e52d                	bnez	a0,2184 <__swbuf_r+0xbc>
    211c:	441c                	lw	a5,8(s0)
    211e:	0505                	addi	a0,a0,1
    2120:	17fd                	addi	a5,a5,-1
    2122:	c41c                	sw	a5,8(s0)
    2124:	401c                	lw	a5,0(s0)
    2126:	00178713          	addi	a4,a5,1
    212a:	c018                	sw	a4,0(s0)
    212c:	01378023          	sb	s3,0(a5)
    2130:	485c                	lw	a5,20(s0)
    2132:	00a78963          	beq	a5,a0,2144 <__swbuf_r+0x7c>
    2136:	00c45783          	lhu	a5,12(s0)
    213a:	8b85                	andi	a5,a5,1
    213c:	cb81                	beqz	a5,214c <__swbuf_r+0x84>
    213e:	47a9                	li	a5,10
    2140:	00f91663          	bne	s2,a5,214c <__swbuf_r+0x84>
    2144:	85a2                	mv	a1,s0
    2146:	8526                	mv	a0,s1
    2148:	2461                	jal	23d0 <_fflush_r>
    214a:	ed0d                	bnez	a0,2184 <__swbuf_r+0xbc>
    214c:	40f2                	lw	ra,28(sp)
    214e:	4462                	lw	s0,24(sp)
    2150:	854a                	mv	a0,s2
    2152:	44d2                	lw	s1,20(sp)
    2154:	4942                	lw	s2,16(sp)
    2156:	49b2                	lw	s3,12(sp)
    2158:	6105                	addi	sp,sp,32
    215a:	8082                	ret
    215c:	00002797          	auipc	a5,0x2
    2160:	96478793          	addi	a5,a5,-1692 # 3ac0 <__sf_fake_stdout>
    2164:	00f41463          	bne	s0,a5,216c <__swbuf_r+0xa4>
    2168:	4480                	lw	s0,8(s1)
    216a:	b759                	j	20f0 <__swbuf_r+0x28>
    216c:	00002797          	auipc	a5,0x2
    2170:	91478793          	addi	a5,a5,-1772 # 3a80 <__sf_fake_stderr>
    2174:	f6f41ee3          	bne	s0,a5,20f0 <__swbuf_r+0x28>
    2178:	44c0                	lw	s0,12(s1)
    217a:	bf9d                	j	20f0 <__swbuf_r+0x28>
    217c:	85a2                	mv	a1,s0
    217e:	8526                	mv	a0,s1
    2180:	2021                	jal	2188 <__swsetup_r>
    2182:	dd3d                	beqz	a0,2100 <__swbuf_r+0x38>
    2184:	597d                	li	s2,-1
    2186:	b7d9                	j	214c <__swbuf_r+0x84>

00002188 <__swsetup_r>:
__swsetup_r():
    2188:	1141                	addi	sp,sp,-16
    218a:	80c18793          	addi	a5,gp,-2036 # 200010ec <_impure_ptr>
    218e:	c226                	sw	s1,4(sp)
    2190:	4384                	lw	s1,0(a5)
    2192:	c422                	sw	s0,8(sp)
    2194:	c04a                	sw	s2,0(sp)
    2196:	c606                	sw	ra,12(sp)
    2198:	892a                	mv	s2,a0
    219a:	842e                	mv	s0,a1
    219c:	c489                	beqz	s1,21a6 <__swsetup_r+0x1e>
    219e:	4c9c                	lw	a5,24(s1)
    21a0:	e399                	bnez	a5,21a6 <__swsetup_r+0x1e>
    21a2:	8526                	mv	a0,s1
    21a4:	26a9                	jal	24ee <__sinit>
    21a6:	00002797          	auipc	a5,0x2
    21aa:	8fa78793          	addi	a5,a5,-1798 # 3aa0 <__sf_fake_stdin>
    21ae:	02f41c63          	bne	s0,a5,21e6 <__swsetup_r+0x5e>
    21b2:	40c0                	lw	s0,4(s1)
    21b4:	00c41703          	lh	a4,12(s0)
    21b8:	01071793          	slli	a5,a4,0x10
    21bc:	83c1                	srli	a5,a5,0x10
    21be:	0087f693          	andi	a3,a5,8
    21c2:	eeb5                	bnez	a3,223e <__swsetup_r+0xb6>
    21c4:	0107f693          	andi	a3,a5,16
    21c8:	ee9d                	bnez	a3,2206 <__swsetup_r+0x7e>
    21ca:	47a5                	li	a5,9
    21cc:	00f92023          	sw	a5,0(s2)
    21d0:	04076713          	ori	a4,a4,64
    21d4:	00e41623          	sh	a4,12(s0)
    21d8:	557d                	li	a0,-1
    21da:	40b2                	lw	ra,12(sp)
    21dc:	4422                	lw	s0,8(sp)
    21de:	4492                	lw	s1,4(sp)
    21e0:	4902                	lw	s2,0(sp)
    21e2:	0141                	addi	sp,sp,16
    21e4:	8082                	ret
    21e6:	00002797          	auipc	a5,0x2
    21ea:	8da78793          	addi	a5,a5,-1830 # 3ac0 <__sf_fake_stdout>
    21ee:	00f41463          	bne	s0,a5,21f6 <__swsetup_r+0x6e>
    21f2:	4480                	lw	s0,8(s1)
    21f4:	b7c1                	j	21b4 <__swsetup_r+0x2c>
    21f6:	00002797          	auipc	a5,0x2
    21fa:	88a78793          	addi	a5,a5,-1910 # 3a80 <__sf_fake_stderr>
    21fe:	faf41be3          	bne	s0,a5,21b4 <__swsetup_r+0x2c>
    2202:	44c0                	lw	s0,12(s1)
    2204:	bf45                	j	21b4 <__swsetup_r+0x2c>
    2206:	8b91                	andi	a5,a5,4
    2208:	c78d                	beqz	a5,2232 <__swsetup_r+0xaa>
    220a:	584c                	lw	a1,52(s0)
    220c:	c989                	beqz	a1,221e <__swsetup_r+0x96>
    220e:	04440793          	addi	a5,s0,68
    2212:	00f58463          	beq	a1,a5,221a <__swsetup_r+0x92>
    2216:	854a                	mv	a0,s2
    2218:	2391                	jal	275c <_free_r>
    221a:	02042a23          	sw	zero,52(s0)
    221e:	00c45783          	lhu	a5,12(s0)
    2222:	00042223          	sw	zero,4(s0)
    2226:	fdb7f793          	andi	a5,a5,-37
    222a:	00f41623          	sh	a5,12(s0)
    222e:	481c                	lw	a5,16(s0)
    2230:	c01c                	sw	a5,0(s0)
    2232:	00c45783          	lhu	a5,12(s0)
    2236:	0087e793          	ori	a5,a5,8
    223a:	00f41623          	sh	a5,12(s0)
    223e:	481c                	lw	a5,16(s0)
    2240:	ef81                	bnez	a5,2258 <__swsetup_r+0xd0>
    2242:	00c45783          	lhu	a5,12(s0)
    2246:	20000713          	li	a4,512
    224a:	2807f793          	andi	a5,a5,640
    224e:	00e78563          	beq	a5,a4,2258 <__swsetup_r+0xd0>
    2252:	85a2                	mv	a1,s0
    2254:	854a                	mv	a0,s2
    2256:	21a5                	jal	26be <__smakebuf_r>
    2258:	00c45783          	lhu	a5,12(s0)
    225c:	0017f713          	andi	a4,a5,1
    2260:	c705                	beqz	a4,2288 <__swsetup_r+0x100>
    2262:	485c                	lw	a5,20(s0)
    2264:	00042423          	sw	zero,8(s0)
    2268:	40f007b3          	neg	a5,a5
    226c:	cc1c                	sw	a5,24(s0)
    226e:	481c                	lw	a5,16(s0)
    2270:	4501                	li	a0,0
    2272:	f7a5                	bnez	a5,21da <__swsetup_r+0x52>
    2274:	00c41783          	lh	a5,12(s0)
    2278:	0807f713          	andi	a4,a5,128
    227c:	df39                	beqz	a4,21da <__swsetup_r+0x52>
    227e:	0407e793          	ori	a5,a5,64
    2282:	00f41623          	sh	a5,12(s0)
    2286:	bf89                	j	21d8 <__swsetup_r+0x50>
    2288:	8b89                	andi	a5,a5,2
    228a:	4701                	li	a4,0
    228c:	e391                	bnez	a5,2290 <__swsetup_r+0x108>
    228e:	4858                	lw	a4,20(s0)
    2290:	c418                	sw	a4,8(s0)
    2292:	bff1                	j	226e <__swsetup_r+0xe6>

00002294 <__sflush_r>:
__sflush_r():
    2294:	00c5d783          	lhu	a5,12(a1)
    2298:	1101                	addi	sp,sp,-32
    229a:	cc22                	sw	s0,24(sp)
    229c:	ca26                	sw	s1,20(sp)
    229e:	ce06                	sw	ra,28(sp)
    22a0:	c84a                	sw	s2,16(sp)
    22a2:	c64e                	sw	s3,12(sp)
    22a4:	0087f713          	andi	a4,a5,8
    22a8:	84aa                	mv	s1,a0
    22aa:	842e                	mv	s0,a1
    22ac:	ef71                	bnez	a4,2388 <__sflush_r+0xf4>
    22ae:	41d8                	lw	a4,4(a1)
    22b0:	00e04d63          	bgtz	a4,22ca <__sflush_r+0x36>
    22b4:	41b8                	lw	a4,64(a1)
    22b6:	00e04a63          	bgtz	a4,22ca <__sflush_r+0x36>
    22ba:	4501                	li	a0,0
    22bc:	40f2                	lw	ra,28(sp)
    22be:	4462                	lw	s0,24(sp)
    22c0:	44d2                	lw	s1,20(sp)
    22c2:	4942                	lw	s2,16(sp)
    22c4:	49b2                	lw	s3,12(sp)
    22c6:	6105                	addi	sp,sp,32
    22c8:	8082                	ret
    22ca:	5458                	lw	a4,44(s0)
    22cc:	d77d                	beqz	a4,22ba <__sflush_r+0x26>
    22ce:	0004a903          	lw	s2,0(s1)
    22d2:	01379693          	slli	a3,a5,0x13
    22d6:	0004a023          	sw	zero,0(s1)
    22da:	0606dd63          	bgez	a3,2354 <__sflush_r+0xc0>
    22de:	4870                	lw	a2,84(s0)
    22e0:	00c45783          	lhu	a5,12(s0)
    22e4:	8b91                	andi	a5,a5,4
    22e6:	c799                	beqz	a5,22f4 <__sflush_r+0x60>
    22e8:	405c                	lw	a5,4(s0)
    22ea:	8e1d                	sub	a2,a2,a5
    22ec:	585c                	lw	a5,52(s0)
    22ee:	c399                	beqz	a5,22f4 <__sflush_r+0x60>
    22f0:	403c                	lw	a5,64(s0)
    22f2:	8e1d                	sub	a2,a2,a5
    22f4:	545c                	lw	a5,44(s0)
    22f6:	500c                	lw	a1,32(s0)
    22f8:	4681                	li	a3,0
    22fa:	8526                	mv	a0,s1
    22fc:	9782                	jalr	a5
    22fe:	57fd                	li	a5,-1
    2300:	00c45703          	lhu	a4,12(s0)
    2304:	00f51d63          	bne	a0,a5,231e <__sflush_r+0x8a>
    2308:	4094                	lw	a3,0(s1)
    230a:	47f5                	li	a5,29
    230c:	06d7e863          	bltu	a5,a3,237c <__sflush_r+0xe8>
    2310:	204007b7          	lui	a5,0x20400
    2314:	0785                	addi	a5,a5,1
    2316:	00d7d7b3          	srl	a5,a5,a3
    231a:	8b85                	andi	a5,a5,1
    231c:	c3a5                	beqz	a5,237c <__sflush_r+0xe8>
    231e:	481c                	lw	a5,16(s0)
    2320:	00042223          	sw	zero,4(s0)
    2324:	c01c                	sw	a5,0(s0)
    2326:	01371793          	slli	a5,a4,0x13
    232a:	0007d863          	bgez	a5,233a <__sflush_r+0xa6>
    232e:	57fd                	li	a5,-1
    2330:	00f51463          	bne	a0,a5,2338 <__sflush_r+0xa4>
    2334:	409c                	lw	a5,0(s1)
    2336:	e391                	bnez	a5,233a <__sflush_r+0xa6>
    2338:	c868                	sw	a0,84(s0)
    233a:	584c                	lw	a1,52(s0)
    233c:	0124a023          	sw	s2,0(s1)
    2340:	ddad                	beqz	a1,22ba <__sflush_r+0x26>
    2342:	04440793          	addi	a5,s0,68
    2346:	00f58463          	beq	a1,a5,234e <__sflush_r+0xba>
    234a:	8526                	mv	a0,s1
    234c:	2901                	jal	275c <_free_r>
    234e:	02042a23          	sw	zero,52(s0)
    2352:	b7a5                	j	22ba <__sflush_r+0x26>
    2354:	500c                	lw	a1,32(s0)
    2356:	4601                	li	a2,0
    2358:	4685                	li	a3,1
    235a:	8526                	mv	a0,s1
    235c:	9702                	jalr	a4
    235e:	57fd                	li	a5,-1
    2360:	862a                	mv	a2,a0
    2362:	f6f51fe3          	bne	a0,a5,22e0 <__sflush_r+0x4c>
    2366:	409c                	lw	a5,0(s1)
    2368:	dfa5                	beqz	a5,22e0 <__sflush_r+0x4c>
    236a:	4775                	li	a4,29
    236c:	00e78563          	beq	a5,a4,2376 <__sflush_r+0xe2>
    2370:	4759                	li	a4,22
    2372:	04e79463          	bne	a5,a4,23ba <__sflush_r+0x126>
    2376:	0124a023          	sw	s2,0(s1)
    237a:	b781                	j	22ba <__sflush_r+0x26>
    237c:	04076713          	ori	a4,a4,64
    2380:	00e41623          	sh	a4,12(s0)
    2384:	557d                	li	a0,-1
    2386:	bf1d                	j	22bc <__sflush_r+0x28>
    2388:	0105a983          	lw	s3,16(a1)
    238c:	f20987e3          	beqz	s3,22ba <__sflush_r+0x26>
    2390:	0005a903          	lw	s2,0(a1)
    2394:	8b8d                	andi	a5,a5,3
    2396:	0135a023          	sw	s3,0(a1)
    239a:	41390933          	sub	s2,s2,s3
    239e:	4701                	li	a4,0
    23a0:	e391                	bnez	a5,23a4 <__sflush_r+0x110>
    23a2:	49d8                	lw	a4,20(a1)
    23a4:	c418                	sw	a4,8(s0)
    23a6:	f1205ae3          	blez	s2,22ba <__sflush_r+0x26>
    23aa:	541c                	lw	a5,40(s0)
    23ac:	500c                	lw	a1,32(s0)
    23ae:	86ca                	mv	a3,s2
    23b0:	864e                	mv	a2,s3
    23b2:	8526                	mv	a0,s1
    23b4:	9782                	jalr	a5
    23b6:	00a04963          	bgtz	a0,23c8 <__sflush_r+0x134>
    23ba:	00c45783          	lhu	a5,12(s0)
    23be:	0407e793          	ori	a5,a5,64
    23c2:	00f41623          	sh	a5,12(s0)
    23c6:	bf7d                	j	2384 <__sflush_r+0xf0>
    23c8:	99aa                	add	s3,s3,a0
    23ca:	40a90933          	sub	s2,s2,a0
    23ce:	bfe1                	j	23a6 <__sflush_r+0x112>

000023d0 <_fflush_r>:
_fflush_r():
    23d0:	499c                	lw	a5,16(a1)
    23d2:	cfb9                	beqz	a5,2430 <_fflush_r+0x60>
    23d4:	1101                	addi	sp,sp,-32
    23d6:	cc22                	sw	s0,24(sp)
    23d8:	ce06                	sw	ra,28(sp)
    23da:	842a                	mv	s0,a0
    23dc:	c511                	beqz	a0,23e8 <_fflush_r+0x18>
    23de:	4d1c                	lw	a5,24(a0)
    23e0:	e781                	bnez	a5,23e8 <_fflush_r+0x18>
    23e2:	c62e                	sw	a1,12(sp)
    23e4:	2229                	jal	24ee <__sinit>
    23e6:	45b2                	lw	a1,12(sp)
    23e8:	00001797          	auipc	a5,0x1
    23ec:	6b878793          	addi	a5,a5,1720 # 3aa0 <__sf_fake_stdin>
    23f0:	00f59b63          	bne	a1,a5,2406 <_fflush_r+0x36>
    23f4:	404c                	lw	a1,4(s0)
    23f6:	00c59783          	lh	a5,12(a1)
    23fa:	c795                	beqz	a5,2426 <_fflush_r+0x56>
    23fc:	8522                	mv	a0,s0
    23fe:	4462                	lw	s0,24(sp)
    2400:	40f2                	lw	ra,28(sp)
    2402:	6105                	addi	sp,sp,32
    2404:	bd41                	j	2294 <__sflush_r>
    2406:	00001797          	auipc	a5,0x1
    240a:	6ba78793          	addi	a5,a5,1722 # 3ac0 <__sf_fake_stdout>
    240e:	00f59463          	bne	a1,a5,2416 <_fflush_r+0x46>
    2412:	440c                	lw	a1,8(s0)
    2414:	b7cd                	j	23f6 <_fflush_r+0x26>
    2416:	00001797          	auipc	a5,0x1
    241a:	66a78793          	addi	a5,a5,1642 # 3a80 <__sf_fake_stderr>
    241e:	fcf59ce3          	bne	a1,a5,23f6 <_fflush_r+0x26>
    2422:	444c                	lw	a1,12(s0)
    2424:	bfc9                	j	23f6 <_fflush_r+0x26>
    2426:	40f2                	lw	ra,28(sp)
    2428:	4462                	lw	s0,24(sp)
    242a:	4501                	li	a0,0
    242c:	6105                	addi	sp,sp,32
    242e:	8082                	ret
    2430:	4501                	li	a0,0
    2432:	8082                	ret

00002434 <std>:
std():
    2434:	1141                	addi	sp,sp,-16
    2436:	c422                	sw	s0,8(sp)
    2438:	c606                	sw	ra,12(sp)
    243a:	842a                	mv	s0,a0
    243c:	00b51623          	sh	a1,12(a0)
    2440:	00c51723          	sh	a2,14(a0)
    2444:	00052023          	sw	zero,0(a0)
    2448:	00052223          	sw	zero,4(a0)
    244c:	00052423          	sw	zero,8(a0)
    2450:	06052223          	sw	zero,100(a0)
    2454:	00052823          	sw	zero,16(a0)
    2458:	00052a23          	sw	zero,20(a0)
    245c:	00052c23          	sw	zero,24(a0)
    2460:	4621                	li	a2,8
    2462:	4581                	li	a1,0
    2464:	05c50513          	addi	a0,a0,92
    2468:	cc3fe0ef          	jal	ra,112a <memset>
    246c:	00001797          	auipc	a5,0x1
    2470:	f4478793          	addi	a5,a5,-188 # 33b0 <__sread>
    2474:	d05c                	sw	a5,36(s0)
    2476:	00001797          	auipc	a5,0x1
    247a:	f6a78793          	addi	a5,a5,-150 # 33e0 <__swrite>
    247e:	d41c                	sw	a5,40(s0)
    2480:	00001797          	auipc	a5,0x1
    2484:	fae78793          	addi	a5,a5,-82 # 342e <__sseek>
    2488:	d45c                	sw	a5,44(s0)
    248a:	00001797          	auipc	a5,0x1
    248e:	fda78793          	addi	a5,a5,-38 # 3464 <__sclose>
    2492:	d000                	sw	s0,32(s0)
    2494:	d81c                	sw	a5,48(s0)
    2496:	40b2                	lw	ra,12(sp)
    2498:	4422                	lw	s0,8(sp)
    249a:	0141                	addi	sp,sp,16
    249c:	8082                	ret

0000249e <_cleanup_r>:
_cleanup_r():
    249e:	00000597          	auipc	a1,0x0
    24a2:	f3258593          	addi	a1,a1,-206 # 23d0 <_fflush_r>
    24a6:	aa89                	j	25f8 <_fwalk_reent>

000024a8 <__sfmoreglue>:
__sfmoreglue():
    24a8:	1141                	addi	sp,sp,-16
    24aa:	c226                	sw	s1,4(sp)
    24ac:	06800613          	li	a2,104
    24b0:	fff58493          	addi	s1,a1,-1
    24b4:	02c484b3          	mul	s1,s1,a2
    24b8:	c04a                	sw	s2,0(sp)
    24ba:	892e                	mv	s2,a1
    24bc:	c422                	sw	s0,8(sp)
    24be:	c606                	sw	ra,12(sp)
    24c0:	07448593          	addi	a1,s1,116
    24c4:	2681                	jal	2804 <_malloc_r>
    24c6:	842a                	mv	s0,a0
    24c8:	cd01                	beqz	a0,24e0 <__sfmoreglue+0x38>
    24ca:	00052023          	sw	zero,0(a0)
    24ce:	01252223          	sw	s2,4(a0)
    24d2:	0531                	addi	a0,a0,12
    24d4:	c408                	sw	a0,8(s0)
    24d6:	06848613          	addi	a2,s1,104
    24da:	4581                	li	a1,0
    24dc:	c4ffe0ef          	jal	ra,112a <memset>
    24e0:	8522                	mv	a0,s0
    24e2:	40b2                	lw	ra,12(sp)
    24e4:	4422                	lw	s0,8(sp)
    24e6:	4492                	lw	s1,4(sp)
    24e8:	4902                	lw	s2,0(sp)
    24ea:	0141                	addi	sp,sp,16
    24ec:	8082                	ret

000024ee <__sinit>:
__sinit():
    24ee:	4d1c                	lw	a5,24(a0)
    24f0:	e3bd                	bnez	a5,2556 <__sinit+0x68>
    24f2:	1141                	addi	sp,sp,-16
    24f4:	c606                	sw	ra,12(sp)
    24f6:	c422                	sw	s0,8(sp)
    24f8:	00000797          	auipc	a5,0x0
    24fc:	fa678793          	addi	a5,a5,-90 # 249e <_cleanup_r>
    2500:	d51c                	sw	a5,40(a0)
    2502:	00001797          	auipc	a5,0x1
    2506:	61a78793          	addi	a5,a5,1562 # 3b1c <_global_impure_ptr>
    250a:	439c                	lw	a5,0(a5)
    250c:	04052423          	sw	zero,72(a0)
    2510:	04052623          	sw	zero,76(a0)
    2514:	04052823          	sw	zero,80(a0)
    2518:	00f51463          	bne	a0,a5,2520 <__sinit+0x32>
    251c:	4785                	li	a5,1
    251e:	cd1c                	sw	a5,24(a0)
    2520:	842a                	mv	s0,a0
    2522:	281d                	jal	2558 <__sfp>
    2524:	c048                	sw	a0,4(s0)
    2526:	8522                	mv	a0,s0
    2528:	2805                	jal	2558 <__sfp>
    252a:	c408                	sw	a0,8(s0)
    252c:	8522                	mv	a0,s0
    252e:	202d                	jal	2558 <__sfp>
    2530:	c448                	sw	a0,12(s0)
    2532:	4048                	lw	a0,4(s0)
    2534:	4601                	li	a2,0
    2536:	4591                	li	a1,4
    2538:	3df5                	jal	2434 <std>
    253a:	4408                	lw	a0,8(s0)
    253c:	4605                	li	a2,1
    253e:	45a5                	li	a1,9
    2540:	3dd5                	jal	2434 <std>
    2542:	4448                	lw	a0,12(s0)
    2544:	4609                	li	a2,2
    2546:	45c9                	li	a1,18
    2548:	35f5                	jal	2434 <std>
    254a:	4785                	li	a5,1
    254c:	cc1c                	sw	a5,24(s0)
    254e:	40b2                	lw	ra,12(sp)
    2550:	4422                	lw	s0,8(sp)
    2552:	0141                	addi	sp,sp,16
    2554:	8082                	ret
    2556:	8082                	ret

00002558 <__sfp>:
__sfp():
    2558:	1141                	addi	sp,sp,-16
    255a:	00001797          	auipc	a5,0x1
    255e:	5c278793          	addi	a5,a5,1474 # 3b1c <_global_impure_ptr>
    2562:	c226                	sw	s1,4(sp)
    2564:	4384                	lw	s1,0(a5)
    2566:	c04a                	sw	s2,0(sp)
    2568:	c606                	sw	ra,12(sp)
    256a:	4c9c                	lw	a5,24(s1)
    256c:	c422                	sw	s0,8(sp)
    256e:	892a                	mv	s2,a0
    2570:	e399                	bnez	a5,2576 <__sfp+0x1e>
    2572:	8526                	mv	a0,s1
    2574:	3fad                	jal	24ee <__sinit>
    2576:	04848493          	addi	s1,s1,72
    257a:	4480                	lw	s0,8(s1)
    257c:	40dc                	lw	a5,4(s1)
    257e:	17fd                	addi	a5,a5,-1
    2580:	0007d663          	bgez	a5,258c <__sfp+0x34>
    2584:	409c                	lw	a5,0(s1)
    2586:	cfb9                	beqz	a5,25e4 <__sfp+0x8c>
    2588:	4084                	lw	s1,0(s1)
    258a:	bfc5                	j	257a <__sfp+0x22>
    258c:	00c41703          	lh	a4,12(s0)
    2590:	e739                	bnez	a4,25de <__sfp+0x86>
    2592:	77c1                	lui	a5,0xffff0
    2594:	0785                	addi	a5,a5,1
    2596:	06042223          	sw	zero,100(s0)
    259a:	00042023          	sw	zero,0(s0)
    259e:	00042223          	sw	zero,4(s0)
    25a2:	00042423          	sw	zero,8(s0)
    25a6:	c45c                	sw	a5,12(s0)
    25a8:	00042823          	sw	zero,16(s0)
    25ac:	00042a23          	sw	zero,20(s0)
    25b0:	00042c23          	sw	zero,24(s0)
    25b4:	4621                	li	a2,8
    25b6:	4581                	li	a1,0
    25b8:	05c40513          	addi	a0,s0,92
    25bc:	b6ffe0ef          	jal	ra,112a <memset>
    25c0:	02042a23          	sw	zero,52(s0)
    25c4:	02042c23          	sw	zero,56(s0)
    25c8:	04042423          	sw	zero,72(s0)
    25cc:	04042623          	sw	zero,76(s0)
    25d0:	8522                	mv	a0,s0
    25d2:	40b2                	lw	ra,12(sp)
    25d4:	4422                	lw	s0,8(sp)
    25d6:	4492                	lw	s1,4(sp)
    25d8:	4902                	lw	s2,0(sp)
    25da:	0141                	addi	sp,sp,16
    25dc:	8082                	ret
    25de:	06840413          	addi	s0,s0,104
    25e2:	bf71                	j	257e <__sfp+0x26>
    25e4:	4591                	li	a1,4
    25e6:	854a                	mv	a0,s2
    25e8:	35c1                	jal	24a8 <__sfmoreglue>
    25ea:	c088                	sw	a0,0(s1)
    25ec:	fd51                	bnez	a0,2588 <__sfp+0x30>
    25ee:	47b1                	li	a5,12
    25f0:	00f92023          	sw	a5,0(s2)
    25f4:	4401                	li	s0,0
    25f6:	bfe9                	j	25d0 <__sfp+0x78>

000025f8 <_fwalk_reent>:
_fwalk_reent():
    25f8:	7179                	addi	sp,sp,-48
    25fa:	d422                	sw	s0,40(sp)
    25fc:	d04a                	sw	s2,32(sp)
    25fe:	cc52                	sw	s4,24(sp)
    2600:	ca56                	sw	s5,20(sp)
    2602:	c85a                	sw	s6,16(sp)
    2604:	c65e                	sw	s7,12(sp)
    2606:	d606                	sw	ra,44(sp)
    2608:	d226                	sw	s1,36(sp)
    260a:	ce4e                	sw	s3,28(sp)
    260c:	8a2a                	mv	s4,a0
    260e:	8aae                	mv	s5,a1
    2610:	04850413          	addi	s0,a0,72
    2614:	4901                	li	s2,0
    2616:	4b05                	li	s6,1
    2618:	5bfd                	li	s7,-1
    261a:	ec09                	bnez	s0,2634 <_fwalk_reent+0x3c>
    261c:	50b2                	lw	ra,44(sp)
    261e:	5422                	lw	s0,40(sp)
    2620:	854a                	mv	a0,s2
    2622:	5492                	lw	s1,36(sp)
    2624:	5902                	lw	s2,32(sp)
    2626:	49f2                	lw	s3,28(sp)
    2628:	4a62                	lw	s4,24(sp)
    262a:	4ad2                	lw	s5,20(sp)
    262c:	4b42                	lw	s6,16(sp)
    262e:	4bb2                	lw	s7,12(sp)
    2630:	6145                	addi	sp,sp,48
    2632:	8082                	ret
    2634:	4404                	lw	s1,8(s0)
    2636:	00442983          	lw	s3,4(s0)
    263a:	19fd                	addi	s3,s3,-1
    263c:	0009d463          	bgez	s3,2644 <_fwalk_reent+0x4c>
    2640:	4000                	lw	s0,0(s0)
    2642:	bfe1                	j	261a <_fwalk_reent+0x22>
    2644:	00c4d783          	lhu	a5,12(s1)
    2648:	00fb7b63          	bgeu	s6,a5,265e <_fwalk_reent+0x66>
    264c:	00e49783          	lh	a5,14(s1)
    2650:	01778763          	beq	a5,s7,265e <_fwalk_reent+0x66>
    2654:	85a6                	mv	a1,s1
    2656:	8552                	mv	a0,s4
    2658:	9a82                	jalr	s5
    265a:	00a96933          	or	s2,s2,a0
    265e:	06848493          	addi	s1,s1,104
    2662:	bfe1                	j	263a <_fwalk_reent+0x42>

00002664 <__swhatbuf_r>:
__swhatbuf_r():
    2664:	7119                	addi	sp,sp,-128
    2666:	daa6                	sw	s1,116(sp)
    2668:	84ae                	mv	s1,a1
    266a:	00e59583          	lh	a1,14(a1)
    266e:	dca2                	sw	s0,120(sp)
    2670:	de86                	sw	ra,124(sp)
    2672:	8432                	mv	s0,a2
    2674:	0005dc63          	bgez	a1,268c <__swhatbuf_r+0x28>
    2678:	00c4d783          	lhu	a5,12(s1)
    267c:	0006a023          	sw	zero,0(a3)
    2680:	0807f793          	andi	a5,a5,128
    2684:	e785                	bnez	a5,26ac <__swhatbuf_r+0x48>
    2686:	40000793          	li	a5,1024
    268a:	a01d                	j	26b0 <__swhatbuf_r+0x4c>
    268c:	0830                	addi	a2,sp,24
    268e:	c636                	sw	a3,12(sp)
    2690:	631000ef          	jal	ra,34c0 <_fstat_r>
    2694:	46b2                	lw	a3,12(sp)
    2696:	fe0541e3          	bltz	a0,2678 <__swhatbuf_r+0x14>
    269a:	4772                	lw	a4,28(sp)
    269c:	67bd                	lui	a5,0xf
    269e:	8ff9                	and	a5,a5,a4
    26a0:	7779                	lui	a4,0xffffe
    26a2:	97ba                	add	a5,a5,a4
    26a4:	0017b793          	seqz	a5,a5
    26a8:	c29c                	sw	a5,0(a3)
    26aa:	bff1                	j	2686 <__swhatbuf_r+0x22>
    26ac:	04000793          	li	a5,64
    26b0:	c01c                	sw	a5,0(s0)
    26b2:	50f6                	lw	ra,124(sp)
    26b4:	5466                	lw	s0,120(sp)
    26b6:	54d6                	lw	s1,116(sp)
    26b8:	4501                	li	a0,0
    26ba:	6109                	addi	sp,sp,128
    26bc:	8082                	ret

000026be <__smakebuf_r>:
__smakebuf_r():
    26be:	00c5d783          	lhu	a5,12(a1)
    26c2:	1101                	addi	sp,sp,-32
    26c4:	cc22                	sw	s0,24(sp)
    26c6:	ce06                	sw	ra,28(sp)
    26c8:	ca26                	sw	s1,20(sp)
    26ca:	c84a                	sw	s2,16(sp)
    26cc:	8b89                	andi	a5,a5,2
    26ce:	842e                	mv	s0,a1
    26d0:	cf89                	beqz	a5,26ea <__smakebuf_r+0x2c>
    26d2:	04740793          	addi	a5,s0,71
    26d6:	c01c                	sw	a5,0(s0)
    26d8:	c81c                	sw	a5,16(s0)
    26da:	4785                	li	a5,1
    26dc:	c85c                	sw	a5,20(s0)
    26de:	40f2                	lw	ra,28(sp)
    26e0:	4462                	lw	s0,24(sp)
    26e2:	44d2                	lw	s1,20(sp)
    26e4:	4942                	lw	s2,16(sp)
    26e6:	6105                	addi	sp,sp,32
    26e8:	8082                	ret
    26ea:	0074                	addi	a3,sp,12
    26ec:	0030                	addi	a2,sp,8
    26ee:	84aa                	mv	s1,a0
    26f0:	3f95                	jal	2664 <__swhatbuf_r>
    26f2:	45a2                	lw	a1,8(sp)
    26f4:	892a                	mv	s2,a0
    26f6:	8526                	mv	a0,s1
    26f8:	2231                	jal	2804 <_malloc_r>
    26fa:	ed01                	bnez	a0,2712 <__smakebuf_r+0x54>
    26fc:	00c41783          	lh	a5,12(s0)
    2700:	2007f713          	andi	a4,a5,512
    2704:	ff69                	bnez	a4,26de <__smakebuf_r+0x20>
    2706:	9bf1                	andi	a5,a5,-4
    2708:	0027e793          	ori	a5,a5,2
    270c:	00f41623          	sh	a5,12(s0)
    2710:	b7c9                	j	26d2 <__smakebuf_r+0x14>
    2712:	00000797          	auipc	a5,0x0
    2716:	d8c78793          	addi	a5,a5,-628 # 249e <_cleanup_r>
    271a:	d49c                	sw	a5,40(s1)
    271c:	00c45783          	lhu	a5,12(s0)
    2720:	c008                	sw	a0,0(s0)
    2722:	c808                	sw	a0,16(s0)
    2724:	0807e793          	ori	a5,a5,128
    2728:	00f41623          	sh	a5,12(s0)
    272c:	47a2                	lw	a5,8(sp)
    272e:	c85c                	sw	a5,20(s0)
    2730:	47b2                	lw	a5,12(sp)
    2732:	cf91                	beqz	a5,274e <__smakebuf_r+0x90>
    2734:	00e41583          	lh	a1,14(s0)
    2738:	8526                	mv	a0,s1
    273a:	5b1000ef          	jal	ra,34ea <_isatty_r>
    273e:	c901                	beqz	a0,274e <__smakebuf_r+0x90>
    2740:	00c45783          	lhu	a5,12(s0)
    2744:	9bf1                	andi	a5,a5,-4
    2746:	0017e793          	ori	a5,a5,1
    274a:	00f41623          	sh	a5,12(s0)
    274e:	00c45783          	lhu	a5,12(s0)
    2752:	00f96933          	or	s2,s2,a5
    2756:	01241623          	sh	s2,12(s0)
    275a:	b751                	j	26de <__smakebuf_r+0x20>

0000275c <_free_r>:
_free_r():
    275c:	c1dd                	beqz	a1,2802 <_free_r+0xa6>
    275e:	ffc5a783          	lw	a5,-4(a1)
    2762:	1141                	addi	sp,sp,-16
    2764:	c422                	sw	s0,8(sp)
    2766:	c606                	sw	ra,12(sp)
    2768:	c226                	sw	s1,4(sp)
    276a:	ffc58413          	addi	s0,a1,-4
    276e:	0007d363          	bgez	a5,2774 <_free_r+0x18>
    2772:	943e                	add	s0,s0,a5
    2774:	84aa                	mv	s1,a0
    2776:	62d000ef          	jal	ra,35a2 <__malloc_lock>
    277a:	83418793          	addi	a5,gp,-1996 # 20001114 <__malloc_free_list>
    277e:	439c                	lw	a5,0(a5)
    2780:	ef81                	bnez	a5,2798 <_free_r+0x3c>
    2782:	00042223          	sw	zero,4(s0)
    2786:	8281aa23          	sw	s0,-1996(gp) # 20001114 <__malloc_free_list>
    278a:	4422                	lw	s0,8(sp)
    278c:	40b2                	lw	ra,12(sp)
    278e:	8526                	mv	a0,s1
    2790:	4492                	lw	s1,4(sp)
    2792:	0141                	addi	sp,sp,16
    2794:	6110006f          	j	35a4 <__malloc_unlock>
    2798:	00f47e63          	bgeu	s0,a5,27b4 <_free_r+0x58>
    279c:	4014                	lw	a3,0(s0)
    279e:	00d40733          	add	a4,s0,a3
    27a2:	00e79663          	bne	a5,a4,27ae <_free_r+0x52>
    27a6:	4398                	lw	a4,0(a5)
    27a8:	43dc                	lw	a5,4(a5)
    27aa:	9736                	add	a4,a4,a3
    27ac:	c018                	sw	a4,0(s0)
    27ae:	c05c                	sw	a5,4(s0)
    27b0:	bfd9                	j	2786 <_free_r+0x2a>
    27b2:	87ba                	mv	a5,a4
    27b4:	43d8                	lw	a4,4(a5)
    27b6:	c319                	beqz	a4,27bc <_free_r+0x60>
    27b8:	fee47de3          	bgeu	s0,a4,27b2 <_free_r+0x56>
    27bc:	4394                	lw	a3,0(a5)
    27be:	00d78633          	add	a2,a5,a3
    27c2:	00861f63          	bne	a2,s0,27e0 <_free_r+0x84>
    27c6:	4010                	lw	a2,0(s0)
    27c8:	96b2                	add	a3,a3,a2
    27ca:	c394                	sw	a3,0(a5)
    27cc:	00d78633          	add	a2,a5,a3
    27d0:	fac71de3          	bne	a4,a2,278a <_free_r+0x2e>
    27d4:	4310                	lw	a2,0(a4)
    27d6:	4358                	lw	a4,4(a4)
    27d8:	96b2                	add	a3,a3,a2
    27da:	c394                	sw	a3,0(a5)
    27dc:	c3d8                	sw	a4,4(a5)
    27de:	b775                	j	278a <_free_r+0x2e>
    27e0:	00c47563          	bgeu	s0,a2,27ea <_free_r+0x8e>
    27e4:	47b1                	li	a5,12
    27e6:	c09c                	sw	a5,0(s1)
    27e8:	b74d                	j	278a <_free_r+0x2e>
    27ea:	4010                	lw	a2,0(s0)
    27ec:	00c406b3          	add	a3,s0,a2
    27f0:	00d71663          	bne	a4,a3,27fc <_free_r+0xa0>
    27f4:	4314                	lw	a3,0(a4)
    27f6:	4358                	lw	a4,4(a4)
    27f8:	96b2                	add	a3,a3,a2
    27fa:	c014                	sw	a3,0(s0)
    27fc:	c058                	sw	a4,4(s0)
    27fe:	c3c0                	sw	s0,4(a5)
    2800:	b769                	j	278a <_free_r+0x2e>
    2802:	8082                	ret

00002804 <_malloc_r>:
_malloc_r():
    2804:	1101                	addi	sp,sp,-32
    2806:	ca26                	sw	s1,20(sp)
    2808:	00358493          	addi	s1,a1,3
    280c:	98f1                	andi	s1,s1,-4
    280e:	ce06                	sw	ra,28(sp)
    2810:	cc22                	sw	s0,24(sp)
    2812:	c84a                	sw	s2,16(sp)
    2814:	c64e                	sw	s3,12(sp)
    2816:	04a1                	addi	s1,s1,8
    2818:	47b1                	li	a5,12
    281a:	04f4f563          	bgeu	s1,a5,2864 <_malloc_r+0x60>
    281e:	44b1                	li	s1,12
    2820:	04b4e463          	bltu	s1,a1,2868 <_malloc_r+0x64>
    2824:	892a                	mv	s2,a0
    2826:	57d000ef          	jal	ra,35a2 <__malloc_lock>
    282a:	83418793          	addi	a5,gp,-1996 # 20001114 <__malloc_free_list>
    282e:	4398                	lw	a4,0(a5)
    2830:	843a                	mv	s0,a4
    2832:	e429                	bnez	s0,287c <_malloc_r+0x78>
    2834:	83818793          	addi	a5,gp,-1992 # 20001118 <__malloc_sbrk_start>
    2838:	439c                	lw	a5,0(a5)
    283a:	e799                	bnez	a5,2848 <_malloc_r+0x44>
    283c:	4581                	li	a1,0
    283e:	854a                	mv	a0,s2
    2840:	347000ef          	jal	ra,3386 <_sbrk_r>
    2844:	82a1ac23          	sw	a0,-1992(gp) # 20001118 <__malloc_sbrk_start>
    2848:	85a6                	mv	a1,s1
    284a:	854a                	mv	a0,s2
    284c:	33b000ef          	jal	ra,3386 <_sbrk_r>
    2850:	59fd                	li	s3,-1
    2852:	07351963          	bne	a0,s3,28c4 <_malloc_r+0xc0>
    2856:	47b1                	li	a5,12
    2858:	00f92023          	sw	a5,0(s2)
    285c:	854a                	mv	a0,s2
    285e:	547000ef          	jal	ra,35a4 <__malloc_unlock>
    2862:	a029                	j	286c <_malloc_r+0x68>
    2864:	fa04dee3          	bgez	s1,2820 <_malloc_r+0x1c>
    2868:	47b1                	li	a5,12
    286a:	c11c                	sw	a5,0(a0)
    286c:	4501                	li	a0,0
    286e:	40f2                	lw	ra,28(sp)
    2870:	4462                	lw	s0,24(sp)
    2872:	44d2                	lw	s1,20(sp)
    2874:	4942                	lw	s2,16(sp)
    2876:	49b2                	lw	s3,12(sp)
    2878:	6105                	addi	sp,sp,32
    287a:	8082                	ret
    287c:	401c                	lw	a5,0(s0)
    287e:	8f85                	sub	a5,a5,s1
    2880:	0207cf63          	bltz	a5,28be <_malloc_r+0xba>
    2884:	46ad                	li	a3,11
    2886:	00f6f663          	bgeu	a3,a5,2892 <_malloc_r+0x8e>
    288a:	c01c                	sw	a5,0(s0)
    288c:	943e                	add	s0,s0,a5
    288e:	c004                	sw	s1,0(s0)
    2890:	a031                	j	289c <_malloc_r+0x98>
    2892:	405c                	lw	a5,4(s0)
    2894:	02871363          	bne	a4,s0,28ba <_malloc_r+0xb6>
    2898:	82f1aa23          	sw	a5,-1996(gp) # 20001114 <__malloc_free_list>
    289c:	854a                	mv	a0,s2
    289e:	507000ef          	jal	ra,35a4 <__malloc_unlock>
    28a2:	00b40513          	addi	a0,s0,11
    28a6:	00440793          	addi	a5,s0,4
    28aa:	9961                	andi	a0,a0,-8
    28ac:	40f50733          	sub	a4,a0,a5
    28b0:	df5d                	beqz	a4,286e <_malloc_r+0x6a>
    28b2:	943a                	add	s0,s0,a4
    28b4:	8f89                	sub	a5,a5,a0
    28b6:	c01c                	sw	a5,0(s0)
    28b8:	bf5d                	j	286e <_malloc_r+0x6a>
    28ba:	c35c                	sw	a5,4(a4)
    28bc:	b7c5                	j	289c <_malloc_r+0x98>
    28be:	8722                	mv	a4,s0
    28c0:	4040                	lw	s0,4(s0)
    28c2:	bf85                	j	2832 <_malloc_r+0x2e>
    28c4:	00350413          	addi	s0,a0,3
    28c8:	9871                	andi	s0,s0,-4
    28ca:	fc8502e3          	beq	a0,s0,288e <_malloc_r+0x8a>
    28ce:	40a405b3          	sub	a1,s0,a0
    28d2:	854a                	mv	a0,s2
    28d4:	2b3000ef          	jal	ra,3386 <_sbrk_r>
    28d8:	fb351be3          	bne	a0,s3,288e <_malloc_r+0x8a>
    28dc:	bfad                	j	2856 <_malloc_r+0x52>

000028de <__ssputs_r>:
__ssputs_r():
    28de:	1101                	addi	sp,sp,-32
    28e0:	c84a                	sw	s2,16(sp)
    28e2:	0085a903          	lw	s2,8(a1)
    28e6:	cc22                	sw	s0,24(sp)
    28e8:	c452                	sw	s4,8(sp)
    28ea:	c05a                	sw	s6,0(sp)
    28ec:	ce06                	sw	ra,28(sp)
    28ee:	ca26                	sw	s1,20(sp)
    28f0:	c64e                	sw	s3,12(sp)
    28f2:	c256                	sw	s5,4(sp)
    28f4:	842e                	mv	s0,a1
    28f6:	8b32                	mv	s6,a2
    28f8:	8a36                	mv	s4,a3
    28fa:	0926ed63          	bltu	a3,s2,2994 <__ssputs_r+0xb6>
    28fe:	00c5d783          	lhu	a5,12(a1)
    2902:	4807f713          	andi	a4,a5,1152
    2906:	c749                	beqz	a4,2990 <__ssputs_r+0xb2>
    2908:	4004                	lw	s1,0(s0)
    290a:	498c                	lw	a1,16(a1)
    290c:	4858                	lw	a4,20(s0)
    290e:	8aaa                	mv	s5,a0
    2910:	40b489b3          	sub	s3,s1,a1
    2914:	448d                	li	s1,3
    2916:	02e484b3          	mul	s1,s1,a4
    291a:	4709                	li	a4,2
    291c:	02e4c4b3          	div	s1,s1,a4
    2920:	00168713          	addi	a4,a3,1
    2924:	974e                	add	a4,a4,s3
    2926:	00e4f363          	bgeu	s1,a4,292c <__ssputs_r+0x4e>
    292a:	84ba                	mv	s1,a4
    292c:	4007f793          	andi	a5,a5,1024
    2930:	c3d1                	beqz	a5,29b4 <__ssputs_r+0xd6>
    2932:	85a6                	mv	a1,s1
    2934:	8556                	mv	a0,s5
    2936:	35f9                	jal	2804 <_malloc_r>
    2938:	892a                	mv	s2,a0
    293a:	e50d                	bnez	a0,2964 <__ssputs_r+0x86>
    293c:	47b1                	li	a5,12
    293e:	00faa023          	sw	a5,0(s5)
    2942:	00c45783          	lhu	a5,12(s0)
    2946:	557d                	li	a0,-1
    2948:	0407e793          	ori	a5,a5,64
    294c:	00f41623          	sh	a5,12(s0)
    2950:	40f2                	lw	ra,28(sp)
    2952:	4462                	lw	s0,24(sp)
    2954:	44d2                	lw	s1,20(sp)
    2956:	4942                	lw	s2,16(sp)
    2958:	49b2                	lw	s3,12(sp)
    295a:	4a22                	lw	s4,8(sp)
    295c:	4a92                	lw	s5,4(sp)
    295e:	4b02                	lw	s6,0(sp)
    2960:	6105                	addi	sp,sp,32
    2962:	8082                	ret
    2964:	480c                	lw	a1,16(s0)
    2966:	864e                	mv	a2,s3
    2968:	cccff0ef          	jal	ra,1e34 <memcpy>
    296c:	00c45783          	lhu	a5,12(s0)
    2970:	b7f7f793          	andi	a5,a5,-1153
    2974:	0807e793          	ori	a5,a5,128
    2978:	00f41623          	sh	a5,12(s0)
    297c:	01242823          	sw	s2,16(s0)
    2980:	c844                	sw	s1,20(s0)
    2982:	994e                	add	s2,s2,s3
    2984:	413484b3          	sub	s1,s1,s3
    2988:	01242023          	sw	s2,0(s0)
    298c:	c404                	sw	s1,8(s0)
    298e:	8952                	mv	s2,s4
    2990:	012a7363          	bgeu	s4,s2,2996 <__ssputs_r+0xb8>
    2994:	8952                	mv	s2,s4
    2996:	4008                	lw	a0,0(s0)
    2998:	864a                	mv	a2,s2
    299a:	85da                	mv	a1,s6
    299c:	3bd000ef          	jal	ra,3558 <memmove>
    29a0:	441c                	lw	a5,8(s0)
    29a2:	4501                	li	a0,0
    29a4:	412787b3          	sub	a5,a5,s2
    29a8:	c41c                	sw	a5,8(s0)
    29aa:	401c                	lw	a5,0(s0)
    29ac:	993e                	add	s2,s2,a5
    29ae:	01242023          	sw	s2,0(s0)
    29b2:	bf79                	j	2950 <__ssputs_r+0x72>
    29b4:	8626                	mv	a2,s1
    29b6:	8556                	mv	a0,s5
    29b8:	3ef000ef          	jal	ra,35a6 <_realloc_r>
    29bc:	892a                	mv	s2,a0
    29be:	fd5d                	bnez	a0,297c <__ssputs_r+0x9e>
    29c0:	480c                	lw	a1,16(s0)
    29c2:	8556                	mv	a0,s5
    29c4:	3b61                	jal	275c <_free_r>
    29c6:	bf9d                	j	293c <__ssputs_r+0x5e>

000029c8 <_svfiprintf_r>:
_svfprintf_r():
    29c8:	00c5d783          	lhu	a5,12(a1)
    29cc:	7171                	addi	sp,sp,-176
    29ce:	d326                	sw	s1,164(sp)
    29d0:	d14a                	sw	s2,160(sp)
    29d2:	cf4e                	sw	s3,156(sp)
    29d4:	d706                	sw	ra,172(sp)
    29d6:	d522                	sw	s0,168(sp)
    29d8:	cd52                	sw	s4,152(sp)
    29da:	cb56                	sw	s5,148(sp)
    29dc:	c95a                	sw	s6,144(sp)
    29de:	c75e                	sw	s7,140(sp)
    29e0:	c562                	sw	s8,136(sp)
    29e2:	c366                	sw	s9,132(sp)
    29e4:	0807f793          	andi	a5,a5,128
    29e8:	89aa                	mv	s3,a0
    29ea:	892e                	mv	s2,a1
    29ec:	84b2                	mv	s1,a2
    29ee:	c3b1                	beqz	a5,2a32 <_svfiprintf_r+0x6a>
    29f0:	499c                	lw	a5,16(a1)
    29f2:	e3a1                	bnez	a5,2a32 <_svfiprintf_r+0x6a>
    29f4:	04000593          	li	a1,64
    29f8:	c636                	sw	a3,12(sp)
    29fa:	3529                	jal	2804 <_malloc_r>
    29fc:	00a92023          	sw	a0,0(s2)
    2a00:	00a92823          	sw	a0,16(s2)
    2a04:	46b2                	lw	a3,12(sp)
    2a06:	e115                	bnez	a0,2a2a <_svfiprintf_r+0x62>
    2a08:	47b1                	li	a5,12
    2a0a:	00f9a023          	sw	a5,0(s3)
    2a0e:	557d                	li	a0,-1
    2a10:	50ba                	lw	ra,172(sp)
    2a12:	542a                	lw	s0,168(sp)
    2a14:	549a                	lw	s1,164(sp)
    2a16:	590a                	lw	s2,160(sp)
    2a18:	49fa                	lw	s3,156(sp)
    2a1a:	4a6a                	lw	s4,152(sp)
    2a1c:	4ada                	lw	s5,148(sp)
    2a1e:	4b4a                	lw	s6,144(sp)
    2a20:	4bba                	lw	s7,140(sp)
    2a22:	4c2a                	lw	s8,136(sp)
    2a24:	4c9a                	lw	s9,132(sp)
    2a26:	614d                	addi	sp,sp,176
    2a28:	8082                	ret
    2a2a:	04000793          	li	a5,64
    2a2e:	00f92a23          	sw	a5,20(s2)
    2a32:	02000793          	li	a5,32
    2a36:	02f10ca3          	sb	a5,57(sp)
    2a3a:	03000793          	li	a5,48
    2a3e:	da02                	sw	zero,52(sp)
    2a40:	02f10d23          	sb	a5,58(sp)
    2a44:	ce36                	sw	a3,28(sp)
    2a46:	02500b93          	li	s7,37
    2a4a:	00001a97          	auipc	s5,0x1
    2a4e:	096a8a93          	addi	s5,s5,150 # 3ae0 <__sf_fake_stdout+0x20>
    2a52:	4c05                	li	s8,1
    2a54:	4b29                	li	s6,10
    2a56:	8426                	mv	s0,s1
    2a58:	00044783          	lbu	a5,0(s0)
    2a5c:	c399                	beqz	a5,2a62 <_svfiprintf_r+0x9a>
    2a5e:	09779c63          	bne	a5,s7,2af6 <_svfiprintf_r+0x12e>
    2a62:	40940cb3          	sub	s9,s0,s1
    2a66:	000c8d63          	beqz	s9,2a80 <_svfiprintf_r+0xb8>
    2a6a:	86e6                	mv	a3,s9
    2a6c:	8626                	mv	a2,s1
    2a6e:	85ca                	mv	a1,s2
    2a70:	854e                	mv	a0,s3
    2a72:	35b5                	jal	28de <__ssputs_r>
    2a74:	57fd                	li	a5,-1
    2a76:	1af50463          	beq	a0,a5,2c1e <_svfiprintf_r+0x256>
    2a7a:	56d2                	lw	a3,52(sp)
    2a7c:	96e6                	add	a3,a3,s9
    2a7e:	da36                	sw	a3,52(sp)
    2a80:	00044783          	lbu	a5,0(s0)
    2a84:	18078d63          	beqz	a5,2c1e <_svfiprintf_r+0x256>
    2a88:	57fd                	li	a5,-1
    2a8a:	00140493          	addi	s1,s0,1
    2a8e:	d002                	sw	zero,32(sp)
    2a90:	d602                	sw	zero,44(sp)
    2a92:	d23e                	sw	a5,36(sp)
    2a94:	d402                	sw	zero,40(sp)
    2a96:	060101a3          	sb	zero,99(sp)
    2a9a:	dc82                	sw	zero,120(sp)
    2a9c:	0004c583          	lbu	a1,0(s1)
    2aa0:	4615                	li	a2,5
    2aa2:	8556                	mv	a0,s5
    2aa4:	29b000ef          	jal	ra,353e <memchr>
    2aa8:	00148413          	addi	s0,s1,1
    2aac:	5782                	lw	a5,32(sp)
    2aae:	e531                	bnez	a0,2afa <_svfiprintf_r+0x132>
    2ab0:	0107f713          	andi	a4,a5,16
    2ab4:	c709                	beqz	a4,2abe <_svfiprintf_r+0xf6>
    2ab6:	02000713          	li	a4,32
    2aba:	06e101a3          	sb	a4,99(sp)
    2abe:	0087f713          	andi	a4,a5,8
    2ac2:	c709                	beqz	a4,2acc <_svfiprintf_r+0x104>
    2ac4:	02b00713          	li	a4,43
    2ac8:	06e101a3          	sb	a4,99(sp)
    2acc:	0004c683          	lbu	a3,0(s1)
    2ad0:	02a00713          	li	a4,42
    2ad4:	02e68b63          	beq	a3,a4,2b0a <_svfiprintf_r+0x142>
    2ad8:	57b2                	lw	a5,44(sp)
    2ada:	8426                	mv	s0,s1
    2adc:	4681                	li	a3,0
    2ade:	4625                	li	a2,9
    2ae0:	00044703          	lbu	a4,0(s0)
    2ae4:	00140593          	addi	a1,s0,1
    2ae8:	fd070713          	addi	a4,a4,-48 # ffffdfd0 <_eusrstack+0xdfff77d0>
    2aec:	06e67463          	bgeu	a2,a4,2b54 <_svfiprintf_r+0x18c>
    2af0:	c68d                	beqz	a3,2b1a <_svfiprintf_r+0x152>
    2af2:	d63e                	sw	a5,44(sp)
    2af4:	a01d                	j	2b1a <_svfiprintf_r+0x152>
    2af6:	0405                	addi	s0,s0,1
    2af8:	b785                	j	2a58 <_svfiprintf_r+0x90>
    2afa:	41550533          	sub	a0,a0,s5
    2afe:	00ac1533          	sll	a0,s8,a0
    2b02:	8fc9                	or	a5,a5,a0
    2b04:	d03e                	sw	a5,32(sp)
    2b06:	84a2                	mv	s1,s0
    2b08:	bf51                	j	2a9c <_svfiprintf_r+0xd4>
    2b0a:	4772                	lw	a4,28(sp)
    2b0c:	00470693          	addi	a3,a4,4
    2b10:	4318                	lw	a4,0(a4)
    2b12:	ce36                	sw	a3,28(sp)
    2b14:	02074963          	bltz	a4,2b46 <_svfiprintf_r+0x17e>
    2b18:	d63a                	sw	a4,44(sp)
    2b1a:	00044703          	lbu	a4,0(s0)
    2b1e:	02e00793          	li	a5,46
    2b22:	04f71f63          	bne	a4,a5,2b80 <_svfiprintf_r+0x1b8>
    2b26:	00144703          	lbu	a4,1(s0)
    2b2a:	02a00793          	li	a5,42
    2b2e:	02f71b63          	bne	a4,a5,2b64 <_svfiprintf_r+0x19c>
    2b32:	47f2                	lw	a5,28(sp)
    2b34:	0409                	addi	s0,s0,2
    2b36:	00478713          	addi	a4,a5,4
    2b3a:	439c                	lw	a5,0(a5)
    2b3c:	ce3a                	sw	a4,28(sp)
    2b3e:	0207c163          	bltz	a5,2b60 <_svfiprintf_r+0x198>
    2b42:	d23e                	sw	a5,36(sp)
    2b44:	a835                	j	2b80 <_svfiprintf_r+0x1b8>
    2b46:	40e00733          	neg	a4,a4
    2b4a:	0027e793          	ori	a5,a5,2
    2b4e:	d63a                	sw	a4,44(sp)
    2b50:	d03e                	sw	a5,32(sp)
    2b52:	b7e1                	j	2b1a <_svfiprintf_r+0x152>
    2b54:	036787b3          	mul	a5,a5,s6
    2b58:	4685                	li	a3,1
    2b5a:	842e                	mv	s0,a1
    2b5c:	97ba                	add	a5,a5,a4
    2b5e:	b749                	j	2ae0 <_svfiprintf_r+0x118>
    2b60:	57fd                	li	a5,-1
    2b62:	b7c5                	j	2b42 <_svfiprintf_r+0x17a>
    2b64:	0405                	addi	s0,s0,1
    2b66:	d202                	sw	zero,36(sp)
    2b68:	4681                	li	a3,0
    2b6a:	4781                	li	a5,0
    2b6c:	4625                	li	a2,9
    2b6e:	00044703          	lbu	a4,0(s0)
    2b72:	00140593          	addi	a1,s0,1
    2b76:	fd070713          	addi	a4,a4,-48
    2b7a:	06e67863          	bgeu	a2,a4,2bea <_svfiprintf_r+0x222>
    2b7e:	f2f1                	bnez	a3,2b42 <_svfiprintf_r+0x17a>
    2b80:	00044583          	lbu	a1,0(s0)
    2b84:	460d                	li	a2,3
    2b86:	00001517          	auipc	a0,0x1
    2b8a:	f6250513          	addi	a0,a0,-158 # 3ae8 <__sf_fake_stdout+0x28>
    2b8e:	1b1000ef          	jal	ra,353e <memchr>
    2b92:	cd11                	beqz	a0,2bae <_svfiprintf_r+0x1e6>
    2b94:	00001797          	auipc	a5,0x1
    2b98:	f5478793          	addi	a5,a5,-172 # 3ae8 <__sf_fake_stdout+0x28>
    2b9c:	8d1d                	sub	a0,a0,a5
    2b9e:	04000793          	li	a5,64
    2ba2:	00a797b3          	sll	a5,a5,a0
    2ba6:	5502                	lw	a0,32(sp)
    2ba8:	0405                	addi	s0,s0,1
    2baa:	8d5d                	or	a0,a0,a5
    2bac:	d02a                	sw	a0,32(sp)
    2bae:	00044583          	lbu	a1,0(s0)
    2bb2:	4619                	li	a2,6
    2bb4:	00001517          	auipc	a0,0x1
    2bb8:	f3850513          	addi	a0,a0,-200 # 3aec <__sf_fake_stdout+0x2c>
    2bbc:	00140493          	addi	s1,s0,1
    2bc0:	02b10c23          	sb	a1,56(sp)
    2bc4:	17b000ef          	jal	ra,353e <memchr>
    2bc8:	c525                	beqz	a0,2c30 <_svfiprintf_r+0x268>
    2bca:	ffffd797          	auipc	a5,0xffffd
    2bce:	43678793          	addi	a5,a5,1078 # 0 <_sinit>
    2bd2:	e795                	bnez	a5,2bfe <_svfiprintf_r+0x236>
    2bd4:	5702                	lw	a4,32(sp)
    2bd6:	47f2                	lw	a5,28(sp)
    2bd8:	10077713          	andi	a4,a4,256
    2bdc:	cf09                	beqz	a4,2bf6 <_svfiprintf_r+0x22e>
    2bde:	0791                	addi	a5,a5,4
    2be0:	ce3e                	sw	a5,28(sp)
    2be2:	57d2                	lw	a5,52(sp)
    2be4:	97d2                	add	a5,a5,s4
    2be6:	da3e                	sw	a5,52(sp)
    2be8:	b5bd                	j	2a56 <_svfiprintf_r+0x8e>
    2bea:	036787b3          	mul	a5,a5,s6
    2bee:	4685                	li	a3,1
    2bf0:	842e                	mv	s0,a1
    2bf2:	97ba                	add	a5,a5,a4
    2bf4:	bfad                	j	2b6e <_svfiprintf_r+0x1a6>
    2bf6:	079d                	addi	a5,a5,7
    2bf8:	9be1                	andi	a5,a5,-8
    2bfa:	07a1                	addi	a5,a5,8
    2bfc:	b7d5                	j	2be0 <_svfiprintf_r+0x218>
    2bfe:	0878                	addi	a4,sp,28
    2c00:	00000697          	auipc	a3,0x0
    2c04:	cde68693          	addi	a3,a3,-802 # 28de <__ssputs_r>
    2c08:	864a                	mv	a2,s2
    2c0a:	100c                	addi	a1,sp,32
    2c0c:	854e                	mv	a0,s3
    2c0e:	00000097          	auipc	ra,0x0
    2c12:	000000e7          	jalr	zero # 0 <_sinit>
    2c16:	57fd                	li	a5,-1
    2c18:	8a2a                	mv	s4,a0
    2c1a:	fcf514e3          	bne	a0,a5,2be2 <_svfiprintf_r+0x21a>
    2c1e:	00c95783          	lhu	a5,12(s2)
    2c22:	557d                	li	a0,-1
    2c24:	0407f793          	andi	a5,a5,64
    2c28:	de0794e3          	bnez	a5,2a10 <_svfiprintf_r+0x48>
    2c2c:	5552                	lw	a0,52(sp)
    2c2e:	b3cd                	j	2a10 <_svfiprintf_r+0x48>
    2c30:	0878                	addi	a4,sp,28
    2c32:	00000697          	auipc	a3,0x0
    2c36:	cac68693          	addi	a3,a3,-852 # 28de <__ssputs_r>
    2c3a:	864a                	mv	a2,s2
    2c3c:	100c                	addi	a1,sp,32
    2c3e:	854e                	mv	a0,s3
    2c40:	2921                	jal	3058 <_printf_i>
    2c42:	bfd1                	j	2c16 <_svfiprintf_r+0x24e>

00002c44 <__sfputc_r>:
__sfputc_r():
    2c44:	461c                	lw	a5,8(a2)
    2c46:	17fd                	addi	a5,a5,-1
    2c48:	c61c                	sw	a5,8(a2)
    2c4a:	0007da63          	bgez	a5,2c5e <__sfputc_r+0x1a>
    2c4e:	4e18                	lw	a4,24(a2)
    2c50:	00e7c563          	blt	a5,a4,2c5a <__sfputc_r+0x16>
    2c54:	47a9                	li	a5,10
    2c56:	00f59463          	bne	a1,a5,2c5e <__sfputc_r+0x1a>
    2c5a:	c6eff06f          	j	20c8 <__swbuf_r>
    2c5e:	421c                	lw	a5,0(a2)
    2c60:	852e                	mv	a0,a1
    2c62:	00178713          	addi	a4,a5,1
    2c66:	c218                	sw	a4,0(a2)
    2c68:	00b78023          	sb	a1,0(a5)
    2c6c:	8082                	ret

00002c6e <__sfputs_r>:
__sfputs_r():
    2c6e:	1101                	addi	sp,sp,-32
    2c70:	cc22                	sw	s0,24(sp)
    2c72:	ca26                	sw	s1,20(sp)
    2c74:	c84a                	sw	s2,16(sp)
    2c76:	c64e                	sw	s3,12(sp)
    2c78:	c452                	sw	s4,8(sp)
    2c7a:	ce06                	sw	ra,28(sp)
    2c7c:	892a                	mv	s2,a0
    2c7e:	89ae                	mv	s3,a1
    2c80:	8432                	mv	s0,a2
    2c82:	00d604b3          	add	s1,a2,a3
    2c86:	5a7d                	li	s4,-1
    2c88:	00941463          	bne	s0,s1,2c90 <__sfputs_r+0x22>
    2c8c:	4501                	li	a0,0
    2c8e:	a809                	j	2ca0 <__sfputs_r+0x32>
    2c90:	00044583          	lbu	a1,0(s0)
    2c94:	864e                	mv	a2,s3
    2c96:	854a                	mv	a0,s2
    2c98:	3775                	jal	2c44 <__sfputc_r>
    2c9a:	0405                	addi	s0,s0,1
    2c9c:	ff4516e3          	bne	a0,s4,2c88 <__sfputs_r+0x1a>
    2ca0:	40f2                	lw	ra,28(sp)
    2ca2:	4462                	lw	s0,24(sp)
    2ca4:	44d2                	lw	s1,20(sp)
    2ca6:	4942                	lw	s2,16(sp)
    2ca8:	49b2                	lw	s3,12(sp)
    2caa:	4a22                	lw	s4,8(sp)
    2cac:	6105                	addi	sp,sp,32
    2cae:	8082                	ret

00002cb0 <_vfiprintf_r>:
_vfiprintf_r():
    2cb0:	7135                	addi	sp,sp,-160
    2cb2:	cd22                	sw	s0,152(sp)
    2cb4:	cb26                	sw	s1,148(sp)
    2cb6:	c94a                	sw	s2,144(sp)
    2cb8:	c74e                	sw	s3,140(sp)
    2cba:	cf06                	sw	ra,156(sp)
    2cbc:	c552                	sw	s4,136(sp)
    2cbe:	c356                	sw	s5,132(sp)
    2cc0:	c15a                	sw	s6,128(sp)
    2cc2:	dede                	sw	s7,124(sp)
    2cc4:	dce2                	sw	s8,120(sp)
    2cc6:	dae6                	sw	s9,116(sp)
    2cc8:	89aa                	mv	s3,a0
    2cca:	84ae                	mv	s1,a1
    2ccc:	8932                	mv	s2,a2
    2cce:	8436                	mv	s0,a3
    2cd0:	c509                	beqz	a0,2cda <_vfiprintf_r+0x2a>
    2cd2:	4d1c                	lw	a5,24(a0)
    2cd4:	e399                	bnez	a5,2cda <_vfiprintf_r+0x2a>
    2cd6:	819ff0ef          	jal	ra,24ee <__sinit>
    2cda:	00001797          	auipc	a5,0x1
    2cde:	dc678793          	addi	a5,a5,-570 # 3aa0 <__sf_fake_stdin>
    2ce2:	0cf49c63          	bne	s1,a5,2dba <_vfiprintf_r+0x10a>
    2ce6:	0049a483          	lw	s1,4(s3)
    2cea:	00c4d783          	lhu	a5,12(s1)
    2cee:	8ba1                	andi	a5,a5,8
    2cf0:	c7fd                	beqz	a5,2dde <_vfiprintf_r+0x12e>
    2cf2:	489c                	lw	a5,16(s1)
    2cf4:	c7ed                	beqz	a5,2dde <_vfiprintf_r+0x12e>
    2cf6:	02000793          	li	a5,32
    2cfa:	02f104a3          	sb	a5,41(sp)
    2cfe:	03000793          	li	a5,48
    2d02:	d202                	sw	zero,36(sp)
    2d04:	02f10523          	sb	a5,42(sp)
    2d08:	c622                	sw	s0,12(sp)
    2d0a:	02500b93          	li	s7,37
    2d0e:	00001a97          	auipc	s5,0x1
    2d12:	dd2a8a93          	addi	s5,s5,-558 # 3ae0 <__sf_fake_stdout+0x20>
    2d16:	4c05                	li	s8,1
    2d18:	4b29                	li	s6,10
    2d1a:	844a                	mv	s0,s2
    2d1c:	00044783          	lbu	a5,0(s0)
    2d20:	c399                	beqz	a5,2d26 <_vfiprintf_r+0x76>
    2d22:	0f779163          	bne	a5,s7,2e04 <_vfiprintf_r+0x154>
    2d26:	41240cb3          	sub	s9,s0,s2
    2d2a:	000c8d63          	beqz	s9,2d44 <_vfiprintf_r+0x94>
    2d2e:	86e6                	mv	a3,s9
    2d30:	864a                	mv	a2,s2
    2d32:	85a6                	mv	a1,s1
    2d34:	854e                	mv	a0,s3
    2d36:	3f25                	jal	2c6e <__sfputs_r>
    2d38:	57fd                	li	a5,-1
    2d3a:	1ef50763          	beq	a0,a5,2f28 <_vfiprintf_r+0x278>
    2d3e:	5692                	lw	a3,36(sp)
    2d40:	96e6                	add	a3,a3,s9
    2d42:	d236                	sw	a3,36(sp)
    2d44:	00044783          	lbu	a5,0(s0)
    2d48:	1e078063          	beqz	a5,2f28 <_vfiprintf_r+0x278>
    2d4c:	57fd                	li	a5,-1
    2d4e:	00140913          	addi	s2,s0,1
    2d52:	c802                	sw	zero,16(sp)
    2d54:	ce02                	sw	zero,28(sp)
    2d56:	ca3e                	sw	a5,20(sp)
    2d58:	cc02                	sw	zero,24(sp)
    2d5a:	040109a3          	sb	zero,83(sp)
    2d5e:	d482                	sw	zero,104(sp)
    2d60:	00094583          	lbu	a1,0(s2)
    2d64:	4615                	li	a2,5
    2d66:	8556                	mv	a0,s5
    2d68:	7d6000ef          	jal	ra,353e <memchr>
    2d6c:	00190413          	addi	s0,s2,1
    2d70:	47c2                	lw	a5,16(sp)
    2d72:	e959                	bnez	a0,2e08 <_vfiprintf_r+0x158>
    2d74:	0107f713          	andi	a4,a5,16
    2d78:	c709                	beqz	a4,2d82 <_vfiprintf_r+0xd2>
    2d7a:	02000713          	li	a4,32
    2d7e:	04e109a3          	sb	a4,83(sp)
    2d82:	0087f713          	andi	a4,a5,8
    2d86:	c709                	beqz	a4,2d90 <_vfiprintf_r+0xe0>
    2d88:	02b00713          	li	a4,43
    2d8c:	04e109a3          	sb	a4,83(sp)
    2d90:	00094683          	lbu	a3,0(s2)
    2d94:	02a00713          	li	a4,42
    2d98:	08e68063          	beq	a3,a4,2e18 <_vfiprintf_r+0x168>
    2d9c:	47f2                	lw	a5,28(sp)
    2d9e:	844a                	mv	s0,s2
    2da0:	4681                	li	a3,0
    2da2:	4625                	li	a2,9
    2da4:	00044703          	lbu	a4,0(s0)
    2da8:	00140593          	addi	a1,s0,1
    2dac:	fd070713          	addi	a4,a4,-48
    2db0:	0ae67963          	bgeu	a2,a4,2e62 <_vfiprintf_r+0x1b2>
    2db4:	cab5                	beqz	a3,2e28 <_vfiprintf_r+0x178>
    2db6:	ce3e                	sw	a5,28(sp)
    2db8:	a885                	j	2e28 <_vfiprintf_r+0x178>
    2dba:	00001797          	auipc	a5,0x1
    2dbe:	d0678793          	addi	a5,a5,-762 # 3ac0 <__sf_fake_stdout>
    2dc2:	00f49563          	bne	s1,a5,2dcc <_vfiprintf_r+0x11c>
    2dc6:	0089a483          	lw	s1,8(s3)
    2dca:	b705                	j	2cea <_vfiprintf_r+0x3a>
    2dcc:	00001797          	auipc	a5,0x1
    2dd0:	cb478793          	addi	a5,a5,-844 # 3a80 <__sf_fake_stderr>
    2dd4:	f0f49be3          	bne	s1,a5,2cea <_vfiprintf_r+0x3a>
    2dd8:	00c9a483          	lw	s1,12(s3)
    2ddc:	b739                	j	2cea <_vfiprintf_r+0x3a>
    2dde:	85a6                	mv	a1,s1
    2de0:	854e                	mv	a0,s3
    2de2:	ba6ff0ef          	jal	ra,2188 <__swsetup_r>
    2de6:	d901                	beqz	a0,2cf6 <_vfiprintf_r+0x46>
    2de8:	557d                	li	a0,-1
    2dea:	40fa                	lw	ra,156(sp)
    2dec:	446a                	lw	s0,152(sp)
    2dee:	44da                	lw	s1,148(sp)
    2df0:	494a                	lw	s2,144(sp)
    2df2:	49ba                	lw	s3,140(sp)
    2df4:	4a2a                	lw	s4,136(sp)
    2df6:	4a9a                	lw	s5,132(sp)
    2df8:	4b0a                	lw	s6,128(sp)
    2dfa:	5bf6                	lw	s7,124(sp)
    2dfc:	5c66                	lw	s8,120(sp)
    2dfe:	5cd6                	lw	s9,116(sp)
    2e00:	610d                	addi	sp,sp,160
    2e02:	8082                	ret
    2e04:	0405                	addi	s0,s0,1
    2e06:	bf19                	j	2d1c <_vfiprintf_r+0x6c>
    2e08:	41550533          	sub	a0,a0,s5
    2e0c:	00ac1533          	sll	a0,s8,a0
    2e10:	8fc9                	or	a5,a5,a0
    2e12:	c83e                	sw	a5,16(sp)
    2e14:	8922                	mv	s2,s0
    2e16:	b7a9                	j	2d60 <_vfiprintf_r+0xb0>
    2e18:	4732                	lw	a4,12(sp)
    2e1a:	00470693          	addi	a3,a4,4
    2e1e:	4318                	lw	a4,0(a4)
    2e20:	c636                	sw	a3,12(sp)
    2e22:	02074963          	bltz	a4,2e54 <_vfiprintf_r+0x1a4>
    2e26:	ce3a                	sw	a4,28(sp)
    2e28:	00044703          	lbu	a4,0(s0)
    2e2c:	02e00793          	li	a5,46
    2e30:	04f71f63          	bne	a4,a5,2e8e <_vfiprintf_r+0x1de>
    2e34:	00144703          	lbu	a4,1(s0)
    2e38:	02a00793          	li	a5,42
    2e3c:	02f71b63          	bne	a4,a5,2e72 <_vfiprintf_r+0x1c2>
    2e40:	47b2                	lw	a5,12(sp)
    2e42:	0409                	addi	s0,s0,2
    2e44:	00478713          	addi	a4,a5,4
    2e48:	439c                	lw	a5,0(a5)
    2e4a:	c63a                	sw	a4,12(sp)
    2e4c:	0207c163          	bltz	a5,2e6e <_vfiprintf_r+0x1be>
    2e50:	ca3e                	sw	a5,20(sp)
    2e52:	a835                	j	2e8e <_vfiprintf_r+0x1de>
    2e54:	40e00733          	neg	a4,a4
    2e58:	0027e793          	ori	a5,a5,2
    2e5c:	ce3a                	sw	a4,28(sp)
    2e5e:	c83e                	sw	a5,16(sp)
    2e60:	b7e1                	j	2e28 <_vfiprintf_r+0x178>
    2e62:	036787b3          	mul	a5,a5,s6
    2e66:	4685                	li	a3,1
    2e68:	842e                	mv	s0,a1
    2e6a:	97ba                	add	a5,a5,a4
    2e6c:	bf25                	j	2da4 <_vfiprintf_r+0xf4>
    2e6e:	57fd                	li	a5,-1
    2e70:	b7c5                	j	2e50 <_vfiprintf_r+0x1a0>
    2e72:	0405                	addi	s0,s0,1
    2e74:	ca02                	sw	zero,20(sp)
    2e76:	4681                	li	a3,0
    2e78:	4781                	li	a5,0
    2e7a:	4625                	li	a2,9
    2e7c:	00044703          	lbu	a4,0(s0)
    2e80:	00140593          	addi	a1,s0,1
    2e84:	fd070713          	addi	a4,a4,-48
    2e88:	06e67663          	bgeu	a2,a4,2ef4 <_vfiprintf_r+0x244>
    2e8c:	f2f1                	bnez	a3,2e50 <_vfiprintf_r+0x1a0>
    2e8e:	00044583          	lbu	a1,0(s0)
    2e92:	460d                	li	a2,3
    2e94:	00001517          	auipc	a0,0x1
    2e98:	c5450513          	addi	a0,a0,-940 # 3ae8 <__sf_fake_stdout+0x28>
    2e9c:	254d                	jal	353e <memchr>
    2e9e:	cd11                	beqz	a0,2eba <_vfiprintf_r+0x20a>
    2ea0:	00001797          	auipc	a5,0x1
    2ea4:	c4878793          	addi	a5,a5,-952 # 3ae8 <__sf_fake_stdout+0x28>
    2ea8:	8d1d                	sub	a0,a0,a5
    2eaa:	04000793          	li	a5,64
    2eae:	00a797b3          	sll	a5,a5,a0
    2eb2:	4542                	lw	a0,16(sp)
    2eb4:	0405                	addi	s0,s0,1
    2eb6:	8d5d                	or	a0,a0,a5
    2eb8:	c82a                	sw	a0,16(sp)
    2eba:	00044583          	lbu	a1,0(s0)
    2ebe:	4619                	li	a2,6
    2ec0:	00001517          	auipc	a0,0x1
    2ec4:	c2c50513          	addi	a0,a0,-980 # 3aec <__sf_fake_stdout+0x2c>
    2ec8:	00140913          	addi	s2,s0,1
    2ecc:	02b10423          	sb	a1,40(sp)
    2ed0:	25bd                	jal	353e <memchr>
    2ed2:	c13d                	beqz	a0,2f38 <_vfiprintf_r+0x288>
    2ed4:	ffffd797          	auipc	a5,0xffffd
    2ed8:	12c78793          	addi	a5,a5,300 # 0 <_sinit>
    2edc:	e795                	bnez	a5,2f08 <_vfiprintf_r+0x258>
    2ede:	4742                	lw	a4,16(sp)
    2ee0:	47b2                	lw	a5,12(sp)
    2ee2:	10077713          	andi	a4,a4,256
    2ee6:	cf09                	beqz	a4,2f00 <_vfiprintf_r+0x250>
    2ee8:	0791                	addi	a5,a5,4
    2eea:	c63e                	sw	a5,12(sp)
    2eec:	5792                	lw	a5,36(sp)
    2eee:	97d2                	add	a5,a5,s4
    2ef0:	d23e                	sw	a5,36(sp)
    2ef2:	b525                	j	2d1a <_vfiprintf_r+0x6a>
    2ef4:	036787b3          	mul	a5,a5,s6
    2ef8:	4685                	li	a3,1
    2efa:	842e                	mv	s0,a1
    2efc:	97ba                	add	a5,a5,a4
    2efe:	bfbd                	j	2e7c <_vfiprintf_r+0x1cc>
    2f00:	079d                	addi	a5,a5,7
    2f02:	9be1                	andi	a5,a5,-8
    2f04:	07a1                	addi	a5,a5,8
    2f06:	b7d5                	j	2eea <_vfiprintf_r+0x23a>
    2f08:	0078                	addi	a4,sp,12
    2f0a:	00000697          	auipc	a3,0x0
    2f0e:	d6468693          	addi	a3,a3,-668 # 2c6e <__sfputs_r>
    2f12:	8626                	mv	a2,s1
    2f14:	080c                	addi	a1,sp,16
    2f16:	854e                	mv	a0,s3
    2f18:	00000097          	auipc	ra,0x0
    2f1c:	000000e7          	jalr	zero # 0 <_sinit>
    2f20:	57fd                	li	a5,-1
    2f22:	8a2a                	mv	s4,a0
    2f24:	fcf514e3          	bne	a0,a5,2eec <_vfiprintf_r+0x23c>
    2f28:	00c4d783          	lhu	a5,12(s1)
    2f2c:	0407f793          	andi	a5,a5,64
    2f30:	ea079ce3          	bnez	a5,2de8 <_vfiprintf_r+0x138>
    2f34:	5512                	lw	a0,36(sp)
    2f36:	bd55                	j	2dea <_vfiprintf_r+0x13a>
    2f38:	0078                	addi	a4,sp,12
    2f3a:	00000697          	auipc	a3,0x0
    2f3e:	d3468693          	addi	a3,a3,-716 # 2c6e <__sfputs_r>
    2f42:	8626                	mv	a2,s1
    2f44:	080c                	addi	a1,sp,16
    2f46:	854e                	mv	a0,s3
    2f48:	2a01                	jal	3058 <_printf_i>
    2f4a:	bfd9                	j	2f20 <_vfiprintf_r+0x270>

00002f4c <_printf_common>:
_printf_common():
    2f4c:	7179                	addi	sp,sp,-48
    2f4e:	ca56                	sw	s5,20(sp)
    2f50:	499c                	lw	a5,16(a1)
    2f52:	8aba                	mv	s5,a4
    2f54:	4598                	lw	a4,8(a1)
    2f56:	d422                	sw	s0,40(sp)
    2f58:	d226                	sw	s1,36(sp)
    2f5a:	ce4e                	sw	s3,28(sp)
    2f5c:	cc52                	sw	s4,24(sp)
    2f5e:	d606                	sw	ra,44(sp)
    2f60:	d04a                	sw	s2,32(sp)
    2f62:	c85a                	sw	s6,16(sp)
    2f64:	c65e                	sw	s7,12(sp)
    2f66:	89aa                	mv	s3,a0
    2f68:	842e                	mv	s0,a1
    2f6a:	84b2                	mv	s1,a2
    2f6c:	8a36                	mv	s4,a3
    2f6e:	00e7d363          	bge	a5,a4,2f74 <_printf_common+0x28>
    2f72:	87ba                	mv	a5,a4
    2f74:	c09c                	sw	a5,0(s1)
    2f76:	04344703          	lbu	a4,67(s0)
    2f7a:	c319                	beqz	a4,2f80 <_printf_common+0x34>
    2f7c:	0785                	addi	a5,a5,1
    2f7e:	c09c                	sw	a5,0(s1)
    2f80:	401c                	lw	a5,0(s0)
    2f82:	0207f793          	andi	a5,a5,32
    2f86:	c781                	beqz	a5,2f8e <_printf_common+0x42>
    2f88:	409c                	lw	a5,0(s1)
    2f8a:	0789                	addi	a5,a5,2
    2f8c:	c09c                	sw	a5,0(s1)
    2f8e:	00042903          	lw	s2,0(s0)
    2f92:	00697913          	andi	s2,s2,6
    2f96:	00091a63          	bnez	s2,2faa <_printf_common+0x5e>
    2f9a:	01940b13          	addi	s6,s0,25
    2f9e:	5bfd                	li	s7,-1
    2fa0:	445c                	lw	a5,12(s0)
    2fa2:	4098                	lw	a4,0(s1)
    2fa4:	8f99                	sub	a5,a5,a4
    2fa6:	04f94c63          	blt	s2,a5,2ffe <_printf_common+0xb2>
    2faa:	401c                	lw	a5,0(s0)
    2fac:	04344683          	lbu	a3,67(s0)
    2fb0:	0207f793          	andi	a5,a5,32
    2fb4:	00d036b3          	snez	a3,a3
    2fb8:	eba5                	bnez	a5,3028 <_printf_common+0xdc>
    2fba:	04340613          	addi	a2,s0,67
    2fbe:	85d2                	mv	a1,s4
    2fc0:	854e                	mv	a0,s3
    2fc2:	9a82                	jalr	s5
    2fc4:	57fd                	li	a5,-1
    2fc6:	04f50363          	beq	a0,a5,300c <_printf_common+0xc0>
    2fca:	401c                	lw	a5,0(s0)
    2fcc:	4611                	li	a2,4
    2fce:	4098                	lw	a4,0(s1)
    2fd0:	8b99                	andi	a5,a5,6
    2fd2:	4454                	lw	a3,12(s0)
    2fd4:	4481                	li	s1,0
    2fd6:	00c79763          	bne	a5,a2,2fe4 <_printf_common+0x98>
    2fda:	40e684b3          	sub	s1,a3,a4
    2fde:	0004d363          	bgez	s1,2fe4 <_printf_common+0x98>
    2fe2:	4481                	li	s1,0
    2fe4:	441c                	lw	a5,8(s0)
    2fe6:	4818                	lw	a4,16(s0)
    2fe8:	00f75463          	bge	a4,a5,2ff0 <_printf_common+0xa4>
    2fec:	8f99                	sub	a5,a5,a4
    2fee:	94be                	add	s1,s1,a5
    2ff0:	4901                	li	s2,0
    2ff2:	0469                	addi	s0,s0,26
    2ff4:	5b7d                	li	s6,-1
    2ff6:	05249863          	bne	s1,s2,3046 <_printf_common+0xfa>
    2ffa:	4501                	li	a0,0
    2ffc:	a809                	j	300e <_printf_common+0xc2>
    2ffe:	4685                	li	a3,1
    3000:	865a                	mv	a2,s6
    3002:	85d2                	mv	a1,s4
    3004:	854e                	mv	a0,s3
    3006:	9a82                	jalr	s5
    3008:	01751e63          	bne	a0,s7,3024 <_printf_common+0xd8>
    300c:	557d                	li	a0,-1
    300e:	50b2                	lw	ra,44(sp)
    3010:	5422                	lw	s0,40(sp)
    3012:	5492                	lw	s1,36(sp)
    3014:	5902                	lw	s2,32(sp)
    3016:	49f2                	lw	s3,28(sp)
    3018:	4a62                	lw	s4,24(sp)
    301a:	4ad2                	lw	s5,20(sp)
    301c:	4b42                	lw	s6,16(sp)
    301e:	4bb2                	lw	s7,12(sp)
    3020:	6145                	addi	sp,sp,48
    3022:	8082                	ret
    3024:	0905                	addi	s2,s2,1
    3026:	bfad                	j	2fa0 <_printf_common+0x54>
    3028:	00d40733          	add	a4,s0,a3
    302c:	03000613          	li	a2,48
    3030:	04c701a3          	sb	a2,67(a4)
    3034:	04544703          	lbu	a4,69(s0)
    3038:	00168793          	addi	a5,a3,1
    303c:	97a2                	add	a5,a5,s0
    303e:	0689                	addi	a3,a3,2
    3040:	04e781a3          	sb	a4,67(a5)
    3044:	bf9d                	j	2fba <_printf_common+0x6e>
    3046:	4685                	li	a3,1
    3048:	8622                	mv	a2,s0
    304a:	85d2                	mv	a1,s4
    304c:	854e                	mv	a0,s3
    304e:	9a82                	jalr	s5
    3050:	fb650ee3          	beq	a0,s6,300c <_printf_common+0xc0>
    3054:	0905                	addi	s2,s2,1
    3056:	b745                	j	2ff6 <_printf_common+0xaa>

00003058 <_printf_i>:
_printf_i():
    3058:	7179                	addi	sp,sp,-48
    305a:	d422                	sw	s0,40(sp)
    305c:	d226                	sw	s1,36(sp)
    305e:	d04a                	sw	s2,32(sp)
    3060:	ce4e                	sw	s3,28(sp)
    3062:	d606                	sw	ra,44(sp)
    3064:	cc52                	sw	s4,24(sp)
    3066:	ca56                	sw	s5,20(sp)
    3068:	c85a                	sw	s6,16(sp)
    306a:	89b6                	mv	s3,a3
    306c:	0185c683          	lbu	a3,24(a1)
    3070:	06900793          	li	a5,105
    3074:	8932                	mv	s2,a2
    3076:	84aa                	mv	s1,a0
    3078:	842e                	mv	s0,a1
    307a:	04358613          	addi	a2,a1,67
    307e:	02f68d63          	beq	a3,a5,30b8 <_printf_i+0x60>
    3082:	06d7e263          	bltu	a5,a3,30e6 <_printf_i+0x8e>
    3086:	05800793          	li	a5,88
    308a:	18f68763          	beq	a3,a5,3218 <_printf_i+0x1c0>
    308e:	00d7ed63          	bltu	a5,a3,30a8 <_printf_i+0x50>
    3092:	22068063          	beqz	a3,32b2 <_printf_i+0x25a>
    3096:	04300793          	li	a5,67
    309a:	0af68e63          	beq	a3,a5,3156 <_printf_i+0xfe>
    309e:	04240a93          	addi	s5,s0,66
    30a2:	04d40123          	sb	a3,66(s0)
    30a6:	a0c9                	j	3168 <_printf_i+0x110>
    30a8:	06300793          	li	a5,99
    30ac:	0af68563          	beq	a3,a5,3156 <_printf_i+0xfe>
    30b0:	06400793          	li	a5,100
    30b4:	fef695e3          	bne	a3,a5,309e <_printf_i+0x46>
    30b8:	401c                	lw	a5,0(s0)
    30ba:	4308                	lw	a0,0(a4)
    30bc:	0807f693          	andi	a3,a5,128
    30c0:	00450593          	addi	a1,a0,4
    30c4:	c6c5                	beqz	a3,316c <_printf_i+0x114>
    30c6:	411c                	lw	a5,0(a0)
    30c8:	c30c                	sw	a1,0(a4)
    30ca:	0007d863          	bgez	a5,30da <_printf_i+0x82>
    30ce:	02d00713          	li	a4,45
    30d2:	40f007b3          	neg	a5,a5
    30d6:	04e401a3          	sb	a4,67(s0)
    30da:	00001697          	auipc	a3,0x1
    30de:	a1a68693          	addi	a3,a3,-1510 # 3af4 <__sf_fake_stdout+0x34>
    30e2:	4729                	li	a4,10
    30e4:	a86d                	j	319e <_printf_i+0x146>
    30e6:	07000793          	li	a5,112
    30ea:	16f68363          	beq	a3,a5,3250 <_printf_i+0x1f8>
    30ee:	02d7e563          	bltu	a5,a3,3118 <_printf_i+0xc0>
    30f2:	06e00793          	li	a5,110
    30f6:	18f68a63          	beq	a3,a5,328a <_printf_i+0x232>
    30fa:	06f00793          	li	a5,111
    30fe:	faf690e3          	bne	a3,a5,309e <_printf_i+0x46>
    3102:	400c                	lw	a1,0(s0)
    3104:	431c                	lw	a5,0(a4)
    3106:	0805f813          	andi	a6,a1,128
    310a:	00478513          	addi	a0,a5,4
    310e:	06080763          	beqz	a6,317c <_printf_i+0x124>
    3112:	c308                	sw	a0,0(a4)
    3114:	439c                	lw	a5,0(a5)
    3116:	a88d                	j	3188 <_printf_i+0x130>
    3118:	07500793          	li	a5,117
    311c:	fef683e3          	beq	a3,a5,3102 <_printf_i+0xaa>
    3120:	07800793          	li	a5,120
    3124:	12f68a63          	beq	a3,a5,3258 <_printf_i+0x200>
    3128:	07300793          	li	a5,115
    312c:	f6f699e3          	bne	a3,a5,309e <_printf_i+0x46>
    3130:	431c                	lw	a5,0(a4)
    3132:	41d0                	lw	a2,4(a1)
    3134:	4581                	li	a1,0
    3136:	00478693          	addi	a3,a5,4
    313a:	c314                	sw	a3,0(a4)
    313c:	0007aa83          	lw	s5,0(a5)
    3140:	8556                	mv	a0,s5
    3142:	2ef5                	jal	353e <memchr>
    3144:	c501                	beqz	a0,314c <_printf_i+0xf4>
    3146:	41550533          	sub	a0,a0,s5
    314a:	c048                	sw	a0,4(s0)
    314c:	405c                	lw	a5,4(s0)
    314e:	c81c                	sw	a5,16(s0)
    3150:	040401a3          	sb	zero,67(s0)
    3154:	a871                	j	31f0 <_printf_i+0x198>
    3156:	431c                	lw	a5,0(a4)
    3158:	04240a93          	addi	s5,s0,66
    315c:	00478693          	addi	a3,a5,4
    3160:	439c                	lw	a5,0(a5)
    3162:	c314                	sw	a3,0(a4)
    3164:	04f40123          	sb	a5,66(s0)
    3168:	4785                	li	a5,1
    316a:	b7d5                	j	314e <_printf_i+0xf6>
    316c:	0407f693          	andi	a3,a5,64
    3170:	411c                	lw	a5,0(a0)
    3172:	c30c                	sw	a1,0(a4)
    3174:	dab9                	beqz	a3,30ca <_printf_i+0x72>
    3176:	07c2                	slli	a5,a5,0x10
    3178:	87c1                	srai	a5,a5,0x10
    317a:	bf81                	j	30ca <_printf_i+0x72>
    317c:	0405f593          	andi	a1,a1,64
    3180:	c308                	sw	a0,0(a4)
    3182:	d9c9                	beqz	a1,3114 <_printf_i+0xbc>
    3184:	0007d783          	lhu	a5,0(a5)
    3188:	06f00713          	li	a4,111
    318c:	0ee68763          	beq	a3,a4,327a <_printf_i+0x222>
    3190:	00001697          	auipc	a3,0x1
    3194:	96468693          	addi	a3,a3,-1692 # 3af4 <__sf_fake_stdout+0x34>
    3198:	4729                	li	a4,10
    319a:	040401a3          	sb	zero,67(s0)
    319e:	404c                	lw	a1,4(s0)
    31a0:	c40c                	sw	a1,8(s0)
    31a2:	0005c563          	bltz	a1,31ac <_printf_i+0x154>
    31a6:	4008                	lw	a0,0(s0)
    31a8:	996d                	andi	a0,a0,-5
    31aa:	c008                	sw	a0,0(s0)
    31ac:	e399                	bnez	a5,31b2 <_printf_i+0x15a>
    31ae:	8ab2                	mv	s5,a2
    31b0:	cd91                	beqz	a1,31cc <_printf_i+0x174>
    31b2:	8ab2                	mv	s5,a2
    31b4:	02e7f5b3          	remu	a1,a5,a4
    31b8:	1afd                	addi	s5,s5,-1
    31ba:	95b6                	add	a1,a1,a3
    31bc:	0005c583          	lbu	a1,0(a1)
    31c0:	00ba8023          	sb	a1,0(s5)
    31c4:	02e7d5b3          	divu	a1,a5,a4
    31c8:	0ae7ff63          	bgeu	a5,a4,3286 <_printf_i+0x22e>
    31cc:	47a1                	li	a5,8
    31ce:	00f71e63          	bne	a4,a5,31ea <_printf_i+0x192>
    31d2:	401c                	lw	a5,0(s0)
    31d4:	8b85                	andi	a5,a5,1
    31d6:	cb91                	beqz	a5,31ea <_printf_i+0x192>
    31d8:	4058                	lw	a4,4(s0)
    31da:	481c                	lw	a5,16(s0)
    31dc:	00e7c763          	blt	a5,a4,31ea <_printf_i+0x192>
    31e0:	03000793          	li	a5,48
    31e4:	fefa8fa3          	sb	a5,-1(s5)
    31e8:	1afd                	addi	s5,s5,-1
    31ea:	41560633          	sub	a2,a2,s5
    31ee:	c810                	sw	a2,16(s0)
    31f0:	874e                	mv	a4,s3
    31f2:	86ca                	mv	a3,s2
    31f4:	0070                	addi	a2,sp,12
    31f6:	85a2                	mv	a1,s0
    31f8:	8526                	mv	a0,s1
    31fa:	3b89                	jal	2f4c <_printf_common>
    31fc:	5a7d                	li	s4,-1
    31fe:	0b451e63          	bne	a0,s4,32ba <_printf_i+0x262>
    3202:	557d                	li	a0,-1
    3204:	50b2                	lw	ra,44(sp)
    3206:	5422                	lw	s0,40(sp)
    3208:	5492                	lw	s1,36(sp)
    320a:	5902                	lw	s2,32(sp)
    320c:	49f2                	lw	s3,28(sp)
    320e:	4a62                	lw	s4,24(sp)
    3210:	4ad2                	lw	s5,20(sp)
    3212:	4b42                	lw	s6,16(sp)
    3214:	6145                	addi	sp,sp,48
    3216:	8082                	ret
    3218:	04d582a3          	sb	a3,69(a1)
    321c:	00001697          	auipc	a3,0x1
    3220:	8d868693          	addi	a3,a3,-1832 # 3af4 <__sf_fake_stdout+0x34>
    3224:	400c                	lw	a1,0(s0)
    3226:	4308                	lw	a0,0(a4)
    3228:	0805f813          	andi	a6,a1,128
    322c:	411c                	lw	a5,0(a0)
    322e:	0511                	addi	a0,a0,4
    3230:	02080d63          	beqz	a6,326a <_printf_i+0x212>
    3234:	c308                	sw	a0,0(a4)
    3236:	0015f713          	andi	a4,a1,1
    323a:	c701                	beqz	a4,3242 <_printf_i+0x1ea>
    323c:	0205e593          	ori	a1,a1,32
    3240:	c00c                	sw	a1,0(s0)
    3242:	4741                	li	a4,16
    3244:	fbb9                	bnez	a5,319a <_printf_i+0x142>
    3246:	400c                	lw	a1,0(s0)
    3248:	fdf5f593          	andi	a1,a1,-33
    324c:	c00c                	sw	a1,0(s0)
    324e:	b7b1                	j	319a <_printf_i+0x142>
    3250:	419c                	lw	a5,0(a1)
    3252:	0207e793          	ori	a5,a5,32
    3256:	c19c                	sw	a5,0(a1)
    3258:	07800793          	li	a5,120
    325c:	04f402a3          	sb	a5,69(s0)
    3260:	00001697          	auipc	a3,0x1
    3264:	8a868693          	addi	a3,a3,-1880 # 3b08 <__sf_fake_stdout+0x48>
    3268:	bf75                	j	3224 <_printf_i+0x1cc>
    326a:	0405f813          	andi	a6,a1,64
    326e:	c308                	sw	a0,0(a4)
    3270:	fc0803e3          	beqz	a6,3236 <_printf_i+0x1de>
    3274:	07c2                	slli	a5,a5,0x10
    3276:	83c1                	srli	a5,a5,0x10
    3278:	bf7d                	j	3236 <_printf_i+0x1de>
    327a:	00001697          	auipc	a3,0x1
    327e:	87a68693          	addi	a3,a3,-1926 # 3af4 <__sf_fake_stdout+0x34>
    3282:	4721                	li	a4,8
    3284:	bf19                	j	319a <_printf_i+0x142>
    3286:	87ae                	mv	a5,a1
    3288:	b735                	j	31b4 <_printf_i+0x15c>
    328a:	4194                	lw	a3,0(a1)
    328c:	431c                	lw	a5,0(a4)
    328e:	49cc                	lw	a1,20(a1)
    3290:	0806f813          	andi	a6,a3,128
    3294:	00478513          	addi	a0,a5,4
    3298:	00080663          	beqz	a6,32a4 <_printf_i+0x24c>
    329c:	c308                	sw	a0,0(a4)
    329e:	439c                	lw	a5,0(a5)
    32a0:	c38c                	sw	a1,0(a5)
    32a2:	a801                	j	32b2 <_printf_i+0x25a>
    32a4:	c308                	sw	a0,0(a4)
    32a6:	0406f693          	andi	a3,a3,64
    32aa:	439c                	lw	a5,0(a5)
    32ac:	daf5                	beqz	a3,32a0 <_printf_i+0x248>
    32ae:	00b79023          	sh	a1,0(a5)
    32b2:	00042823          	sw	zero,16(s0)
    32b6:	8ab2                	mv	s5,a2
    32b8:	bf25                	j	31f0 <_printf_i+0x198>
    32ba:	4814                	lw	a3,16(s0)
    32bc:	8656                	mv	a2,s5
    32be:	85ca                	mv	a1,s2
    32c0:	8526                	mv	a0,s1
    32c2:	9982                	jalr	s3
    32c4:	f3450fe3          	beq	a0,s4,3202 <_printf_i+0x1aa>
    32c8:	401c                	lw	a5,0(s0)
    32ca:	8b89                	andi	a5,a5,2
    32cc:	e78d                	bnez	a5,32f6 <_printf_i+0x29e>
    32ce:	47b2                	lw	a5,12(sp)
    32d0:	4448                	lw	a0,12(s0)
    32d2:	f2f559e3          	bge	a0,a5,3204 <_printf_i+0x1ac>
    32d6:	853e                	mv	a0,a5
    32d8:	b735                	j	3204 <_printf_i+0x1ac>
    32da:	4685                	li	a3,1
    32dc:	8656                	mv	a2,s5
    32de:	85ca                	mv	a1,s2
    32e0:	8526                	mv	a0,s1
    32e2:	9982                	jalr	s3
    32e4:	f1650fe3          	beq	a0,s6,3202 <_printf_i+0x1aa>
    32e8:	0a05                	addi	s4,s4,1
    32ea:	445c                	lw	a5,12(s0)
    32ec:	4732                	lw	a4,12(sp)
    32ee:	8f99                	sub	a5,a5,a4
    32f0:	fefa45e3          	blt	s4,a5,32da <_printf_i+0x282>
    32f4:	bfe9                	j	32ce <_printf_i+0x276>
    32f6:	4a01                	li	s4,0
    32f8:	01940a93          	addi	s5,s0,25
    32fc:	5b7d                	li	s6,-1
    32fe:	b7f5                	j	32ea <_printf_i+0x292>

00003300 <_putc_r>:
_putc_r():
    3300:	1101                	addi	sp,sp,-32
    3302:	cc22                	sw	s0,24(sp)
    3304:	ce06                	sw	ra,28(sp)
    3306:	842a                	mv	s0,a0
    3308:	c909                	beqz	a0,331a <_putc_r+0x1a>
    330a:	4d1c                	lw	a5,24(a0)
    330c:	e799                	bnez	a5,331a <_putc_r+0x1a>
    330e:	c632                	sw	a2,12(sp)
    3310:	c42e                	sw	a1,8(sp)
    3312:	9dcff0ef          	jal	ra,24ee <__sinit>
    3316:	4632                	lw	a2,12(sp)
    3318:	45a2                	lw	a1,8(sp)
    331a:	00000797          	auipc	a5,0x0
    331e:	78678793          	addi	a5,a5,1926 # 3aa0 <__sf_fake_stdin>
    3322:	02f61663          	bne	a2,a5,334e <_putc_r+0x4e>
    3326:	4050                	lw	a2,4(s0)
    3328:	461c                	lw	a5,8(a2)
    332a:	17fd                	addi	a5,a5,-1
    332c:	c61c                	sw	a5,8(a2)
    332e:	0407d063          	bgez	a5,336e <_putc_r+0x6e>
    3332:	4e18                	lw	a4,24(a2)
    3334:	00e7c763          	blt	a5,a4,3342 <_putc_r+0x42>
    3338:	0ff5f793          	andi	a5,a1,255
    333c:	4729                	li	a4,10
    333e:	02e79863          	bne	a5,a4,336e <_putc_r+0x6e>
    3342:	8522                	mv	a0,s0
    3344:	4462                	lw	s0,24(sp)
    3346:	40f2                	lw	ra,28(sp)
    3348:	6105                	addi	sp,sp,32
    334a:	d7ffe06f          	j	20c8 <__swbuf_r>
    334e:	00000797          	auipc	a5,0x0
    3352:	77278793          	addi	a5,a5,1906 # 3ac0 <__sf_fake_stdout>
    3356:	00f61463          	bne	a2,a5,335e <_putc_r+0x5e>
    335a:	4410                	lw	a2,8(s0)
    335c:	b7f1                	j	3328 <_putc_r+0x28>
    335e:	00000797          	auipc	a5,0x0
    3362:	72278793          	addi	a5,a5,1826 # 3a80 <__sf_fake_stderr>
    3366:	fcf611e3          	bne	a2,a5,3328 <_putc_r+0x28>
    336a:	4450                	lw	a2,12(s0)
    336c:	bf75                	j	3328 <_putc_r+0x28>
    336e:	421c                	lw	a5,0(a2)
    3370:	0ff5f513          	andi	a0,a1,255
    3374:	00178713          	addi	a4,a5,1
    3378:	c218                	sw	a4,0(a2)
    337a:	00b78023          	sb	a1,0(a5)
    337e:	40f2                	lw	ra,28(sp)
    3380:	4462                	lw	s0,24(sp)
    3382:	6105                	addi	sp,sp,32
    3384:	8082                	ret

00003386 <_sbrk_r>:
_sbrk_r():
    3386:	1141                	addi	sp,sp,-16
    3388:	c422                	sw	s0,8(sp)
    338a:	842a                	mv	s0,a0
    338c:	852e                	mv	a0,a1
    338e:	d001a023          	sw	zero,-768(gp) # 200015e0 <errno>
    3392:	c606                	sw	ra,12(sp)
    3394:	9dcfe0ef          	jal	ra,1570 <_sbrk>
    3398:	57fd                	li	a5,-1
    339a:	00f51763          	bne	a0,a5,33a8 <_sbrk_r+0x22>
    339e:	d0018793          	addi	a5,gp,-768 # 200015e0 <errno>
    33a2:	439c                	lw	a5,0(a5)
    33a4:	c391                	beqz	a5,33a8 <_sbrk_r+0x22>
    33a6:	c01c                	sw	a5,0(s0)
    33a8:	40b2                	lw	ra,12(sp)
    33aa:	4422                	lw	s0,8(sp)
    33ac:	0141                	addi	sp,sp,16
    33ae:	8082                	ret

000033b0 <__sread>:
__sread():
    33b0:	1141                	addi	sp,sp,-16
    33b2:	c422                	sw	s0,8(sp)
    33b4:	842e                	mv	s0,a1
    33b6:	00e59583          	lh	a1,14(a1)
    33ba:	c606                	sw	ra,12(sp)
    33bc:	2489                	jal	35fe <_read_r>
    33be:	00054963          	bltz	a0,33d0 <__sread+0x20>
    33c2:	487c                	lw	a5,84(s0)
    33c4:	97aa                	add	a5,a5,a0
    33c6:	c87c                	sw	a5,84(s0)
    33c8:	40b2                	lw	ra,12(sp)
    33ca:	4422                	lw	s0,8(sp)
    33cc:	0141                	addi	sp,sp,16
    33ce:	8082                	ret
    33d0:	00c45783          	lhu	a5,12(s0)
    33d4:	777d                	lui	a4,0xfffff
    33d6:	177d                	addi	a4,a4,-1
    33d8:	8ff9                	and	a5,a5,a4
    33da:	00f41623          	sh	a5,12(s0)
    33de:	b7ed                	j	33c8 <__sread+0x18>

000033e0 <__swrite>:
__swrite():
    33e0:	00c5d783          	lhu	a5,12(a1)
    33e4:	1101                	addi	sp,sp,-32
    33e6:	cc22                	sw	s0,24(sp)
    33e8:	ca26                	sw	s1,20(sp)
    33ea:	c84a                	sw	s2,16(sp)
    33ec:	c64e                	sw	s3,12(sp)
    33ee:	ce06                	sw	ra,28(sp)
    33f0:	1007f793          	andi	a5,a5,256
    33f4:	84aa                	mv	s1,a0
    33f6:	842e                	mv	s0,a1
    33f8:	8932                	mv	s2,a2
    33fa:	89b6                	mv	s3,a3
    33fc:	c791                	beqz	a5,3408 <__swrite+0x28>
    33fe:	00e59583          	lh	a1,14(a1)
    3402:	4689                	li	a3,2
    3404:	4601                	li	a2,0
    3406:	2231                	jal	3512 <_lseek_r>
    3408:	00c45783          	lhu	a5,12(s0)
    340c:	777d                	lui	a4,0xfffff
    340e:	177d                	addi	a4,a4,-1
    3410:	8ff9                	and	a5,a5,a4
    3412:	00f41623          	sh	a5,12(s0)
    3416:	00e41583          	lh	a1,14(s0)
    341a:	4462                	lw	s0,24(sp)
    341c:	40f2                	lw	ra,28(sp)
    341e:	86ce                	mv	a3,s3
    3420:	864a                	mv	a2,s2
    3422:	49b2                	lw	s3,12(sp)
    3424:	4942                	lw	s2,16(sp)
    3426:	8526                	mv	a0,s1
    3428:	44d2                	lw	s1,20(sp)
    342a:	6105                	addi	sp,sp,32
    342c:	a83d                	j	346a <_write_r>

0000342e <__sseek>:
__sseek():
    342e:	1141                	addi	sp,sp,-16
    3430:	c422                	sw	s0,8(sp)
    3432:	842e                	mv	s0,a1
    3434:	00e59583          	lh	a1,14(a1)
    3438:	c606                	sw	ra,12(sp)
    343a:	28e1                	jal	3512 <_lseek_r>
    343c:	57fd                	li	a5,-1
    343e:	00c45703          	lhu	a4,12(s0)
    3442:	00f51b63          	bne	a0,a5,3458 <__sseek+0x2a>
    3446:	77fd                	lui	a5,0xfffff
    3448:	17fd                	addi	a5,a5,-1
    344a:	8ff9                	and	a5,a5,a4
    344c:	00f41623          	sh	a5,12(s0)
    3450:	40b2                	lw	ra,12(sp)
    3452:	4422                	lw	s0,8(sp)
    3454:	0141                	addi	sp,sp,16
    3456:	8082                	ret
    3458:	6785                	lui	a5,0x1
    345a:	8fd9                	or	a5,a5,a4
    345c:	00f41623          	sh	a5,12(s0)
    3460:	c868                	sw	a0,84(s0)
    3462:	b7fd                	j	3450 <__sseek+0x22>

00003464 <__sclose>:
__sclose():
    3464:	00e59583          	lh	a1,14(a1)
    3468:	a805                	j	3498 <_close_r>

0000346a <_write_r>:
_write_r():
    346a:	1141                	addi	sp,sp,-16
    346c:	c422                	sw	s0,8(sp)
    346e:	842a                	mv	s0,a0
    3470:	852e                	mv	a0,a1
    3472:	85b2                	mv	a1,a2
    3474:	8636                	mv	a2,a3
    3476:	d001a023          	sw	zero,-768(gp) # 200015e0 <errno>
    347a:	c606                	sw	ra,12(sp)
    347c:	8ccfe0ef          	jal	ra,1548 <_write>
    3480:	57fd                	li	a5,-1
    3482:	00f51763          	bne	a0,a5,3490 <_write_r+0x26>
    3486:	d0018793          	addi	a5,gp,-768 # 200015e0 <errno>
    348a:	439c                	lw	a5,0(a5)
    348c:	c391                	beqz	a5,3490 <_write_r+0x26>
    348e:	c01c                	sw	a5,0(s0)
    3490:	40b2                	lw	ra,12(sp)
    3492:	4422                	lw	s0,8(sp)
    3494:	0141                	addi	sp,sp,16
    3496:	8082                	ret

00003498 <_close_r>:
_close_r():
    3498:	1141                	addi	sp,sp,-16
    349a:	c422                	sw	s0,8(sp)
    349c:	842a                	mv	s0,a0
    349e:	852e                	mv	a0,a1
    34a0:	d001a023          	sw	zero,-768(gp) # 200015e0 <errno>
    34a4:	c606                	sw	ra,12(sp)
    34a6:	2a61                	jal	363e <_close>
    34a8:	57fd                	li	a5,-1
    34aa:	00f51763          	bne	a0,a5,34b8 <_close_r+0x20>
    34ae:	d0018793          	addi	a5,gp,-768 # 200015e0 <errno>
    34b2:	439c                	lw	a5,0(a5)
    34b4:	c391                	beqz	a5,34b8 <_close_r+0x20>
    34b6:	c01c                	sw	a5,0(s0)
    34b8:	40b2                	lw	ra,12(sp)
    34ba:	4422                	lw	s0,8(sp)
    34bc:	0141                	addi	sp,sp,16
    34be:	8082                	ret

000034c0 <_fstat_r>:
_fstat_r():
    34c0:	1141                	addi	sp,sp,-16
    34c2:	c422                	sw	s0,8(sp)
    34c4:	842a                	mv	s0,a0
    34c6:	852e                	mv	a0,a1
    34c8:	85b2                	mv	a1,a2
    34ca:	d001a023          	sw	zero,-768(gp) # 200015e0 <errno>
    34ce:	c606                	sw	ra,12(sp)
    34d0:	2aad                	jal	364a <_fstat>
    34d2:	57fd                	li	a5,-1
    34d4:	00f51763          	bne	a0,a5,34e2 <_fstat_r+0x22>
    34d8:	d0018793          	addi	a5,gp,-768 # 200015e0 <errno>
    34dc:	439c                	lw	a5,0(a5)
    34de:	c391                	beqz	a5,34e2 <_fstat_r+0x22>
    34e0:	c01c                	sw	a5,0(s0)
    34e2:	40b2                	lw	ra,12(sp)
    34e4:	4422                	lw	s0,8(sp)
    34e6:	0141                	addi	sp,sp,16
    34e8:	8082                	ret

000034ea <_isatty_r>:
_isatty_r():
    34ea:	1141                	addi	sp,sp,-16
    34ec:	c422                	sw	s0,8(sp)
    34ee:	842a                	mv	s0,a0
    34f0:	852e                	mv	a0,a1
    34f2:	d001a023          	sw	zero,-768(gp) # 200015e0 <errno>
    34f6:	c606                	sw	ra,12(sp)
    34f8:	2ab9                	jal	3656 <_isatty>
    34fa:	57fd                	li	a5,-1
    34fc:	00f51763          	bne	a0,a5,350a <_isatty_r+0x20>
    3500:	d0018793          	addi	a5,gp,-768 # 200015e0 <errno>
    3504:	439c                	lw	a5,0(a5)
    3506:	c391                	beqz	a5,350a <_isatty_r+0x20>
    3508:	c01c                	sw	a5,0(s0)
    350a:	40b2                	lw	ra,12(sp)
    350c:	4422                	lw	s0,8(sp)
    350e:	0141                	addi	sp,sp,16
    3510:	8082                	ret

00003512 <_lseek_r>:
_lseek_r():
    3512:	1141                	addi	sp,sp,-16
    3514:	c422                	sw	s0,8(sp)
    3516:	842a                	mv	s0,a0
    3518:	852e                	mv	a0,a1
    351a:	85b2                	mv	a1,a2
    351c:	8636                	mv	a2,a3
    351e:	d001a023          	sw	zero,-768(gp) # 200015e0 <errno>
    3522:	c606                	sw	ra,12(sp)
    3524:	2a3d                	jal	3662 <_lseek>
    3526:	57fd                	li	a5,-1
    3528:	00f51763          	bne	a0,a5,3536 <_lseek_r+0x24>
    352c:	d0018793          	addi	a5,gp,-768 # 200015e0 <errno>
    3530:	439c                	lw	a5,0(a5)
    3532:	c391                	beqz	a5,3536 <_lseek_r+0x24>
    3534:	c01c                	sw	a5,0(s0)
    3536:	40b2                	lw	ra,12(sp)
    3538:	4422                	lw	s0,8(sp)
    353a:	0141                	addi	sp,sp,16
    353c:	8082                	ret

0000353e <memchr>:
memchr():
    353e:	0ff5f593          	andi	a1,a1,255
    3542:	962a                	add	a2,a2,a0
    3544:	00c51463          	bne	a0,a2,354c <memchr+0xe>
    3548:	4501                	li	a0,0
    354a:	8082                	ret
    354c:	00054783          	lbu	a5,0(a0)
    3550:	feb78de3          	beq	a5,a1,354a <memchr+0xc>
    3554:	0505                	addi	a0,a0,1
    3556:	b7fd                	j	3544 <memchr+0x6>

00003558 <memmove>:
memmove():
    3558:	04a5f363          	bgeu	a1,a0,359e <memmove+0x46>
    355c:	00c586b3          	add	a3,a1,a2
    3560:	02d57f63          	bgeu	a0,a3,359e <memmove+0x46>
    3564:	fff64593          	not	a1,a2
    3568:	4781                	li	a5,0
    356a:	17fd                	addi	a5,a5,-1
    356c:	00f59363          	bne	a1,a5,3572 <memmove+0x1a>
    3570:	8082                	ret
    3572:	00f68733          	add	a4,a3,a5
    3576:	00074803          	lbu	a6,0(a4) # fffff000 <_eusrstack+0xdfff8800>
    357a:	00c78733          	add	a4,a5,a2
    357e:	972a                	add	a4,a4,a0
    3580:	01070023          	sb	a6,0(a4)
    3584:	b7dd                	j	356a <memmove+0x12>
    3586:	00f58733          	add	a4,a1,a5
    358a:	00074683          	lbu	a3,0(a4)
    358e:	00f50733          	add	a4,a0,a5
    3592:	0785                	addi	a5,a5,1
    3594:	00d70023          	sb	a3,0(a4)
    3598:	fef617e3          	bne	a2,a5,3586 <memmove+0x2e>
    359c:	8082                	ret
    359e:	4781                	li	a5,0
    35a0:	bfe5                	j	3598 <memmove+0x40>

000035a2 <__malloc_lock>:
__malloc_lock():
    35a2:	8082                	ret

000035a4 <__malloc_unlock>:
__malloc_unlock():
    35a4:	8082                	ret

000035a6 <_realloc_r>:
_realloc_r():
    35a6:	e581                	bnez	a1,35ae <_realloc_r+0x8>
    35a8:	85b2                	mv	a1,a2
    35aa:	a5aff06f          	j	2804 <_malloc_r>
    35ae:	1101                	addi	sp,sp,-32
    35b0:	cc22                	sw	s0,24(sp)
    35b2:	ce06                	sw	ra,28(sp)
    35b4:	ca26                	sw	s1,20(sp)
    35b6:	c84a                	sw	s2,16(sp)
    35b8:	c64e                	sw	s3,12(sp)
    35ba:	8432                	mv	s0,a2
    35bc:	ee01                	bnez	a2,35d4 <_realloc_r+0x2e>
    35be:	99eff0ef          	jal	ra,275c <_free_r>
    35c2:	4901                	li	s2,0
    35c4:	40f2                	lw	ra,28(sp)
    35c6:	4462                	lw	s0,24(sp)
    35c8:	854a                	mv	a0,s2
    35ca:	44d2                	lw	s1,20(sp)
    35cc:	4942                	lw	s2,16(sp)
    35ce:	49b2                	lw	s3,12(sp)
    35d0:	6105                	addi	sp,sp,32
    35d2:	8082                	ret
    35d4:	84ae                	mv	s1,a1
    35d6:	89aa                	mv	s3,a0
    35d8:	2889                	jal	362a <_malloc_usable_size_r>
    35da:	8926                	mv	s2,s1
    35dc:	fe8574e3          	bgeu	a0,s0,35c4 <_realloc_r+0x1e>
    35e0:	85a2                	mv	a1,s0
    35e2:	854e                	mv	a0,s3
    35e4:	a20ff0ef          	jal	ra,2804 <_malloc_r>
    35e8:	892a                	mv	s2,a0
    35ea:	dd69                	beqz	a0,35c4 <_realloc_r+0x1e>
    35ec:	85a6                	mv	a1,s1
    35ee:	8622                	mv	a2,s0
    35f0:	845fe0ef          	jal	ra,1e34 <memcpy>
    35f4:	85a6                	mv	a1,s1
    35f6:	854e                	mv	a0,s3
    35f8:	964ff0ef          	jal	ra,275c <_free_r>
    35fc:	b7e1                	j	35c4 <_realloc_r+0x1e>

000035fe <_read_r>:
_read_r():
    35fe:	1141                	addi	sp,sp,-16
    3600:	c422                	sw	s0,8(sp)
    3602:	842a                	mv	s0,a0
    3604:	852e                	mv	a0,a1
    3606:	85b2                	mv	a1,a2
    3608:	8636                	mv	a2,a3
    360a:	d001a023          	sw	zero,-768(gp) # 200015e0 <errno>
    360e:	c606                	sw	ra,12(sp)
    3610:	28b9                	jal	366e <_read>
    3612:	57fd                	li	a5,-1
    3614:	00f51763          	bne	a0,a5,3622 <_read_r+0x24>
    3618:	d0018793          	addi	a5,gp,-768 # 200015e0 <errno>
    361c:	439c                	lw	a5,0(a5)
    361e:	c391                	beqz	a5,3622 <_read_r+0x24>
    3620:	c01c                	sw	a5,0(s0)
    3622:	40b2                	lw	ra,12(sp)
    3624:	4422                	lw	s0,8(sp)
    3626:	0141                	addi	sp,sp,16
    3628:	8082                	ret

0000362a <_malloc_usable_size_r>:
_malloc_usable_size_r():
    362a:	ffc5a783          	lw	a5,-4(a1)
    362e:	ffc78513          	addi	a0,a5,-4 # ffc <__stack_size+0xdfc>
    3632:	0007d563          	bgez	a5,363c <_malloc_usable_size_r+0x12>
    3636:	95aa                	add	a1,a1,a0
    3638:	419c                	lw	a5,0(a1)
    363a:	953e                	add	a0,a0,a5
    363c:	8082                	ret

0000363e <_close>:
_close():
    363e:	05800793          	li	a5,88
    3642:	d0f1a023          	sw	a5,-768(gp) # 200015e0 <errno>
    3646:	557d                	li	a0,-1
    3648:	8082                	ret

0000364a <_fstat>:
_fstat():
    364a:	05800793          	li	a5,88
    364e:	d0f1a023          	sw	a5,-768(gp) # 200015e0 <errno>
    3652:	557d                	li	a0,-1
    3654:	8082                	ret

00003656 <_isatty>:
_isatty():
    3656:	05800793          	li	a5,88
    365a:	d0f1a023          	sw	a5,-768(gp) # 200015e0 <errno>
    365e:	4501                	li	a0,0
    3660:	8082                	ret

00003662 <_lseek>:
_lseek():
    3662:	05800793          	li	a5,88
    3666:	d0f1a023          	sw	a5,-768(gp) # 200015e0 <errno>
    366a:	557d                	li	a0,-1
    366c:	8082                	ret

0000366e <_read>:
_read():
    366e:	05800793          	li	a5,88
    3672:	d0f1a023          	sw	a5,-768(gp) # 200015e0 <errno>
    3676:	557d                	li	a0,-1
    3678:	8082                	ret
    367a:	0000                	unimp
    367c:	dc94                	sw	a3,56(s1)
    367e:	ffff                	0xffff
    3680:	dcbc                	sw	a5,120(s1)
    3682:	ffff                	0xffff
    3684:	dce4                	sw	s1,124(s1)
    3686:	ffff                	0xffff
    3688:	dcfc                	sw	a5,124(s1)
    368a:	ffff                	0xffff
    368c:	dd16                	sw	t0,184(sp)
    368e:	ffff                	0xffff
    3690:	dd26                	sw	s1,184(sp)
    3692:	ffff                	0xffff
    3694:	dd4e                	sw	s3,184(sp)
    3696:	ffff                	0xffff
    3698:	dd76                	sw	t4,184(sp)
    369a:	ffff                	0xffff
    369c:	dd8e                	sw	gp,248(sp)
    369e:	ffff                	0xffff
    36a0:	dda8                	sw	a0,120(a1)
    36a2:	ffff                	0xffff
    36a4:	3430                	fld	fa2,104(s0)
    36a6:	3130                	fld	fa2,96(a0)
    36a8:	202c                	fld	fa1,64(s0)
    36aa:	fabbaabf 00000d21 	0xd21fabbaabf
    36b2:	0000                	unimp
    36b4:	3269                	jal	303e <_printf_common+0xf2>
    36b6:	72692063          	0x72692063
    36ba:	3a71                	jal	3056 <_printf_common+0x10a>
    36bc:	2820                	fld	fs0,80(s0)
    36be:	0020                	addi	s0,sp,8
    36c0:	00204253          	fadd.s	ft4,ft0,ft2,rmm
    36c4:	4441                	li	s0,16
    36c6:	5244                	lw	s1,36(a2)
    36c8:	0020                	addi	s0,sp,8
    36ca:	0000                	unimp
    36cc:	5442                	lw	s0,48(sp)
    36ce:	2046                	fld	ft0,80(sp)
    36d0:	0000                	unimp
    36d2:	0000                	unimp
    36d4:	4441                	li	s0,16
    36d6:	3144                	fld	fs1,160(a0)
    36d8:	2030                	fld	fa2,64(s0)
    36da:	0000                	unimp
    36dc:	504f5453          	0x504f5453
    36e0:	0020                	addi	s0,sp,8
    36e2:	0000                	unimp
    36e4:	7852                	flw	fa6,52(sp)
    36e6:	454e                	lw	a0,208(sp)
    36e8:	0020                	addi	s0,sp,8
    36ea:	0000                	unimp
    36ec:	7854                	flw	fa3,52(s0)
    36ee:	2045                	jal	378e <_read+0x120>
    36f0:	0000                	unimp
    36f2:	0000                	unimp
    36f4:	4542                	lw	a0,16(sp)
    36f6:	5252                	lw	tp,52(sp)
    36f8:	0020                	addi	s0,sp,8
    36fa:	0000                	unimp
    36fc:	5241                	li	tp,-16
    36fe:	4f4c                	lw	a1,28(a4)
    3700:	0020                	addi	s0,sp,8
    3702:	0000                	unimp
    3704:	4641                	li	a2,16
    3706:	0020                	addi	s0,sp,8
    3708:	2052564f          	fnmadd.s	fa2,ft4,ft5,ft4,unknown
    370c:	0000                	unimp
    370e:	0000                	unimp
    3710:	4550                	lw	a2,12(a0)
    3712:	52524543          	fmadd.d	fa0,ft4,ft5,fa0,rmm
    3716:	0020                	addi	s0,sp,8
    3718:	4954                	lw	a3,20(a0)
    371a:	454d                	li	a0,19
    371c:	2054554f          	fnmadd.s	fa0,fs0,ft5,ft4,unknown
    3720:	0000                	unimp
    3722:	0000                	unimp
    3724:	41424d53          	0x41424d53
    3728:	454c                	lw	a1,12(a0)
    372a:	5452                	lw	s0,52(sp)
    372c:	0020                	addi	s0,sp,8
    372e:	0000                	unimp
    3730:	534d                	li	t1,-13
    3732:	204c                	fld	fa1,128(s0)
    3734:	0000                	unimp
    3736:	0000                	unimp
    3738:	5542                	lw	a0,48(sp)
    373a:	00205953          	fadd.s	fs2,ft0,ft2,unknown
    373e:	0000                	unimp
    3740:	5254                	lw	a3,36(a2)
    3742:	2041                	jal	37c2 <_read+0x154>
    3744:	0000                	unimp
    3746:	0000                	unimp
    3748:	434e4547          	fmsub.d	fa0,ft8,fs4,fs0,rmm
    374c:	4c41                	li	s8,16
    374e:	204c                	fld	fa1,128(s0)
    3750:	0000                	unimp
    3752:	0000                	unimp
    3754:	44424d53          	0x44424d53
    3758:	4645                	li	a2,17
    375a:	5541                	li	a0,-16
    375c:	544c                	lw	a1,44(s0)
    375e:	0020                	addi	s0,sp,8
    3760:	48424d53          	0x48424d53
    3764:	2054534f          	fnmadd.s	ft6,fs0,ft5,ft4,unknown
    3768:	0000                	unimp
    376a:	0000                	unimp
    376c:	5544                	lw	s1,44(a0)
    376e:	4c41                	li	s8,16
    3770:	2046                	fld	ft0,80(sp)
    3772:	0000                	unimp
    3774:	0029                	c.nop	10
    3776:	0000                	unimp
    3778:	614d                	addi	sp,sp,176
    377a:	72657473          	csrrci	s0,0x726,10
    377e:	7320                	flw	fs0,96(a4)
    3780:	6c65                	lui	s8,0x19
    3782:	6365                	lui	t1,0x19
    3784:	6574                	flw	fa3,76(a0)
    3786:	2c64                	fld	fs1,216(s0)
    3788:	7320                	flw	fs0,96(a4)
    378a:	6e65                	lui	t3,0x19
    378c:	2064                	fld	fs1,192(s0)
    378e:	6461                	lui	s0,0x18
    3790:	7264                	flw	fs1,100(a2)
    3792:	7365                	lui	t1,0xffff9
    3794:	00000073          	ecall
    3798:	614d                	addi	sp,sp,176
    379a:	72657473          	csrrci	s0,0x726,10
    379e:	7420                	flw	fs0,104(s0)
    37a0:	6172                	flw	ft2,28(sp)
    37a2:	736e                	flw	ft6,248(sp)
    37a4:	696d                	lui	s2,0x1b
    37a6:	7474                	flw	fa3,108(s0)
    37a8:	7265                	lui	tp,0xffff9
    37aa:	003a                	c.slli	zero,0xe
    37ac:	2020                	fld	fs0,64(s0)
    37ae:	646e6573          	csrrsi	a0,0x646,28
    37b2:	2820                	fld	fs0,80(s0)
    37b4:	2325                	jal	3cdc <_data_lma+0x1bc>
    37b6:	2978                	fld	fa4,208(a0)
    37b8:	000a                	c.slli	zero,0x2
    37ba:	0000                	unimp
    37bc:	2020                	fld	fs0,64(s0)
    37be:	646e6573          	csrrsi	a0,0x646,28
    37c2:	5320                	lw	s0,96(a4)
    37c4:	4f54                	lw	a3,28(a4)
    37c6:	0050                	addi	a2,sp,4
    37c8:	2020                	fld	fs0,64(s0)
    37ca:	6572                	flw	fa0,28(sp)
    37cc:	72617473          	csrrci	s0,0x726,2
    37d0:	0074                	addi	a3,sp,12
    37d2:	0000                	unimp
    37d4:	2020                	fld	fs0,64(s0)
    37d6:	414e                	lw	sp,208(sp)
    37d8:	72204b43          	fmadd.d	fs6,ft0,ft2,fa4,rmm
    37dc:	6365                	lui	t1,0x19
    37de:	6965                	lui	s2,0x19
    37e0:	6576                	flw	fa0,92(sp)
    37e2:	2c64                	fld	fs1,216(s0)
    37e4:	7320                	flw	fs0,96(a4)
    37e6:	6e65                	lui	t3,0x19
    37e8:	2074                	fld	fa3,192(s0)
    37ea:	706f7473          	csrrci	s0,0x706,30
    37ee:	0000                	unimp
    37f0:	614d                	addi	sp,sp,176
    37f2:	72657473          	csrrci	s0,0x726,10
    37f6:	7220                	flw	fs0,96(a2)
    37f8:	6365                	lui	t1,0x19
    37fa:	6965                	lui	s2,0x19
    37fc:	6576                	flw	fa0,92(sp)
    37fe:	3a72                	fld	fs4,312(sp)
    3800:	0000                	unimp
    3802:	0000                	unimp
    3804:	2020                	fld	fs0,64(s0)
    3806:	6461                	lui	s0,0x18
    3808:	7264                	flw	fs1,100(a2)
    380a:	7365                	lui	t1,0xffff9
    380c:	65732073          	csrs	0x657,t1
    3810:	746e                	flw	fs0,248(sp)
    3812:	0000                	unimp
    3814:	2020                	fld	fs0,64(s0)
    3816:	4341                	li	t1,16
    3818:	656e204b          	0x656e204b
    381c:	7478                	flw	fa4,108(s0)
    381e:	0000                	unimp
    3820:	2020                	fld	fs0,64(s0)
    3822:	414e                	lw	sp,208(sp)
    3824:	6e204b43          	fmadd.q	fs6,ft0,ft2,fa3,rmm
    3828:	7865                	lui	a6,0xffff9
    382a:	0074                	addi	a3,sp,12
    382c:	2020                	fld	fs0,64(s0)
    382e:	6572                	flw	fa0,28(sp)
    3830:	76696563          	bltu	s2,t1,3f9a <_data_lma+0x47a>
    3834:	6465                	lui	s0,0x19
    3836:	6420                	flw	fs0,72(s0)
    3838:	7461                	lui	s0,0xffff8
    383a:	2061                	jal	38c2 <_read+0x254>
    383c:	2528                	fld	fa0,72(a0)
    383e:	0a297823          	0xa297823
    3842:	0000                	unimp
    3844:	2020                	fld	fs0,64(s0)
    3846:	414e                	lw	sp,208(sp)
    3848:	72204b43          	fmadd.d	fs6,ft0,ft2,fa4,rmm
    384c:	6365                	lui	t1,0x19
    384e:	6965                	lui	s2,0x19
    3850:	6576                	flw	fa0,92(sp)
    3852:	2c64                	fld	fs1,216(s0)
    3854:	7320                	flw	fs0,96(a4)
    3856:	6e65                	lui	t3,0x19
    3858:	2064                	fld	fs1,192(s0)
    385a:	504f5453          	0x504f5453
    385e:	0000                	unimp
    3860:	76616c53          	0x76616c53
    3864:	2065                	jal	390c <_read+0x29e>
    3866:	7274                	flw	fa3,100(a2)
    3868:	6e61                	lui	t3,0x18
    386a:	74696d73          	csrrsi	s10,0x746,18
    386e:	6574                	flw	fa3,76(a0)
    3870:	2072                	fld	ft0,280(sp)
    3872:	6461                	lui	s0,0x18
    3874:	7264                	flw	fs1,100(a2)
    3876:	7365                	lui	t1,0xffff9
    3878:	616d2073          	csrs	0x616,s10
    387c:	6374                	flw	fa3,68(a4)
    387e:	6568                	flw	fa0,76(a0)
    3880:	0064                	addi	s1,sp,12
    3882:	0000                	unimp
    3884:	76616c53          	0x76616c53
    3888:	2065                	jal	3930 <_read+0x2c2>
    388a:	6572                	flw	fa0,28(sp)
    388c:	6576                	flw	fa0,92(sp)
    388e:	7669                	lui	a2,0xffffa
    3890:	7265                	lui	tp,0xffff9
    3892:	6120                	flw	fs0,64(a0)
    3894:	6464                	flw	fs1,76(s0)
    3896:	6572                	flw	fa0,28(sp)
    3898:	6d207373          	csrrci	t1,0x6d2,0
    389c:	7461                	lui	s0,0xffff8
    389e:	64656863          	bltu	a0,t1,3eee <_data_lma+0x3ce>
    38a2:	0000                	unimp
    38a4:	76616c53          	0x76616c53
    38a8:	2065                	jal	3950 <_read+0x2e2>
    38aa:	7274                	flw	fa3,100(a2)
    38ac:	6e61                	lui	t3,0x18
    38ae:	74696d73          	csrrsi	s10,0x746,18
    38b2:	6574                	flw	fa3,76(a0)
    38b4:	3a72                	fld	fs4,312(sp)
    38b6:	0000                	unimp
    38b8:	2020                	fld	fs0,64(s0)
    38ba:	614e                	flw	ft2,208(sp)
    38bc:	72206b63          	bltu	zero,sp,3ff2 <_data_lma+0x4d2>
    38c0:	6365                	lui	t1,0x19
    38c2:	6965                	lui	s2,0x19
    38c4:	6576                	flw	fa0,92(sp)
    38c6:	0064                	addi	s1,sp,12
    38c8:	2020                	fld	fs0,64(s0)
    38ca:	6f6e                	flw	ft10,216(sp)
    38cc:	6d20                	flw	fs0,88(a0)
    38ce:	2065726f          	jal	tp,5aad4 <_data_lma+0x56fb4>
    38d2:	6164                	flw	fs1,68(a0)
    38d4:	6174                	flw	fa3,68(a0)
    38d6:	202c                	fld	fa1,64(s0)
    38d8:	646e6573          	csrrsi	a0,0x646,28
    38dc:	3020                	fld	fs0,96(s0)
    38de:	6678                	flw	fa4,76(a2)
    38e0:	0066                	c.slli	zero,0x19
    38e2:	0000                	unimp
    38e4:	76616c53          	0x76616c53
    38e8:	2065                	jal	3990 <__clz_tab+0x10>
    38ea:	6572                	flw	fa0,28(sp)
    38ec:	76696563          	bltu	s2,t1,4056 <_data_lma+0x536>
    38f0:	7265                	lui	tp,0xffff9
    38f2:	003a                	c.slli	zero,0xe
    38f4:	2020                	fld	fs0,64(s0)
    38f6:	6572                	flw	fa0,28(sp)
    38f8:	76696563          	bltu	s2,t1,4062 <_data_lma+0x542>
    38fc:	6465                	lui	s0,0x19
    38fe:	2820                	fld	fs0,80(s0)
    3900:	2325                	jal	3e28 <_data_lma+0x308>
    3902:	2978                	fld	fa4,208(a0)
    3904:	000a                	c.slli	zero,0x2
    3906:	0000                	unimp
    3908:	2020                	fld	fs0,64(s0)
    390a:	6572                	flw	fa0,28(sp)
    390c:	6576                	flw	fa0,92(sp)
    390e:	7669                	lui	a2,0xffffa
    3910:	2065                	jal	39b8 <__clz_tab+0x38>
    3912:	706f7473          	csrrci	s0,0x706,30
    3916:	0000                	unimp
    3918:	4252                	lw	tp,20(sp)
    391a:	495f 4332 425f      	0x425f4332495f
    3920:	5245                	li	tp,-15
    3922:	0052                	c.slli	zero,0x14
    3924:	4252                	lw	tp,20(sp)
    3926:	495f 4332 415f      	0x415f4332495f
    392c:	4c52                	lw	s8,20(sp)
    392e:	4252004f          	fnmadd.d	ft0,ft4,ft5,fs0,rne
    3932:	495f 4332 4f5f      	0x4f5f4332495f
    3938:	5256                	lw	tp,116(sp)
    393a:	0000                	unimp
    393c:	4252                	lw	tp,20(sp)
    393e:	495f 4332 505f      	0x505f4332495f
    3944:	4345                	li	t1,17
    3946:	5245                	li	tp,-15
    3948:	0052                	c.slli	zero,0x14
    394a:	0000                	unimp
    394c:	4252                	lw	tp,20(sp)
    394e:	495f 4332 545f      	0x545f4332495f
    3954:	4d49                	li	s10,18
    3956:	4f45                	li	t5,17
    3958:	5455                	li	s0,-11
    395a:	0000                	unimp
    395c:	4252                	lw	tp,20(sp)
    395e:	495f 4332 535f      	0x535f4332495f
    3964:	424d                	li	tp,19
    3966:	4c41                	li	s8,16
    3968:	5245                	li	tp,-15
    396a:	0054                	addi	a3,sp,4
    396c:	6425                	lui	s0,0x9
    396e:	0000                	unimp
    3970:	002c                	addi	a1,sp,8
    3972:	0000                	unimp
    3974:	7325                	lui	t1,0xfffe9
    3976:	0a0d                	addi	s4,s4,3
    3978:	0000                	unimp
    397a:	0000                	unimp
    397c:	6625                	lui	a2,0x9
	...

00003980 <__clz_tab>:
    3980:	0100 0202 0303 0303 0404 0404 0404 0404     ................
    3990:	0505 0505 0505 0505 0505 0505 0505 0505     ................
    39a0:	0606 0606 0606 0606 0606 0606 0606 0606     ................
    39b0:	0606 0606 0606 0606 0606 0606 0606 0606     ................
    39c0:	0707 0707 0707 0707 0707 0707 0707 0707     ................
    39d0:	0707 0707 0707 0707 0707 0707 0707 0707     ................
    39e0:	0707 0707 0707 0707 0707 0707 0707 0707     ................
    39f0:	0707 0707 0707 0707 0707 0707 0707 0707     ................
    3a00:	0808 0808 0808 0808 0808 0808 0808 0808     ................
    3a10:	0808 0808 0808 0808 0808 0808 0808 0808     ................
    3a20:	0808 0808 0808 0808 0808 0808 0808 0808     ................
    3a30:	0808 0808 0808 0808 0808 0808 0808 0808     ................
    3a40:	0808 0808 0808 0808 0808 0808 0808 0808     ................
    3a50:	0808 0808 0808 0808 0808 0808 0808 0808     ................
    3a60:	0808 0808 0808 0808 0808 0808 0808 0808     ................
    3a70:	0808 0808 0808 0808 0808 0808 0808 0808     ................

00003a80 <__sf_fake_stderr>:
	...

00003aa0 <__sf_fake_stdin>:
	...

00003ac0 <__sf_fake_stdout>:
	...
    3ae0:	2d23 2b30 0020 0000 6c68 004c 6665 4567     #-0+ ...hlL.efgE
    3af0:	4746 0000 3130 3332 3534 3736 3938 4241     FG..0123456789AB
    3b00:	4443 4645 0000 0000 3130 3332 3534 3736     CDEF....01234567
    3b10:	3938 6261 6463 6665 0000 0000               89abcdef....

00003b1c <_global_impure_ptr>:
    3b1c:	107c 2000                                   |.. 
