
UART1.elf:     file format elf32-littleriscv
UART1.elf
architecture: riscv:rv32, flags 0x00000112:
EXEC_P, HAS_SYMS, D_PAGED
start address 0x00000000

Program Header:
    LOAD off    0x00001000 vaddr 0x00000000 paddr 0x00000000 align 2**12
         filesz 0x00000004 memsz 0x00000004 flags r-x
    LOAD off    0x00002000 vaddr 0x20000000 paddr 0x00000004 align 2**12
         filesz 0x00000c30 memsz 0x00000c30 flags r-x
    LOAD off    0x00002c34 vaddr 0x00000c34 paddr 0x00000c34 align 2**12
         filesz 0x000024c4 memsz 0x000024c4 flags r-x
    LOAD off    0x00005c30 vaddr 0x20000c30 paddr 0x000030f8 align 2**12
         filesz 0x00000068 memsz 0x00000560 flags rw-
    LOAD off    0x00006600 vaddr 0x20006600 paddr 0x20006600 align 2**12
         filesz 0x00000000 memsz 0x00000200 flags rw-

Sections:
Idx Name            Size      VMA       LMA       File off  Algn  Flags
  0 .init           00000004  00000000  00000000  00001000  2**1  CONTENTS, ALLOC, LOAD, READONLY, CODE
  1 .highcodelalign 00000000  00000004  00000004  00005c98  2**0  CONTENTS
  2 .highcode       00000c30  20000000  00000004  00002000  2**1  CONTENTS, ALLOC, LOAD, READONLY, CODE
  3 .text           000024c4  00000c34  00000c34  00002c34  2**2  CONTENTS, ALLOC, LOAD, READONLY, CODE
  4 .fini           00000000  000030f8  000030f8  00005c98  2**0  CONTENTS, ALLOC, LOAD, CODE
  5 .dalign         00000000  20000c30  20000c30  00005c98  2**0  CONTENTS
  6 .dlalign        00000000  000030f8  000030f8  00005c98  2**0  CONTENTS
  7 .data           00000068  20000c30  000030f8  00005c30  2**2  CONTENTS, ALLOC, LOAD, DATA
  8 .bss            000004f8  20000c98  00003160  00005c98  2**2  ALLOC
  9 .stack          00000200  20006600  20006600  00006600  2**0  ALLOC
 10 .debug_info     00009e91  00000000  00000000  00005c98  2**0  CONTENTS, READONLY, DEBUGGING
 11 .debug_abbrev   00001ba9  00000000  00000000  0000fb29  2**0  CONTENTS, READONLY, DEBUGGING
 12 .debug_aranges  00000368  00000000  00000000  000116d8  2**3  CONTENTS, READONLY, DEBUGGING
 13 .debug_ranges   00000450  00000000  00000000  00011a40  2**3  CONTENTS, READONLY, DEBUGGING
 14 .debug_line     00005952  00000000  00000000  00011e90  2**0  CONTENTS, READONLY, DEBUGGING
 15 .debug_str      000018e3  00000000  00000000  000177e2  2**0  CONTENTS, READONLY, DEBUGGING
 16 .comment        00000033  00000000  00000000  000190c5  2**0  CONTENTS, READONLY
 17 .debug_frame    00001280  00000000  00000000  000190f8  2**2  CONTENTS, READONLY, DEBUGGING
 18 .debug_loc      00001502  00000000  00000000  0001a378  2**0  CONTENTS, READONLY, DEBUGGING
 19 .stab           00000084  00000000  00000000  0001b87c  2**2  CONTENTS, READONLY, DEBUGGING
 20 .stabstr        00000117  00000000  00000000  0001b900  2**0  CONTENTS, READONLY, DEBUGGING
SYMBOL TABLE:
00000000 l    d  .init	00000000 .init
00000004 l    d  .highcodelalign	00000000 .highcodelalign
20000000 l    d  .highcode	00000000 .highcode
00000c34 l    d  .text	00000000 .text
000030f8 l    d  .fini	00000000 .fini
20000c30 l    d  .dalign	00000000 .dalign
000030f8 l    d  .dlalign	00000000 .dlalign
20000c30 l    d  .data	00000000 .data
20000c98 l    d  .bss	00000000 .bss
20006600 l    d  .stack	00000000 .stack
00000000 l    d  .debug_info	00000000 .debug_info
00000000 l    d  .debug_abbrev	00000000 .debug_abbrev
00000000 l    d  .debug_aranges	00000000 .debug_aranges
00000000 l    d  .debug_ranges	00000000 .debug_ranges
00000000 l    d  .debug_line	00000000 .debug_line
00000000 l    d  .debug_str	00000000 .debug_str
00000000 l    d  .comment	00000000 .comment
00000000 l    d  .debug_frame	00000000 .debug_frame
00000000 l    d  .debug_loc	00000000 .debug_loc
00000000 l    d  .stab	00000000 .stab
00000000 l    d  .stabstr	00000000 .stabstr
00000000 l    df *ABS*	00000000 ./Startup/startup_CH592.o
20000000 l       .highcode	00000000 _vector_base
00000000 l    df *ABS*	00000000 CH59x_sys.c
20000c90 l     O .data	00000004 curbrk.3969
00000000 l    df *ABS*	00000000 my_interface.c
20000d2c l     O .bss	00000020 i2c_master_buffer
20000d4c l     O .bss	00000020 i2c_slave_rxbuffer
20000d6c l     O .bss	00000020 i2c_slave_txbuffer
20000c98 l     O .bss	00000001 i2c_error
20000c99 l     O .bss	00000001 i2c_in_repstart
20000c9a l     O .bss	00000001 i2c_master_buffer_index
20000c9b l     O .bss	00000001 i2c_master_buffer_length
20000c9c l     O .bss	00000001 i2c_send_stop
20000c9d l     O .bss	00000001 i2c_slave_addr_rw
20000c9e l     O .bss	00000001 i2c_slave_rxbuffer_index
20000c9f l     O .bss	00000001 i2c_slave_txbuffer_index
20000ca0 l     O .bss	00000001 i2c_slave_txbuffer_length
20000ca1 l     O .bss	00000001 i2c_state
20000ca2 l     O .bss	00000001 is_nack_sent
20000ca4 l     O .bss	00000004 slave_cb
00000000 l    df *ABS*	00000000 ISP583.c
2000081a l       .highcode	00000000 .loop18
20000828 l       .highcode	00000000 .loop29
20000836 l       .highcode	00000000 .loop40
20000ac2 l       .highcode	00000000 .loop402
00000000 l    df *ABS*	00000000 Main.c
00000000 l    df *ABS*	00000000 CH59x_gpio.c
00000000 l    df *ABS*	00000000 CH59x_i2c.c
00000000 l    df *ABS*	00000000 CH59x_uart1.c
00000000 l    df *ABS*	00000000 code.c
00000000 l    df *ABS*	00000000 my_module.c
00000000 l    df *ABS*	00000000 my_tool.c
20000d8c l     O .bss	00000400 result.4356
00000000 l    df *ABS*	00000000 extendsfdf2.c
00000000 l    df *ABS*	00000000 libgcc2.c
00000000 l    df *ABS*	00000000 memcpy.c
00000000 l    df *ABS*	00000000 printf.c
00000000 l    df *ABS*	00000000 snprintf.c
00000000 l    df *ABS*	00000000 strcat.c
00000000 l    df *ABS*	00000000 findfp.c
000019ec l     F .text	0000006a std
00000000 l    df *ABS*	00000000 fwalk.c
00000000 l    df *ABS*	00000000 nano-mallocr.c
00000000 l    df *ABS*	00000000 nano-vfprintf.c
00000000 l    df *ABS*	00000000 nano-vfprintf.c
0000205c l     F .text	00000028 __sfputc_r
00000000 l    df *ABS*	00000000 nano-vfprintf_i.c
00000000 l    df *ABS*	00000000 sbrkr.c
00000000 l    df *ABS*	00000000 stdio.c
00000000 l    df *ABS*	00000000 wbuf.c
00000000 l    df *ABS*	00000000 writer.c
00000000 l    df *ABS*	00000000 wsetup.c
00000000 l    df *ABS*	00000000 closer.c
00000000 l    df *ABS*	00000000 fflush.c
00000000 l    df *ABS*	00000000 lseekr.c
00000000 l    df *ABS*	00000000 makebuf.c
00000000 l    df *ABS*	00000000 memchr.c
00000000 l    df *ABS*	00000000 memmove.c
00000000 l    df *ABS*	00000000 mlock.c
00000000 l    df *ABS*	00000000 nano-mallocr.c
00000000 l    df *ABS*	00000000 nano-mallocr.c
00000000 l    df *ABS*	00000000 readr.c
00000000 l    df *ABS*	00000000 fstatr.c
00000000 l    df *ABS*	00000000 isattyr.c
00000000 l    df *ABS*	00000000 nano-mallocr.c
00000000 l    df *ABS*	00000000 close.c
00000000 l    df *ABS*	00000000 fstat.c
00000000 l    df *ABS*	00000000 isatty.c
00000000 l    df *ABS*	00000000 lseek.c
00000000 l    df *ABS*	00000000 read.c
00000000 l    df *ABS*	00000000 libgcc2.c
00000000 l    df *ABS*	00000000 impure.c
20000c30 l     O .data	00000060 impure_data
00000000 l    df *ABS*	00000000 reent.c
00002eca g     F .text	00000014 _malloc_usable_size_r
00002ea2 g     F .text	00000028 _isatty_r
0000136a g     F .text	00000028 UART1_SendString
000013e0 g     F .text	00000048 USART_APP_Init
00002bca g     F .text	0000002c _lseek_r
20000836 g     F .highcode	0000000e FLASH_ROM_OUT
00001916 g     F .text	00000044 printf
20001490 g       .data	00000000 __global_pointer$
00001086 g     F .text	0000000e I2C_ReceiveData
000027c2 g     F .text	00000036 __sseek
00001aa6 g     F .text	0000006a __sinit
000027fe g     F .text	000000c2 __swbuf_r
2000030c g     F .highcode	0000000e mDelayuS
2000028c  w    F .highcode	00000080 HardFault_Handler
00001a60 g     F .text	00000046 __sfmoreglue
20000090  w      .highcode	00000000 GPIOB_IRQHandler
00001204 g     F .text	00000016 I2C_GetLastEvent
00002d52 g     F .text	00000002 __malloc_unlock
20000090  w      .highcode	00000000 GPIOA_IRQHandler
20000090  w      .highcode	00000000 SysTick_Handler
00001392 g     F .text	0000002a UART1_RecvString
00002d06 g     F .text	0000004a memmove
0000195a g     F .text	00000072 snprintf
20000090  w      .highcode	00000000 NMI_Handler
20000342 g     F .highcode	00000096 UART1_IRQHandler
20000cbc g     O .bss	00000001 temp_read
00002e78 g     F .text	0000002a _fstat_r
2000118c g     O .bss	00000004 errno
20000c98 g       .bss	00000000 _sbss
00000200 g       *ABS*	00000000 __stack_size
000013bc g     F .text	0000001a CODE_INIT
20000828 g     F .highcode	0000000e FLASH_ROM_IN
20000090  w      .highcode	00000000 UART0_IRQHandler
0000105e g     F .text	0000001e I2C_ITConfig
00001860 g     F .text	000000b6 memcpy
00001a56 g     F .text	0000000a _cleanup_r
00001de0 g     F .text	0000027c _svfprintf_r
00001626 g     F .text	0000003c my_qmc5883_self_test
00001340 g     F .text	0000002a UART1_INTCfg
00002eea g     F .text	0000000c _fstat
00000004 g       .init	00000000 _einit
20000090  w      .highcode	00000000 BB_IRQHandler
200008c4 g     F .highcode	0000036a FLASH_EEPROM_CMD
20000090  w      .highcode	00000000 Break_Point_Handler
00000f52 g     F .text	000000a6 GPIOB_ModeCfg
0000271a g     F .text	0000002a _sbrk_r
00001326 g     F .text	0000001a UART1_ByteTrigCfg
20000090  w      .highcode	00000000 TMR0_IRQHandler
00002e4c g     F .text	0000002c _read_r
00001582 g     F .text	00000022 I2C_Read_QMC5883
20000808 g     F .highcode	00000012 FLASH_ROM_BEG
0000173e g     F .text	000000ac .hidden __extendsfdf2
2000031a g     F .highcode	00000028 mDelaymS
20000090  w      .highcode	00000000 Ecall_M_Mode_Handler
20006600 g       .stack	00000000 _heap_end
00002ef6 g     F .text	0000000c _isatty
000030f4 g     O .text	00000004 _global_impure_ptr
20000844 g     F .highcode	00000048 FLASH_ROM_ADDR
20000cac g     O .bss	00000006 qmc5883_mag
00002df8 g     F .text	00000054 _realloc_r
00001482 g     F .text	00000100 i2c_read_from
0000107c g     F .text	0000000a I2C_SendData
00001294 g     F .text	00000030 _sbrk
000010ae g     F .text	00000156 I2C_Init
20000090  w      .highcode	00000000 RTC_IRQHandler
20001190 g       .bss	00000000 _ebss
000012f4 g     F .text	00000032 UART1_DefInit
20000cb4 g     O .bss	00000006 temp_qmc5883
2000088c g     F .highcode	00000038 FLASH_ROM_WAIT
000019cc g     F .text	00000020 strcat
00000ff8 g     F .text	00000022 I2C_GenerateSTART
00003058 g     O .text	00000020 __sf_fake_stderr
0000195a g     F .text	00000072 sniprintf
20000090  w      .highcode	00000000 UART2_IRQHandler
20000090  w      .highcode	00000000 PWMX_IRQHandler
00001cf6 g     F .text	000000ea __ssputs_r
000017ea g     F .text	00000076 .hidden __clzsi2
00002084 g     F .text	00000042 __sfputs_r
00002cec g     F .text	0000001a memchr
00002d54 g     F .text	000000a4 _free_r
00000000 g       .init	00000000 _start
00002f02 g     F .text	0000000c _lseek
20000090  w      .highcode	00000000 ADC_IRQHandler
20000000 g       .highcode	00000000 _highcode_vma_start
00001428 g     F .text	0000005a i2c_app_init
20000090  w      .highcode	00000000 TMR2_IRQHandler
00002a00 g     F .text	00000028 _close_r
0000121a g     F .text	00000012 I2C_ClearFlag
20000c30 g       .data	00000000 _data_vma
20000092 g     F .highcode	000001a2 SetSysClock
20000090  w      .highcode	00000000 USB_IRQHandler
000028ee g     F .text	00000112 __swsetup_r
00001b10 g     F .text	000000a0 __sfp
00002744 g     F .text	00000030 __sread
00002d50 g     F .text	00000002 __malloc_lock
00002b64 g     F .text	00000066 _fflush_r
00003078 g     O .text	00000020 __sf_fake_stdin
000015a4 g     F .text	00000082 QMC5883_Read_Mag
200003d8 g     F .highcode	00000430 I2C_IRQHandler
00000cde g     F .text	000000a8 memset
00000ea4 g     F .text	00000008 main
20000ca8 g     O .bss	00000001 trigB
000027f8 g     F .text	00000006 __sclose
000013d6 g     F .text	0000000a CODE_MAIN
00001c1c g     F .text	000000da _malloc_r
00000d86 g     F .text	0000011e strcmp
00000004 g       .highcodelalign	00000000 _highcode_lma
00001094 g     F .text	0000001a I2C_SoftwareResetCmd
00001916 g     F .text	00000044 iprintf
00002f58 g     O .text	00000100 .hidden __clz_tab
20000090  w      .highcode	00000000 LLE_IRQHandler
00000000 g       .init	00000000 _sinit
000028c0 g     F .text	0000002e _write_r
00002364 g     F .text	0000010c _printf_common
20000c94 g     O .data	00000004 _impure_ptr
00002a28 g     F .text	0000013c __sflush_r
00001de0 g     F .text	0000027c _svfiprintf_r
20000090  w      .highcode	00000000 WDOG_BAT_IRQHandler
20000090  w      .highcode	00000000 Ecall_U_Mode_Handler
20000cc8 g     O .bss	00000064 RxBuff
20000090  w      .highcode	00000000 TMR3_IRQHandler
20006800 g       .stack	00000000 _eusrstack
20000090  w      .highcode	00000000 SW_Handler
00001662 g     F .text	000000dc muti_printf_arrays
00000eac g     F .text	000000a6 GPIOA_ModeCfg
00002bf6 g     F .text	00000058 __swhatbuf_r
0000122c g     F .text	00000040 GetSysClock
0000126c g     F .text	00000028 _write
20000c98 g       .data	00000000 _edata
20000090  w      .highcode	00000000 SPI0_IRQHandler
20001190 g       .bss	00000000 _end
20000c30 g       .highcode	00000000 _highcode_vma_end
000030f8 g       .dlalign	00000000 _data_lma
00002774 g     F .text	0000004e __swrite
000020c6 g     F .text	0000029e _vfiprintf_r
00001bb0 g     F .text	0000006c _fwalk_reent
00003098 g     O .text	00000020 __sf_fake_stdout
00002f0e g     F .text	0000000c _read
00000c34  w      .text	00000000 handle_reset
00002c4e g     F .text	0000009e __smakebuf_r
0000103c g     F .text	00000022 I2C_AcknowledgeConfig
00002470 g     F .text	000002aa _printf_i
20000090  w      .highcode	00000000 UART3_IRQHandler
20000cc4 g     O .bss	00000004 __malloc_sbrk_start
0000101a g     F .text	00000022 I2C_GenerateSTOP
2000081a g     F .highcode	0000000e FLASH_ROM_END
20000cc0 g     O .bss	00000004 __malloc_free_list
000020c6 g     F .text	0000029e _vfprintf_r
20000090  w      .highcode	00000000 TMR1_IRQHandler
20000234 g     F .highcode	00000058 SYS_ResetExecute
00002ede g     F .text	0000000c _close
000012c4 g     F .text	00000030 UART1_BaudRateCfg



Disassembly of section .init:

00000000 <_sinit>:
_start():
c:/Users/Administrator/Documents/MyCode/0323/ch582_i2c/SRC/Startup/startup_CH592.S:17

	.section	.init,"ax",@progbits
	.global	_start
	.align	1
_start:
	j	handle_reset
   0:	4350006f          	j	c34 <handle_reset>

Disassembly of section .highcode:

20000000 <_highcode_vma_start>:
	...
_vector_base():
20000008:	0090                	addi	a2,sp,64
2000000a:	2000                	fld	fs0,0(s0)
2000000c:	028c                	addi	a1,sp,320
2000000e:	2000                	fld	fs0,0(s0)
20000010:	bda9                	j	1ffffe6a <_data_lma+0x1fffcd72>
20000012:	f5f9                	bnez	a1,1fffffe0 <_data_lma+0x1fffcee8>
20000014:	0090                	addi	a2,sp,64
20000016:	2000                	fld	fs0,0(s0)
	...
20000020:	0090                	addi	a2,sp,64
20000022:	2000                	fld	fs0,0(s0)
20000024:	0090                	addi	a2,sp,64
20000026:	2000                	fld	fs0,0(s0)
	...
20000030:	0090                	addi	a2,sp,64
20000032:	2000                	fld	fs0,0(s0)
20000034:	0000                	unimp
20000036:	0000                	unimp
20000038:	0090                	addi	a2,sp,64
2000003a:	2000                	fld	fs0,0(s0)
2000003c:	0000                	unimp
2000003e:	0000                	unimp
20000040:	0090                	addi	a2,sp,64
20000042:	2000                	fld	fs0,0(s0)
20000044:	0090                	addi	a2,sp,64
20000046:	2000                	fld	fs0,0(s0)
20000048:	0090                	addi	a2,sp,64
2000004a:	2000                	fld	fs0,0(s0)
2000004c:	0090                	addi	a2,sp,64
2000004e:	2000                	fld	fs0,0(s0)
20000050:	0090                	addi	a2,sp,64
20000052:	2000                	fld	fs0,0(s0)
20000054:	0090                	addi	a2,sp,64
20000056:	2000                	fld	fs0,0(s0)
20000058:	0090                	addi	a2,sp,64
2000005a:	2000                	fld	fs0,0(s0)
2000005c:	0000                	unimp
2000005e:	0000                	unimp
20000060:	0090                	addi	a2,sp,64
20000062:	2000                	fld	fs0,0(s0)
20000064:	0090                	addi	a2,sp,64
20000066:	2000                	fld	fs0,0(s0)
20000068:	0090                	addi	a2,sp,64
2000006a:	2000                	fld	fs0,0(s0)
2000006c:	0342                	slli	t1,t1,0x10
2000006e:	2000                	fld	fs0,0(s0)
20000070:	0090                	addi	a2,sp,64
20000072:	2000                	fld	fs0,0(s0)
20000074:	0090                	addi	a2,sp,64
20000076:	2000                	fld	fs0,0(s0)
20000078:	03d8                	addi	a4,sp,452
2000007a:	2000                	fld	fs0,0(s0)
2000007c:	0090                	addi	a2,sp,64
2000007e:	2000                	fld	fs0,0(s0)
20000080:	0090                	addi	a2,sp,64
20000082:	2000                	fld	fs0,0(s0)
20000084:	0090                	addi	a2,sp,64
20000086:	2000                	fld	fs0,0(s0)
20000088:	0090                	addi	a2,sp,64
2000008a:	2000                	fld	fs0,0(s0)
2000008c:	0090                	addi	a2,sp,64
2000008e:	2000                	fld	fs0,0(s0)

20000090 <ADC_IRQHandler>:
GPIOB_IRQHandler():
c:/Users/Administrator/Documents/MyCode/0323/ch582_i2c/SRC/Startup/startup_CH592.S:119
TMR3_IRQHandler:
UART2_IRQHandler:
UART3_IRQHandler:
WDOG_BAT_IRQHandler: 
1:  
	j 1b
20000090:	a001                	j	20000090 <ADC_IRQHandler>

20000092 <SetSysClock>:
SetSysClock():
c:/Users/Administrator/Documents/MyCode/0323/ch582_i2c/SRC/StdPeriphDriver/CH59x_sys.c:26
 *
 * @return  none
 */
__HIGH_CODE
void SetSysClock(SYS_CLKTypeDef sc)
{
20000092:	1101                	addi	sp,sp,-32
__risc_v_disable_irq():
c:/Users/Administrator/Documents/MyCode/0323/ch582_i2c/SRC/RVMSIS/core_riscv.h:130
 */
__attribute__((always_inline)) RV_STATIC_INLINE uint32_t __risc_v_disable_irq(void)
{
  uint32_t result;

  __asm volatile ("csrrc %0, 0x800, %1" : \
20000094:	08800713          	li	a4,136
20000098:	800737f3          	csrrc	a5,0x800,a4
c:/Users/Administrator/Documents/MyCode/0323/ch582_i2c/SRC/RVMSIS/core_riscv.h:132
          "=r"(result): "r"(0x88) : "memory");
  return result & 0x88;
2000009c:	0887f793          	andi	a5,a5,136
SetSysClock():
c:/Users/Administrator/Documents/MyCode/0323/ch582_i2c/SRC/StdPeriphDriver/CH59x_sys.c:27
    sys_safe_access_enable();
200000a0:	c23e                	sw	a5,4(sp)
200000a2:	0001                	nop
200000a4:	0001                	nop
200000a6:	400017b7          	lui	a5,0x40001
200000aa:	05700593          	li	a1,87
200000ae:	04b78023          	sb	a1,64(a5) # 40001040 <_eusrstack+0x1fffa840>
200000b2:	fa800613          	li	a2,-88
200000b6:	04c78023          	sb	a2,64(a5)
200000ba:	0001                	nop
200000bc:	0001                	nop
c:/Users/Administrator/Documents/MyCode/0323/ch582_i2c/SRC/StdPeriphDriver/CH59x_sys.c:28
    R8_PLL_CONFIG &= ~(1 << 5); //
200000be:	04b7c683          	lbu	a3,75(a5)
200000c2:	0df6f693          	andi	a3,a3,223
200000c6:	04d785a3          	sb	a3,75(a5)
c:/Users/Administrator/Documents/MyCode/0323/ch582_i2c/SRC/StdPeriphDriver/CH59x_sys.c:29
    sys_safe_access_disable();
200000ca:	04078023          	sb	zero,64(a5)
200000ce:	4692                	lw	a3,4(sp)
__risc_v_enable_irq():
c:/Users/Administrator/Documents/MyCode/0323/ch582_i2c/SRC/RVMSIS/core_riscv.h:114
  __asm volatile ("csrrs %0, 0x800, %1" : \
200000d0:	8006a6f3          	csrrs	a3,0x800,a3
SetSysClock():
c:/Users/Administrator/Documents/MyCode/0323/ch582_i2c/SRC/StdPeriphDriver/CH59x_sys.c:29
200000d4:	0001                	nop
200000d6:	0001                	nop
c:/Users/Administrator/Documents/MyCode/0323/ch582_i2c/SRC/StdPeriphDriver/CH59x_sys.c:30
    if(sc & 0x20)  // HSE div
200000d8:	02057693          	andi	a3,a0,32
200000dc:	ced5                	beqz	a3,20000198 <SetSysClock+0x106>
__risc_v_disable_irq():
c:/Users/Administrator/Documents/MyCode/0323/ch582_i2c/SRC/RVMSIS/core_riscv.h:130
  __asm volatile ("csrrc %0, 0x800, %1" : \
200000de:	800736f3          	csrrc	a3,0x800,a4
c:/Users/Administrator/Documents/MyCode/0323/ch582_i2c/SRC/RVMSIS/core_riscv.h:132
  return result & 0x88;
200000e2:	0886f693          	andi	a3,a3,136
SetSysClock():
c:/Users/Administrator/Documents/MyCode/0323/ch582_i2c/SRC/StdPeriphDriver/CH59x_sys.c:32
    {
        sys_safe_access_enable();
200000e6:	c436                	sw	a3,8(sp)
200000e8:	0001                	nop
200000ea:	0001                	nop
200000ec:	04b78023          	sb	a1,64(a5)
200000f0:	04c78023          	sb	a2,64(a5)
200000f4:	0001                	nop
200000f6:	0001                	nop
c:/Users/Administrator/Documents/MyCode/0323/ch582_i2c/SRC/StdPeriphDriver/CH59x_sys.c:33
        R32_CLK_SYS_CFG = (0 << 6) | (sc & 0x1f) | RB_TX_32M_PWR_EN | RB_PLL_PWR_EN;
200000f8:	001406b7          	lui	a3,0x140
200000fc:	897d                	andi	a0,a0,31
200000fe:	8d55                	or	a0,a0,a3
20000100:	c788                	sw	a0,8(a5)
c:/Users/Administrator/Documents/MyCode/0323/ch582_i2c/SRC/StdPeriphDriver/CH59x_sys.c:34
        __nop();
20000102:	0001                	nop
c:/Users/Administrator/Documents/MyCode/0323/ch582_i2c/SRC/StdPeriphDriver/CH59x_sys.c:35
        __nop();
20000104:	0001                	nop
c:/Users/Administrator/Documents/MyCode/0323/ch582_i2c/SRC/StdPeriphDriver/CH59x_sys.c:36
        __nop();
20000106:	0001                	nop
c:/Users/Administrator/Documents/MyCode/0323/ch582_i2c/SRC/StdPeriphDriver/CH59x_sys.c:37
        __nop();
20000108:	0001                	nop
c:/Users/Administrator/Documents/MyCode/0323/ch582_i2c/SRC/StdPeriphDriver/CH59x_sys.c:38
        sys_safe_access_disable();
2000010a:	04078023          	sb	zero,64(a5)
2000010e:	46a2                	lw	a3,8(sp)
__risc_v_enable_irq():
c:/Users/Administrator/Documents/MyCode/0323/ch582_i2c/SRC/RVMSIS/core_riscv.h:114
  __asm volatile ("csrrs %0, 0x800, %1" : \
20000110:	8006a6f3          	csrrs	a3,0x800,a3
SetSysClock():
c:/Users/Administrator/Documents/MyCode/0323/ch582_i2c/SRC/StdPeriphDriver/CH59x_sys.c:38
20000114:	0001                	nop
20000116:	0001                	nop
__risc_v_disable_irq():
c:/Users/Administrator/Documents/MyCode/0323/ch582_i2c/SRC/RVMSIS/core_riscv.h:130
  __asm volatile ("csrrc %0, 0x800, %1" : \
20000118:	80073773          	csrrc	a4,0x800,a4
c:/Users/Administrator/Documents/MyCode/0323/ch582_i2c/SRC/RVMSIS/core_riscv.h:132
  return result & 0x88;
2000011c:	08877713          	andi	a4,a4,136
SetSysClock():
c:/Users/Administrator/Documents/MyCode/0323/ch582_i2c/SRC/StdPeriphDriver/CH59x_sys.c:39
        sys_safe_access_enable();
20000120:	c63a                	sw	a4,12(sp)
20000122:	0001                	nop
20000124:	0001                	nop
20000126:	04b78023          	sb	a1,64(a5)
2000012a:	04c78023          	sb	a2,64(a5)
2000012e:	0001                	nop
20000130:	0001                	nop
c:/Users/Administrator/Documents/MyCode/0323/ch582_i2c/SRC/StdPeriphDriver/CH59x_sys.c:40
        SAFEOPERATE;
20000132:	0001                	nop
20000134:	0001                	nop
c:/Users/Administrator/Documents/MyCode/0323/ch582_i2c/SRC/StdPeriphDriver/CH59x_sys.c:41
        R8_FLASH_CFG = 0X51;
20000136:	40002737          	lui	a4,0x40002
2000013a:	05100693          	li	a3,81
2000013e:	80d703a3          	sb	a3,-2041(a4) # 40001807 <_eusrstack+0x1fffb007>
c:/Users/Administrator/Documents/MyCode/0323/ch582_i2c/SRC/StdPeriphDriver/CH59x_sys.c:42
        sys_safe_access_disable();
20000142:	04078023          	sb	zero,64(a5)
20000146:	47b2                	lw	a5,12(sp)
__risc_v_enable_irq():
c:/Users/Administrator/Documents/MyCode/0323/ch582_i2c/SRC/RVMSIS/core_riscv.h:114
  __asm volatile ("csrrs %0, 0x800, %1" : \
20000148:	8007a7f3          	csrrs	a5,0x800,a5
SetSysClock():
c:/Users/Administrator/Documents/MyCode/0323/ch582_i2c/SRC/StdPeriphDriver/CH59x_sys.c:62
    }
    else
    {
        sys_safe_access_enable();
        R32_CLK_SYS_CFG |= RB_CLK_SYS_MOD;
        sys_safe_access_disable();
2000014c:	0001                	nop
2000014e:	0001                	nop
__risc_v_disable_irq():
c:/Users/Administrator/Documents/MyCode/0323/ch582_i2c/SRC/RVMSIS/core_riscv.h:130
  __asm volatile ("csrrc %0, 0x800, %1" : \
20000150:	08800793          	li	a5,136
20000154:	8007b7f3          	csrrc	a5,0x800,a5
c:/Users/Administrator/Documents/MyCode/0323/ch582_i2c/SRC/RVMSIS/core_riscv.h:132
  return result & 0x88;
20000158:	0887f793          	andi	a5,a5,136
SetSysClock():
c:/Users/Administrator/Documents/MyCode/0323/ch582_i2c/SRC/StdPeriphDriver/CH59x_sys.c:65
    }
    //更改FLASH clk的驱动能力
    sys_safe_access_enable();
2000015c:	ce3e                	sw	a5,28(sp)
2000015e:	0001                	nop
20000160:	0001                	nop
20000162:	400017b7          	lui	a5,0x40001
20000166:	05700713          	li	a4,87
2000016a:	04e78023          	sb	a4,64(a5) # 40001040 <_eusrstack+0x1fffa840>
2000016e:	fa800713          	li	a4,-88
20000172:	04e78023          	sb	a4,64(a5)
20000176:	0001                	nop
20000178:	0001                	nop
c:/Users/Administrator/Documents/MyCode/0323/ch582_i2c/SRC/StdPeriphDriver/CH59x_sys.c:66
    R8_PLL_CONFIG |= 1 << 7;
2000017a:	04b7c703          	lbu	a4,75(a5)
2000017e:	08076713          	ori	a4,a4,128
20000182:	04e785a3          	sb	a4,75(a5)
c:/Users/Administrator/Documents/MyCode/0323/ch582_i2c/SRC/StdPeriphDriver/CH59x_sys.c:67
    sys_safe_access_disable();
20000186:	04078023          	sb	zero,64(a5)
2000018a:	47f2                	lw	a5,28(sp)
__risc_v_enable_irq():
c:/Users/Administrator/Documents/MyCode/0323/ch582_i2c/SRC/RVMSIS/core_riscv.h:114
  __asm volatile ("csrrs %0, 0x800, %1" : \
2000018c:	8007a7f3          	csrrs	a5,0x800,a5
SetSysClock():
c:/Users/Administrator/Documents/MyCode/0323/ch582_i2c/SRC/StdPeriphDriver/CH59x_sys.c:67
20000190:	0001                	nop
20000192:	0001                	nop
c:/Users/Administrator/Documents/MyCode/0323/ch582_i2c/SRC/StdPeriphDriver/CH59x_sys.c:68
}
20000194:	6105                	addi	sp,sp,32
20000196:	8082                	ret
c:/Users/Administrator/Documents/MyCode/0323/ch582_i2c/SRC/StdPeriphDriver/CH59x_sys.c:45
    else if(sc & 0x40) // PLL div
20000198:	04057693          	andi	a3,a0,64
2000019c:	c6bd                	beqz	a3,2000020a <SetSysClock+0x178>
__risc_v_disable_irq():
c:/Users/Administrator/Documents/MyCode/0323/ch582_i2c/SRC/RVMSIS/core_riscv.h:130
  __asm volatile ("csrrc %0, 0x800, %1" : \
2000019e:	800736f3          	csrrc	a3,0x800,a4
c:/Users/Administrator/Documents/MyCode/0323/ch582_i2c/SRC/RVMSIS/core_riscv.h:132
  return result & 0x88;
200001a2:	0886f693          	andi	a3,a3,136
SetSysClock():
c:/Users/Administrator/Documents/MyCode/0323/ch582_i2c/SRC/StdPeriphDriver/CH59x_sys.c:47
        sys_safe_access_enable();
200001a6:	c836                	sw	a3,16(sp)
200001a8:	0001                	nop
200001aa:	0001                	nop
200001ac:	04b78023          	sb	a1,64(a5)
200001b0:	04c78023          	sb	a2,64(a5)
200001b4:	0001                	nop
200001b6:	0001                	nop
c:/Users/Administrator/Documents/MyCode/0323/ch582_i2c/SRC/StdPeriphDriver/CH59x_sys.c:48
        R32_CLK_SYS_CFG = (1 << 6) | (sc & 0x1f) | RB_TX_32M_PWR_EN | RB_PLL_PWR_EN;
200001b8:	001406b7          	lui	a3,0x140
200001bc:	04068693          	addi	a3,a3,64 # 140040 <_data_lma+0x13cf48>
200001c0:	897d                	andi	a0,a0,31
200001c2:	8d55                	or	a0,a0,a3
200001c4:	c788                	sw	a0,8(a5)
c:/Users/Administrator/Documents/MyCode/0323/ch582_i2c/SRC/StdPeriphDriver/CH59x_sys.c:49
        __nop();
200001c6:	0001                	nop
c:/Users/Administrator/Documents/MyCode/0323/ch582_i2c/SRC/StdPeriphDriver/CH59x_sys.c:50
        __nop();
200001c8:	0001                	nop
c:/Users/Administrator/Documents/MyCode/0323/ch582_i2c/SRC/StdPeriphDriver/CH59x_sys.c:51
        __nop();
200001ca:	0001                	nop
c:/Users/Administrator/Documents/MyCode/0323/ch582_i2c/SRC/StdPeriphDriver/CH59x_sys.c:52
        __nop();
200001cc:	0001                	nop
c:/Users/Administrator/Documents/MyCode/0323/ch582_i2c/SRC/StdPeriphDriver/CH59x_sys.c:53
        sys_safe_access_disable();
200001ce:	04078023          	sb	zero,64(a5)
200001d2:	46c2                	lw	a3,16(sp)
__risc_v_enable_irq():
c:/Users/Administrator/Documents/MyCode/0323/ch582_i2c/SRC/RVMSIS/core_riscv.h:114
  __asm volatile ("csrrs %0, 0x800, %1" : \
200001d4:	8006a6f3          	csrrs	a3,0x800,a3
SetSysClock():
c:/Users/Administrator/Documents/MyCode/0323/ch582_i2c/SRC/StdPeriphDriver/CH59x_sys.c:53
200001d8:	0001                	nop
200001da:	0001                	nop
__risc_v_disable_irq():
c:/Users/Administrator/Documents/MyCode/0323/ch582_i2c/SRC/RVMSIS/core_riscv.h:130
  __asm volatile ("csrrc %0, 0x800, %1" : \
200001dc:	80073773          	csrrc	a4,0x800,a4
c:/Users/Administrator/Documents/MyCode/0323/ch582_i2c/SRC/RVMSIS/core_riscv.h:132
  return result & 0x88;
200001e0:	08877713          	andi	a4,a4,136
SetSysClock():
c:/Users/Administrator/Documents/MyCode/0323/ch582_i2c/SRC/StdPeriphDriver/CH59x_sys.c:54
        sys_safe_access_enable();
200001e4:	ca3a                	sw	a4,20(sp)
200001e6:	0001                	nop
200001e8:	0001                	nop
200001ea:	04b78023          	sb	a1,64(a5)
200001ee:	04c78023          	sb	a2,64(a5)
200001f2:	0001                	nop
200001f4:	0001                	nop
c:/Users/Administrator/Documents/MyCode/0323/ch582_i2c/SRC/StdPeriphDriver/CH59x_sys.c:55
        R8_FLASH_CFG = 0X52;
200001f6:	40002737          	lui	a4,0x40002
200001fa:	05200693          	li	a3,82
200001fe:	80d703a3          	sb	a3,-2041(a4) # 40001807 <_eusrstack+0x1fffb007>
c:/Users/Administrator/Documents/MyCode/0323/ch582_i2c/SRC/StdPeriphDriver/CH59x_sys.c:56
        sys_safe_access_disable();
20000202:	04078023          	sb	zero,64(a5)
20000206:	47d2                	lw	a5,20(sp)
__risc_v_enable_irq():
c:/Users/Administrator/Documents/MyCode/0323/ch582_i2c/SRC/RVMSIS/core_riscv.h:114
  __asm volatile ("csrrs %0, 0x800, %1" : \
20000208:	b781                	j	20000148 <SetSysClock+0xb6>
__risc_v_disable_irq():
c:/Users/Administrator/Documents/MyCode/0323/ch582_i2c/SRC/RVMSIS/core_riscv.h:130
  __asm volatile ("csrrc %0, 0x800, %1" : \
2000020a:	80073773          	csrrc	a4,0x800,a4
c:/Users/Administrator/Documents/MyCode/0323/ch582_i2c/SRC/RVMSIS/core_riscv.h:132
  return result & 0x88;
2000020e:	08877713          	andi	a4,a4,136
SetSysClock():
c:/Users/Administrator/Documents/MyCode/0323/ch582_i2c/SRC/StdPeriphDriver/CH59x_sys.c:60
        sys_safe_access_enable();
20000212:	cc3a                	sw	a4,24(sp)
20000214:	0001                	nop
20000216:	0001                	nop
20000218:	04b78023          	sb	a1,64(a5)
2000021c:	04c78023          	sb	a2,64(a5)
20000220:	0001                	nop
20000222:	0001                	nop
c:/Users/Administrator/Documents/MyCode/0323/ch582_i2c/SRC/StdPeriphDriver/CH59x_sys.c:61
        R32_CLK_SYS_CFG |= RB_CLK_SYS_MOD;
20000224:	4798                	lw	a4,8(a5)
20000226:	0c076713          	ori	a4,a4,192
2000022a:	c798                	sw	a4,8(a5)
c:/Users/Administrator/Documents/MyCode/0323/ch582_i2c/SRC/StdPeriphDriver/CH59x_sys.c:62
        sys_safe_access_disable();
2000022c:	04078023          	sb	zero,64(a5)
20000230:	47e2                	lw	a5,24(sp)
20000232:	bf19                	j	20000148 <SetSysClock+0xb6>

20000234 <SYS_ResetExecute>:
SYS_ResetExecute():
c:/Users/Administrator/Documents/MyCode/0323/ch582_i2c/SRC/StdPeriphDriver/CH59x_sys.c:130
 *
 * @return  none
 */
__HIGH_CODE
void SYS_ResetExecute(void)
{
20000234:	1101                	addi	sp,sp,-32
c:/Users/Administrator/Documents/MyCode/0323/ch582_i2c/SRC/StdPeriphDriver/CH59x_sys.c:131
    FLASH_ROM_SW_RESET();
20000236:	4681                	li	a3,0
20000238:	4601                	li	a2,0
2000023a:	4581                	li	a1,0
2000023c:	4511                	li	a0,4
c:/Users/Administrator/Documents/MyCode/0323/ch582_i2c/SRC/StdPeriphDriver/CH59x_sys.c:130
{
2000023e:	ce06                	sw	ra,28(sp)
c:/Users/Administrator/Documents/MyCode/0323/ch582_i2c/SRC/StdPeriphDriver/CH59x_sys.c:131
    FLASH_ROM_SW_RESET();
20000240:	2551                	jal	200008c4 <FLASH_EEPROM_CMD>
__risc_v_disable_irq():
c:/Users/Administrator/Documents/MyCode/0323/ch582_i2c/SRC/RVMSIS/core_riscv.h:130
  __asm volatile ("csrrc %0, 0x800, %1" : \
20000242:	08800793          	li	a5,136
20000246:	8007b7f3          	csrrc	a5,0x800,a5
c:/Users/Administrator/Documents/MyCode/0323/ch582_i2c/SRC/RVMSIS/core_riscv.h:132
  return result & 0x88;
2000024a:	0887f793          	andi	a5,a5,136
SYS_ResetExecute():
c:/Users/Administrator/Documents/MyCode/0323/ch582_i2c/SRC/StdPeriphDriver/CH59x_sys.c:132
    sys_safe_access_enable();
2000024e:	c63e                	sw	a5,12(sp)
20000250:	0001                	nop
20000252:	0001                	nop
20000254:	400017b7          	lui	a5,0x40001
20000258:	05700713          	li	a4,87
2000025c:	04e78023          	sb	a4,64(a5) # 40001040 <_eusrstack+0x1fffa840>
20000260:	fa800713          	li	a4,-88
20000264:	04e78023          	sb	a4,64(a5)
20000268:	0001                	nop
2000026a:	0001                	nop
c:/Users/Administrator/Documents/MyCode/0323/ch582_i2c/SRC/StdPeriphDriver/CH59x_sys.c:133
    R8_RST_WDOG_CTRL |= RB_SOFTWARE_RESET;
2000026c:	0467c703          	lbu	a4,70(a5)
20000270:	00176713          	ori	a4,a4,1
20000274:	04e78323          	sb	a4,70(a5)
c:/Users/Administrator/Documents/MyCode/0323/ch582_i2c/SRC/StdPeriphDriver/CH59x_sys.c:134
    sys_safe_access_disable();
20000278:	04078023          	sb	zero,64(a5)
2000027c:	47b2                	lw	a5,12(sp)
__risc_v_enable_irq():
c:/Users/Administrator/Documents/MyCode/0323/ch582_i2c/SRC/RVMSIS/core_riscv.h:114
  __asm volatile ("csrrs %0, 0x800, %1" : \
2000027e:	8007a7f3          	csrrs	a5,0x800,a5
SYS_ResetExecute():
c:/Users/Administrator/Documents/MyCode/0323/ch582_i2c/SRC/StdPeriphDriver/CH59x_sys.c:134
20000282:	0001                	nop
20000284:	0001                	nop
c:/Users/Administrator/Documents/MyCode/0323/ch582_i2c/SRC/StdPeriphDriver/CH59x_sys.c:135
}
20000286:	40f2                	lw	ra,28(sp)
20000288:	6105                	addi	sp,sp,32
2000028a:	8082                	ret

2000028c <HardFault_Handler>:
HardFault_Handler():
c:/Users/Administrator/Documents/MyCode/0323/ch582_i2c/SRC/StdPeriphDriver/CH59x_sys.c:268
 */
__INTERRUPT
__HIGH_CODE
__attribute__((weak))
void HardFault_Handler(void)
{
2000028c:	1141                	addi	sp,sp,-16
c:/Users/Administrator/Documents/MyCode/0323/ch582_i2c/SRC/StdPeriphDriver/CH59x_sys.c:269
    FLASH_ROM_SW_RESET();
2000028e:	4681                	li	a3,0
20000290:	4601                	li	a2,0
20000292:	4581                	li	a1,0
20000294:	4511                	li	a0,4
20000296:	253d                	jal	200008c4 <FLASH_EEPROM_CMD>
__risc_v_disable_irq():
c:/Users/Administrator/Documents/MyCode/0323/ch582_i2c/SRC/RVMSIS/core_riscv.h:130
  __asm volatile ("csrrc %0, 0x800, %1" : \
20000298:	08800713          	li	a4,136
2000029c:	800737f3          	csrrc	a5,0x800,a4
c:/Users/Administrator/Documents/MyCode/0323/ch582_i2c/SRC/RVMSIS/core_riscv.h:132
  return result & 0x88;
200002a0:	0887f793          	andi	a5,a5,136
HardFault_Handler():
c:/Users/Administrator/Documents/MyCode/0323/ch582_i2c/SRC/StdPeriphDriver/CH59x_sys.c:270
    sys_safe_access_enable();
200002a4:	c43e                	sw	a5,8(sp)
200002a6:	0001                	nop
200002a8:	0001                	nop
200002aa:	400017b7          	lui	a5,0x40001
200002ae:	05700613          	li	a2,87
200002b2:	04c78023          	sb	a2,64(a5) # 40001040 <_eusrstack+0x1fffa840>
200002b6:	fa800693          	li	a3,-88
200002ba:	04d78023          	sb	a3,64(a5)
200002be:	0001                	nop
200002c0:	0001                	nop
c:/Users/Administrator/Documents/MyCode/0323/ch582_i2c/SRC/StdPeriphDriver/CH59x_sys.c:271
    R16_INT32K_TUNE = 0xFFFF;
200002c2:	55fd                	li	a1,-1
200002c4:	02b79623          	sh	a1,44(a5)
c:/Users/Administrator/Documents/MyCode/0323/ch582_i2c/SRC/StdPeriphDriver/CH59x_sys.c:272
    sys_safe_access_disable();
200002c8:	04078023          	sb	zero,64(a5)
200002cc:	45a2                	lw	a1,8(sp)
__risc_v_enable_irq():
c:/Users/Administrator/Documents/MyCode/0323/ch582_i2c/SRC/RVMSIS/core_riscv.h:114
  __asm volatile ("csrrs %0, 0x800, %1" : \
200002ce:	8005a5f3          	csrrs	a1,0x800,a1
HardFault_Handler():
c:/Users/Administrator/Documents/MyCode/0323/ch582_i2c/SRC/StdPeriphDriver/CH59x_sys.c:272
200002d2:	0001                	nop
200002d4:	0001                	nop
__risc_v_disable_irq():
c:/Users/Administrator/Documents/MyCode/0323/ch582_i2c/SRC/RVMSIS/core_riscv.h:130
  __asm volatile ("csrrc %0, 0x800, %1" : \
200002d6:	80073773          	csrrc	a4,0x800,a4
c:/Users/Administrator/Documents/MyCode/0323/ch582_i2c/SRC/RVMSIS/core_riscv.h:132
  return result & 0x88;
200002da:	08877713          	andi	a4,a4,136
HardFault_Handler():
c:/Users/Administrator/Documents/MyCode/0323/ch582_i2c/SRC/StdPeriphDriver/CH59x_sys.c:273
    sys_safe_access_enable();
200002de:	c63a                	sw	a4,12(sp)
200002e0:	0001                	nop
200002e2:	0001                	nop
200002e4:	04c78023          	sb	a2,64(a5)
200002e8:	04d78023          	sb	a3,64(a5)
200002ec:	0001                	nop
200002ee:	0001                	nop
c:/Users/Administrator/Documents/MyCode/0323/ch582_i2c/SRC/StdPeriphDriver/CH59x_sys.c:274
    R8_RST_WDOG_CTRL |= RB_SOFTWARE_RESET;
200002f0:	0467c703          	lbu	a4,70(a5)
200002f4:	00176713          	ori	a4,a4,1
200002f8:	04e78323          	sb	a4,70(a5)
c:/Users/Administrator/Documents/MyCode/0323/ch582_i2c/SRC/StdPeriphDriver/CH59x_sys.c:275
    sys_safe_access_disable();
200002fc:	04078023          	sb	zero,64(a5)
20000300:	47b2                	lw	a5,12(sp)
__risc_v_enable_irq():
c:/Users/Administrator/Documents/MyCode/0323/ch582_i2c/SRC/RVMSIS/core_riscv.h:114
  __asm volatile ("csrrs %0, 0x800, %1" : \
20000302:	8007a7f3          	csrrs	a5,0x800,a5
HardFault_Handler():
c:/Users/Administrator/Documents/MyCode/0323/ch582_i2c/SRC/StdPeriphDriver/CH59x_sys.c:275
20000306:	0001                	nop
20000308:	0001                	nop
c:/Users/Administrator/Documents/MyCode/0323/ch582_i2c/SRC/StdPeriphDriver/CH59x_sys.c:276 (discriminator 1)
    while(1);
2000030a:	a001                	j	2000030a <HardFault_Handler+0x7e>

2000030c <mDelayuS>:
mDelayuS():
c:/Users/Administrator/Documents/MyCode/0323/ch582_i2c/SRC/StdPeriphDriver/CH59x_sys.c:295
{
    uint32_t i;
#if(FREQ_SYS == 80000000)
    i = t * 20;
#elif(FREQ_SYS == 60000000)
    i = t * 15;
2000030c:	47bd                	li	a5,15
2000030e:	02f50533          	mul	a0,a0,a5
c:/Users/Administrator/Documents/MyCode/0323/ch582_i2c/SRC/StdPeriphDriver/CH59x_sys.c:319 (discriminator 1)
#else
    i = t << 1;
#endif
    do
    {
        __nop();
20000312:	0001                	nop
c:/Users/Administrator/Documents/MyCode/0323/ch582_i2c/SRC/StdPeriphDriver/CH59x_sys.c:320 (discriminator 1)
    } while(--i);
20000314:	157d                	addi	a0,a0,-1
20000316:	fd75                	bnez	a0,20000312 <mDelayuS+0x6>
c:/Users/Administrator/Documents/MyCode/0323/ch582_i2c/SRC/StdPeriphDriver/CH59x_sys.c:321
}
20000318:	8082                	ret

2000031a <mDelaymS>:
mDelaymS():
c:/Users/Administrator/Documents/MyCode/0323/ch582_i2c/SRC/StdPeriphDriver/CH59x_sys.c:334
 *
 * @return  none
 */
__HIGH_CODE
void mDelaymS(uint16_t t)
{
2000031a:	1141                	addi	sp,sp,-16
2000031c:	c422                	sw	s0,8(sp)
2000031e:	c226                	sw	s1,4(sp)
20000320:	c606                	sw	ra,12(sp)
20000322:	84aa                	mv	s1,a0
c:/Users/Administrator/Documents/MyCode/0323/ch582_i2c/SRC/StdPeriphDriver/CH59x_sys.c:337
    uint16_t i;

    for(i = 0; i < t; i++)
20000324:	4401                	li	s0,0
c:/Users/Administrator/Documents/MyCode/0323/ch582_i2c/SRC/StdPeriphDriver/CH59x_sys.c:337 (discriminator 1)
20000326:	00941763          	bne	s0,s1,20000334 <mDelaymS+0x1a>
c:/Users/Administrator/Documents/MyCode/0323/ch582_i2c/SRC/StdPeriphDriver/CH59x_sys.c:341
    {
        mDelayuS(1000);
    }
}
2000032a:	40b2                	lw	ra,12(sp)
2000032c:	4422                	lw	s0,8(sp)
2000032e:	4492                	lw	s1,4(sp)
20000330:	0141                	addi	sp,sp,16
20000332:	8082                	ret
c:/Users/Administrator/Documents/MyCode/0323/ch582_i2c/SRC/StdPeriphDriver/CH59x_sys.c:337 (discriminator 3)
    for(i = 0; i < t; i++)
20000334:	0405                	addi	s0,s0,1
c:/Users/Administrator/Documents/MyCode/0323/ch582_i2c/SRC/StdPeriphDriver/CH59x_sys.c:339 (discriminator 3)
        mDelayuS(1000);
20000336:	3e800513          	li	a0,1000
c:/Users/Administrator/Documents/MyCode/0323/ch582_i2c/SRC/StdPeriphDriver/CH59x_sys.c:337 (discriminator 3)
    for(i = 0; i < t; i++)
2000033a:	0442                	slli	s0,s0,0x10
c:/Users/Administrator/Documents/MyCode/0323/ch582_i2c/SRC/StdPeriphDriver/CH59x_sys.c:339 (discriminator 3)
        mDelayuS(1000);
2000033c:	3fc1                	jal	2000030c <mDelayuS>
c:/Users/Administrator/Documents/MyCode/0323/ch582_i2c/SRC/StdPeriphDriver/CH59x_sys.c:337 (discriminator 3)
    for(i = 0; i < t; i++)
2000033e:	8041                	srli	s0,s0,0x10
20000340:	b7dd                	j	20000326 <mDelaymS+0xc>

20000342 <UART1_IRQHandler>:
UART1_IRQHandler():
c:\Users\Administrator\Documents\MyCode\0324\my_ch582m\ch582m\obj/../Code/my_interface.c:31
    __INTERRUPT
    __HIGH_CODE
    void UART1_IRQHandler(void){
        volatile uint8_t i;

        switch(UART1_GetITFlag()){
20000342:	40003737          	lui	a4,0x40003
20000346:	40474783          	lbu	a5,1028(a4) # 40003404 <_eusrstack+0x1fffcc04>
2000034a:	4699                	li	a3,6
2000034c:	8bbd                	andi	a5,a5,15
2000034e:	02d78863          	beq	a5,a3,2000037e <UART1_IRQHandler+0x3c>
20000352:	4731                	li	a4,12
c:\Users\Administrator\Documents\MyCode\0324\my_ch582m\ch582m\obj/../Code/my_interface.c:28
    void UART1_IRQHandler(void){
20000354:	1141                	addi	sp,sp,-16
20000356:	04e78e63          	beq	a5,a4,200003b2 <UART1_IRQHandler+0x70>
2000035a:	4711                	li	a4,4
2000035c:	00e79e63          	bne	a5,a4,20000378 <UART1_IRQHandler+0x36>
c:\Users\Administrator\Documents\MyCode\0324\my_ch582m\ch582m\obj/../Code/my_interface.c:40
                    UART1_GetLinSTA();
                    break;
                }

            case UART_II_RECV_RDY: // 数据达到设置触发点
                for(i = 0; i != trigB; i++){
20000360:	000107a3          	sb	zero,15(sp)
c:\Users\Administrator\Documents\MyCode\0324\my_ch582m\ch582m\obj/../Code/my_interface.c:41
                    RxBuff[i] = UART1_RecvByte();
20000364:	40003737          	lui	a4,0x40003
20000368:	83818693          	addi	a3,gp,-1992 # 20000cc8 <RxBuff>
c:\Users\Administrator\Documents\MyCode\0324\my_ch582m\ch582m\obj/../Code/my_interface.c:40 (discriminator 1)
                for(i = 0; i != trigB; i++){
2000036c:	00f14783          	lbu	a5,15(sp)
20000370:	8181c603          	lbu	a2,-2024(gp) # 20000ca8 <trigB>
20000374:	00f61963          	bne	a2,a5,20000386 <UART1_IRQHandler+0x44>
c:\Users\Administrator\Documents\MyCode\0324\my_ch582m\ch582m\obj/../Code/my_interface.c:60
                break;

            default:
                break;
        }
    }
20000378:	0141                	addi	sp,sp,16
2000037a:	30200073          	mret
c:\Users\Administrator\Documents\MyCode\0324\my_ch582m\ch582m\obj/../Code/my_interface.c:35
                    UART1_GetLinSTA();
2000037e:	40574783          	lbu	a5,1029(a4) # 40003405 <_eusrstack+0x1fffcc05>
c:\Users\Administrator\Documents\MyCode\0324\my_ch582m\ch582m\obj/../Code/my_interface.c:36
                    break;
20000382:	30200073          	mret
c:\Users\Administrator\Documents\MyCode\0324\my_ch582m\ch582m\obj/../Code/my_interface.c:41 (discriminator 3)
                    RxBuff[i] = UART1_RecvByte();
20000386:	00f14783          	lbu	a5,15(sp)
2000038a:	40874603          	lbu	a2,1032(a4)
2000038e:	97b6                	add	a5,a5,a3
20000390:	00c78023          	sb	a2,0(a5)
c:\Users\Administrator\Documents\MyCode\0324\my_ch582m\ch582m\obj/../Code/my_interface.c:42 (discriminator 3)
                    UART1_SendByte(RxBuff[i]);
20000394:	00f14783          	lbu	a5,15(sp)
20000398:	97b6                	add	a5,a5,a3
2000039a:	0007c783          	lbu	a5,0(a5)
2000039e:	40f70423          	sb	a5,1032(a4)
c:\Users\Administrator\Documents\MyCode\0324\my_ch582m\ch582m\obj/../Code/my_interface.c:40 (discriminator 3)
                for(i = 0; i != trigB; i++){
200003a2:	00f14783          	lbu	a5,15(sp)
200003a6:	0785                	addi	a5,a5,1
200003a8:	0ff7f793          	andi	a5,a5,255
200003ac:	00f107a3          	sb	a5,15(sp)
200003b0:	bf75                	j	2000036c <UART1_IRQHandler+0x2a>
c:\Users\Administrator\Documents\MyCode\0324\my_ch582m\ch582m\obj/../Code/my_interface.c:47
                i = UART1_RecvString(RxBuff);
200003b2:	83818513          	addi	a0,gp,-1992 # 20000cc8 <RxBuff>
200003b6:	e0001097          	auipc	ra,0xe0001
200003ba:	fdc080e7          	jalr	-36(ra) # 1392 <UART1_RecvString>
200003be:	0ff57513          	andi	a0,a0,255
200003c2:	00a107a3          	sb	a0,15(sp)
c:\Users\Administrator\Documents\MyCode\0324\my_ch582m\ch582m\obj/../Code/my_interface.c:48
                UART1_SendString(RxBuff, i);
200003c6:	00f14583          	lbu	a1,15(sp)
200003ca:	83818513          	addi	a0,gp,-1992 # 20000cc8 <RxBuff>
200003ce:	e0001097          	auipc	ra,0xe0001
200003d2:	f9c080e7          	jalr	-100(ra) # 136a <UART1_SendString>
c:\Users\Administrator\Documents\MyCode\0324\my_ch582m\ch582m\obj/../Code/my_interface.c:60
    }
200003d6:	b74d                	j	20000378 <UART1_IRQHandler+0x36>

200003d8 <I2C_IRQHandler>:
I2C_IRQHandler():
c:\Users\Administrator\Documents\MyCode\0324\my_ch582m\ch582m\obj/../Code/my_interface.c:305
    #endif

    __INTERRUPT
    __HIGH_CODE
    void I2C_IRQHandler(void)
    {
200003d8:	1141                	addi	sp,sp,-16
200003da:	c622                	sw	s0,12(sp)
200003dc:	c426                	sw	s1,8(sp)
200003de:	c24a                	sw	s2,4(sp)
c:\Users\Administrator\Documents\MyCode\0324\my_ch582m\ch582m\obj/../Code/my_interface.c:306
        uint32_t event = I2C_GetLastEvent();
200003e0:	e0001097          	auipc	ra,0xe0001
200003e4:	e24080e7          	jalr	-476(ra) # 1204 <I2C_GetLastEvent>
c:\Users\Administrator\Documents\MyCode\0324\my_ch582m\ch582m\obj/../Code/my_interface.c:310
        print_i2c_irq_sta(event);

        /* I2C Master */
        if (event & (RB_I2C_MSL << 16)) {
200003e8:	00f51793          	slli	a5,a0,0xf
c:\Users\Administrator\Documents\MyCode\0324\my_ch582m\ch582m\obj/../Code/my_interface.c:306
        uint32_t event = I2C_GetLastEvent();
200003ec:	842a                	mv	s0,a0
c:\Users\Administrator\Documents\MyCode\0324\my_ch582m\ch582m\obj/../Code/my_interface.c:310
        if (event & (RB_I2C_MSL << 16)) {
200003ee:	40057493          	andi	s1,a0,1024
200003f2:	2607d063          	bgez	a5,20000652 <I2C_IRQHandler+0x27a>
c:\Users\Administrator\Documents\MyCode\0324\my_ch582m\ch582m\obj/../Code/my_interface.c:311
            if (event & RB_I2C_SB) {
200003f6:	00157793          	andi	a5,a0,1
200003fa:	c799                	beqz	a5,20000408 <I2C_IRQHandler+0x30>
c:\Users\Administrator\Documents\MyCode\0324\my_ch582m\ch582m\obj/../Code/my_interface.c:313
                /* Start condition sent, send address */
                I2C_SendData(i2c_slave_addr_rw);
200003fc:	80d1c503          	lbu	a0,-2035(gp) # 20000c9d <i2c_slave_addr_rw>
20000400:	e0001097          	auipc	ra,0xe0001
20000404:	c7c080e7          	jalr	-900(ra) # 107c <I2C_SendData>
c:\Users\Administrator\Documents\MyCode\0324\my_ch582m\ch582m\obj/../Code/my_interface.c:318
                I2C_DBG("Master selected, send address\n");
            }

            /* I2C Master transmitter */
            if (event & (RB_I2C_TRA << 16)) {
20000408:	00d41793          	slli	a5,s0,0xd
2000040c:	0e07de63          	bgez	a5,20000508 <I2C_IRQHandler+0x130>
c:\Users\Administrator\Documents\MyCode\0324\my_ch582m\ch582m\obj/../Code/my_interface.c:321
                I2C_DBG("Master transmitter:\n");
                /* Slave receiver acked address or sent bit */
                if (event & (RB_I2C_ADDR | RB_I2C_BTF | RB_I2C_TxE | (RB_I2C_TRA << 16))) {
20000410:	000407b7          	lui	a5,0x40
20000414:	08678793          	addi	a5,a5,134 # 40086 <_data_lma+0x3cf8e>
20000418:	8fe1                	and	a5,a5,s0
2000041a:	cb95                	beqz	a5,2000044e <I2C_IRQHandler+0x76>
c:\Users\Administrator\Documents\MyCode\0324\my_ch582m\ch582m\obj/../Code/my_interface.c:323
                    /* if there is data to send, send it, otherwise stop */
                    if (i2c_master_buffer_index < i2c_master_buffer_length) {
2000041c:	80a1c783          	lbu	a5,-2038(gp) # 20000c9a <i2c_master_buffer_index>
20000420:	80b1c703          	lbu	a4,-2037(gp) # 20000c9b <i2c_master_buffer_length>
20000424:	08e7f763          	bgeu	a5,a4,200004b2 <I2C_IRQHandler+0xda>
c:\Users\Administrator\Documents\MyCode\0324\my_ch582m\ch582m\obj/../Code/my_interface.c:324
                        I2C_SendData(i2c_master_buffer[i2c_master_buffer_index++]);
20000428:	80a18793          	addi	a5,gp,-2038 # 20000c9a <i2c_master_buffer_index>
2000042c:	0007c783          	lbu	a5,0(a5)
20000430:	0ff7f793          	andi	a5,a5,255
20000434:	00178713          	addi	a4,a5,1
20000438:	80e18523          	sb	a4,-2038(gp) # 20000c9a <i2c_master_buffer_index>
2000043c:	89c18713          	addi	a4,gp,-1892 # 20000d2c <i2c_master_buffer>
20000440:	97ba                	add	a5,a5,a4
20000442:	0007c503          	lbu	a0,0(a5)
20000446:	e0001097          	auipc	ra,0xe0001
2000044a:	c36080e7          	jalr	-970(ra) # 107c <I2C_SendData>
c:\Users\Administrator\Documents\MyCode\0324\my_ch582m\ch582m\obj/../Code/my_interface.c:346
                        }
                    }
                }

                /* Address or data sent, nack received */
                if (event & RB_I2C_AF) {
2000044e:	c09d                	beqz	s1,20000474 <I2C_IRQHandler+0x9c>
c:\Users\Administrator\Documents\MyCode\0324\my_ch582m\ch582m\obj/../Code/my_interface.c:347
                    I2C_ClearFlag(I2C_FLAG_AF);
20000450:	10000537          	lui	a0,0x10000
20000454:	40050513          	addi	a0,a0,1024 # 10000400 <_data_lma+0xfffd308>
20000458:	e0001097          	auipc	ra,0xe0001
2000045c:	dc2080e7          	jalr	-574(ra) # 121a <I2C_ClearFlag>
c:\Users\Administrator\Documents\MyCode\0324\my_ch582m\ch582m\obj/../Code/my_interface.c:349

                    i2c_error = I2C_MT_NACK;
20000460:	478d                	li	a5,3
20000462:	80f18423          	sb	a5,-2040(gp) # 20000c98 <_edata>
c:\Users\Administrator\Documents\MyCode\0324\my_ch582m\ch582m\obj/../Code/my_interface.c:422
                    /* put final byte into buffer */
                    i2c_master_buffer[i2c_master_buffer_index++] = I2C_ReceiveData();

                    if (i2c_send_stop) {
                        i2c_state = I2C_READY;
                        I2C_GenerateSTOP(ENABLE);
20000466:	4505                	li	a0,1
c:\Users\Administrator\Documents\MyCode\0324\my_ch582m\ch582m\obj/../Code/my_interface.c:421
                        i2c_state = I2C_READY;
20000468:	800188a3          	sb	zero,-2031(gp) # 20000ca1 <i2c_state>
c:\Users\Administrator\Documents\MyCode\0324\my_ch582m\ch582m\obj/../Code/my_interface.c:422
                        I2C_GenerateSTOP(ENABLE);
2000046c:	e0001097          	auipc	ra,0xe0001
20000470:	bae080e7          	jalr	-1106(ra) # 101a <I2C_GenerateSTOP>
c:\Users\Administrator\Documents\MyCode\0324\my_ch582m\ch582m\obj/../Code/my_interface.c:530
                    I2C_AcknowledgeConfig(ENABLE);
                }
            }
        }

        if (event & RB_I2C_BERR) {
20000474:	10047793          	andi	a5,s0,256
20000478:	cf99                	beqz	a5,20000496 <I2C_IRQHandler+0xbe>
c:\Users\Administrator\Documents\MyCode\0324\my_ch582m\ch582m\obj/../Code/my_interface.c:531
            I2C_ClearFlag(RB_I2C_BERR);
2000047a:	10000513          	li	a0,256
2000047e:	e0001097          	auipc	ra,0xe0001
20000482:	d9c080e7          	jalr	-612(ra) # 121a <I2C_ClearFlag>
c:\Users\Administrator\Documents\MyCode\0324\my_ch582m\ch582m\obj/../Code/my_interface.c:532
            I2C_GenerateSTOP(ENABLE);
20000486:	4505                	li	a0,1
20000488:	e0001097          	auipc	ra,0xe0001
2000048c:	b92080e7          	jalr	-1134(ra) # 101a <I2C_GenerateSTOP>
c:\Users\Administrator\Documents\MyCode\0324\my_ch582m\ch582m\obj/../Code/my_interface.c:534

            i2c_error = I2C_BUS_ERROR;
20000490:	4795                	li	a5,5
20000492:	80f18423          	sb	a5,-2040(gp) # 20000c98 <_edata>
c:\Users\Administrator\Documents\MyCode\0324\my_ch582m\ch582m\obj/../Code/my_interface.c:538
            I2C_DBG("RB_I2C_BERR\n");
        }

        if (event & RB_I2C_ARLO) {
20000496:	20047793          	andi	a5,s0,512
2000049a:	22078163          	beqz	a5,200006bc <I2C_IRQHandler+0x2e4>
c:\Users\Administrator\Documents\MyCode\0324\my_ch582m\ch582m\obj/../Code/my_interface.c:539
            I2C_ClearFlag(RB_I2C_ARLO);
2000049e:	20000513          	li	a0,512
200004a2:	e0001097          	auipc	ra,0xe0001
200004a6:	d78080e7          	jalr	-648(ra) # 121a <I2C_ClearFlag>
c:\Users\Administrator\Documents\MyCode\0324\my_ch582m\ch582m\obj/../Code/my_interface.c:541
            
            i2c_error = I2C_ARB_LOST;
200004aa:	4791                	li	a5,4
200004ac:	80f18423          	sb	a5,-2040(gp) # 20000c98 <_edata>
200004b0:	a431                	j	200006bc <I2C_IRQHandler+0x2e4>
c:\Users\Administrator\Documents\MyCode\0324\my_ch582m\ch582m\obj/../Code/my_interface.c:328
                        if (i2c_send_stop) {
200004b2:	80c1c783          	lbu	a5,-2036(gp) # 20000c9c <i2c_send_stop>
200004b6:	cb89                	beqz	a5,200004c8 <I2C_IRQHandler+0xf0>
c:\Users\Administrator\Documents\MyCode\0324\my_ch582m\ch582m\obj/../Code/my_interface.c:330
                            I2C_GenerateSTOP(ENABLE);
200004b8:	4505                	li	a0,1
c:\Users\Administrator\Documents\MyCode\0324\my_ch582m\ch582m\obj/../Code/my_interface.c:329
                            i2c_state = I2C_READY;
200004ba:	800188a3          	sb	zero,-2031(gp) # 20000ca1 <i2c_state>
c:\Users\Administrator\Documents\MyCode\0324\my_ch582m\ch582m\obj/../Code/my_interface.c:330
                            I2C_GenerateSTOP(ENABLE);
200004be:	e0001097          	auipc	ra,0xe0001
200004c2:	b5c080e7          	jalr	-1188(ra) # 101a <I2C_GenerateSTOP>
c:\Users\Administrator\Documents\MyCode\0324\my_ch582m\ch582m\obj/../Code/my_interface.c:331
                            I2C_DBG("  send STOP\n");
200004c6:	b761                	j	2000044e <I2C_IRQHandler+0x76>
c:\Users\Administrator\Documents\MyCode\0324\my_ch582m\ch582m\obj/../Code/my_interface.c:333
                            i2c_in_repstart = true;
200004c8:	4785                	li	a5,1
c:\Users\Administrator\Documents\MyCode\0324\my_ch582m\ch582m\obj/../Code/my_interface.c:335
                            I2C_ITConfig(I2C_IT_BUF, DISABLE);
200004ca:	4581                	li	a1,0
200004cc:	40000513          	li	a0,1024
c:\Users\Administrator\Documents\MyCode\0324\my_ch582m\ch582m\obj/../Code/my_interface.c:333
                            i2c_in_repstart = true;
200004d0:	80f184a3          	sb	a5,-2039(gp) # 20000c99 <i2c_in_repstart>
c:\Users\Administrator\Documents\MyCode\0324\my_ch582m\ch582m\obj/../Code/my_interface.c:335
                            I2C_ITConfig(I2C_IT_BUF, DISABLE);
200004d4:	e0001097          	auipc	ra,0xe0001
200004d8:	b8a080e7          	jalr	-1142(ra) # 105e <I2C_ITConfig>
c:\Users\Administrator\Documents\MyCode\0324\my_ch582m\ch582m\obj/../Code/my_interface.c:336
                            I2C_ITConfig(I2C_IT_EVT, DISABLE);
200004dc:	4581                	li	a1,0
200004de:	20000513          	li	a0,512
200004e2:	e0001097          	auipc	ra,0xe0001
200004e6:	b7c080e7          	jalr	-1156(ra) # 105e <I2C_ITConfig>
c:\Users\Administrator\Documents\MyCode\0324\my_ch582m\ch582m\obj/../Code/my_interface.c:337
                            I2C_ITConfig(I2C_IT_ERR, DISABLE);
200004ea:	4581                	li	a1,0
200004ec:	10000513          	li	a0,256
200004f0:	e0001097          	auipc	ra,0xe0001
200004f4:	b6e080e7          	jalr	-1170(ra) # 105e <I2C_ITConfig>
c:\Users\Administrator\Documents\MyCode\0324\my_ch582m\ch582m\obj/../Code/my_interface.c:338
                            I2C_GenerateSTART(ENABLE);
200004f8:	4505                	li	a0,1
200004fa:	e0001097          	auipc	ra,0xe0001
200004fe:	afe080e7          	jalr	-1282(ra) # ff8 <I2C_GenerateSTART>
c:\Users\Administrator\Documents\MyCode\0324\my_ch582m\ch582m\obj/../Code/my_interface.c:339
                            i2c_state = I2C_READY;
20000502:	800188a3          	sb	zero,-2031(gp) # 20000ca1 <i2c_state>
20000506:	b7a1                	j	2000044e <I2C_IRQHandler+0x76>
c:\Users\Administrator\Documents\MyCode\0324\my_ch582m\ch582m\obj/../Code/my_interface.c:359
                if(event & RB_I2C_ADDR) { 
20000508:	00247793          	andi	a5,s0,2
2000050c:	cb89                	beqz	a5,2000051e <I2C_IRQHandler+0x146>
c:\Users\Administrator\Documents\MyCode\0324\my_ch582m\ch582m\obj/../Code/my_interface.c:361
                    if (i2c_master_buffer_length) {
2000050e:	80b1c783          	lbu	a5,-2037(gp) # 20000c9b <i2c_master_buffer_length>
20000512:	c3e1                	beqz	a5,200005d2 <I2C_IRQHandler+0x1fa>
c:\Users\Administrator\Documents\MyCode\0324\my_ch582m\ch582m\obj/../Code/my_interface.c:362
                        I2C_AcknowledgeConfig(ENABLE);
20000514:	4505                	li	a0,1
20000516:	e0001097          	auipc	ra,0xe0001
2000051a:	b26080e7          	jalr	-1242(ra) # 103c <I2C_AcknowledgeConfig>
c:\Users\Administrator\Documents\MyCode\0324\my_ch582m\ch582m\obj/../Code/my_interface.c:375
                if (event & (RB_I2C_RxNE)) {
2000051e:	04047793          	andi	a5,s0,64
20000522:	cb9d                	beqz	a5,20000558 <I2C_IRQHandler+0x180>
c:\Users\Administrator\Documents\MyCode\0324\my_ch582m\ch582m\obj/../Code/my_interface.c:377
                    i2c_master_buffer[i2c_master_buffer_index++] = I2C_ReceiveData();
20000524:	80a1c903          	lbu	s2,-2038(gp) # 20000c9a <i2c_master_buffer_index>
20000528:	00190793          	addi	a5,s2,1
2000052c:	80f18523          	sb	a5,-2038(gp) # 20000c9a <i2c_master_buffer_index>
20000530:	e0001097          	auipc	ra,0xe0001
20000534:	b56080e7          	jalr	-1194(ra) # 1086 <I2C_ReceiveData>
20000538:	89c18793          	addi	a5,gp,-1892 # 20000d2c <i2c_master_buffer>
2000053c:	97ca                	add	a5,a5,s2
2000053e:	00a78023          	sb	a0,0(a5)
c:\Users\Administrator\Documents\MyCode\0324\my_ch582m\ch582m\obj/../Code/my_interface.c:379
                    if (i2c_master_buffer_index < i2c_master_buffer_length) {
20000542:	80b1c703          	lbu	a4,-2037(gp) # 20000c9b <i2c_master_buffer_length>
20000546:	80a1c783          	lbu	a5,-2038(gp) # 20000c9a <i2c_master_buffer_index>
2000054a:	08e7fd63          	bgeu	a5,a4,200005e4 <I2C_IRQHandler+0x20c>
c:\Users\Administrator\Documents\MyCode\0324\my_ch582m\ch582m\obj/../Code/my_interface.c:380
                        I2C_AcknowledgeConfig(ENABLE);
2000054e:	4505                	li	a0,1
20000550:	e0001097          	auipc	ra,0xe0001
20000554:	aec080e7          	jalr	-1300(ra) # 103c <I2C_AcknowledgeConfig>
c:\Users\Administrator\Documents\MyCode\0324\my_ch582m\ch582m\obj/../Code/my_interface.c:415
                if (event & RB_I2C_AF) {
20000558:	f0048ee3          	beqz	s1,20000474 <I2C_IRQHandler+0x9c>
c:\Users\Administrator\Documents\MyCode\0324\my_ch582m\ch582m\obj/../Code/my_interface.c:416
                    I2C_ClearFlag(I2C_FLAG_AF);
2000055c:	10000537          	lui	a0,0x10000
20000560:	40050513          	addi	a0,a0,1024 # 10000400 <_data_lma+0xfffd308>
20000564:	e0001097          	auipc	ra,0xe0001
20000568:	cb6080e7          	jalr	-842(ra) # 121a <I2C_ClearFlag>
c:\Users\Administrator\Documents\MyCode\0324\my_ch582m\ch582m\obj/../Code/my_interface.c:418
                    i2c_master_buffer[i2c_master_buffer_index++] = I2C_ReceiveData();
2000056c:	80a1c483          	lbu	s1,-2038(gp) # 20000c9a <i2c_master_buffer_index>
20000570:	00148793          	addi	a5,s1,1
20000574:	80f18523          	sb	a5,-2038(gp) # 20000c9a <i2c_master_buffer_index>
20000578:	e0001097          	auipc	ra,0xe0001
2000057c:	b0e080e7          	jalr	-1266(ra) # 1086 <I2C_ReceiveData>
20000580:	89c18793          	addi	a5,gp,-1892 # 20000d2c <i2c_master_buffer>
20000584:	97a6                	add	a5,a5,s1
20000586:	00a78023          	sb	a0,0(a5)
c:\Users\Administrator\Documents\MyCode\0324\my_ch582m\ch582m\obj/../Code/my_interface.c:420
                    if (i2c_send_stop) {
2000058a:	80c1c783          	lbu	a5,-2036(gp) # 20000c9c <i2c_send_stop>
2000058e:	ec079ce3          	bnez	a5,20000466 <I2C_IRQHandler+0x8e>
c:\Users\Administrator\Documents\MyCode\0324\my_ch582m\ch582m\obj/../Code/my_interface.c:425
                        i2c_in_repstart = true;
20000592:	4785                	li	a5,1
c:\Users\Administrator\Documents\MyCode\0324\my_ch582m\ch582m\obj/../Code/my_interface.c:427
                        I2C_ITConfig(I2C_IT_BUF, DISABLE);
20000594:	4581                	li	a1,0
20000596:	40000513          	li	a0,1024
c:\Users\Administrator\Documents\MyCode\0324\my_ch582m\ch582m\obj/../Code/my_interface.c:425
                        i2c_in_repstart = true;
2000059a:	80f184a3          	sb	a5,-2039(gp) # 20000c99 <i2c_in_repstart>
c:\Users\Administrator\Documents\MyCode\0324\my_ch582m\ch582m\obj/../Code/my_interface.c:427
                        I2C_ITConfig(I2C_IT_BUF, DISABLE);
2000059e:	e0001097          	auipc	ra,0xe0001
200005a2:	ac0080e7          	jalr	-1344(ra) # 105e <I2C_ITConfig>
c:\Users\Administrator\Documents\MyCode\0324\my_ch582m\ch582m\obj/../Code/my_interface.c:428
                        I2C_ITConfig(I2C_IT_EVT, DISABLE);
200005a6:	4581                	li	a1,0
200005a8:	20000513          	li	a0,512
200005ac:	e0001097          	auipc	ra,0xe0001
200005b0:	ab2080e7          	jalr	-1358(ra) # 105e <I2C_ITConfig>
c:\Users\Administrator\Documents\MyCode\0324\my_ch582m\ch582m\obj/../Code/my_interface.c:429
                        I2C_ITConfig(I2C_IT_ERR, DISABLE);
200005b4:	4581                	li	a1,0
200005b6:	10000513          	li	a0,256
200005ba:	e0001097          	auipc	ra,0xe0001
200005be:	aa4080e7          	jalr	-1372(ra) # 105e <I2C_ITConfig>
c:\Users\Administrator\Documents\MyCode\0324\my_ch582m\ch582m\obj/../Code/my_interface.c:430
                        I2C_GenerateSTART(ENABLE);
200005c2:	4505                	li	a0,1
200005c4:	e0001097          	auipc	ra,0xe0001
200005c8:	a34080e7          	jalr	-1484(ra) # ff8 <I2C_GenerateSTART>
c:\Users\Administrator\Documents\MyCode\0324\my_ch582m\ch582m\obj/../Code/my_interface.c:431
                        i2c_state = I2C_READY;
200005cc:	800188a3          	sb	zero,-2031(gp) # 20000ca1 <i2c_state>
200005d0:	b555                	j	20000474 <I2C_IRQHandler+0x9c>
c:\Users\Administrator\Documents\MyCode\0324\my_ch582m\ch582m\obj/../Code/my_interface.c:367
                        I2C_AcknowledgeConfig(DISABLE);
200005d2:	4501                	li	a0,0
200005d4:	e0001097          	auipc	ra,0xe0001
200005d8:	a68080e7          	jalr	-1432(ra) # 103c <I2C_AcknowledgeConfig>
c:\Users\Administrator\Documents\MyCode\0324\my_ch582m\ch582m\obj/../Code/my_interface.c:368
                        is_nack_sent = true;
200005dc:	4785                	li	a5,1
200005de:	80f18923          	sb	a5,-2030(gp) # 20000ca2 <is_nack_sent>
200005e2:	bf35                	j	2000051e <I2C_IRQHandler+0x146>
c:\Users\Administrator\Documents\MyCode\0324\my_ch582m\ch582m\obj/../Code/my_interface.c:384
                        I2C_AcknowledgeConfig(DISABLE);
200005e4:	4501                	li	a0,0
200005e6:	e0001097          	auipc	ra,0xe0001
200005ea:	a56080e7          	jalr	-1450(ra) # 103c <I2C_AcknowledgeConfig>
c:\Users\Administrator\Documents\MyCode\0324\my_ch582m\ch582m\obj/../Code/my_interface.c:387
                        if (is_nack_sent) {
200005ee:	8121c783          	lbu	a5,-2030(gp) # 20000ca2 <is_nack_sent>
200005f2:	cfa1                	beqz	a5,2000064a <I2C_IRQHandler+0x272>
c:\Users\Administrator\Documents\MyCode\0324\my_ch582m\ch582m\obj/../Code/my_interface.c:388
                            is_nack_sent = false;
200005f4:	80018923          	sb	zero,-2030(gp) # 20000ca2 <is_nack_sent>
c:\Users\Administrator\Documents\MyCode\0324\my_ch582m\ch582m\obj/../Code/my_interface.c:389
                            if (i2c_send_stop) {
200005f8:	80c1c783          	lbu	a5,-2036(gp) # 20000c9c <i2c_send_stop>
200005fc:	cb89                	beqz	a5,2000060e <I2C_IRQHandler+0x236>
c:\Users\Administrator\Documents\MyCode\0324\my_ch582m\ch582m\obj/../Code/my_interface.c:390
                                I2C_GenerateSTOP(ENABLE);
200005fe:	4505                	li	a0,1
20000600:	e0001097          	auipc	ra,0xe0001
20000604:	a1a080e7          	jalr	-1510(ra) # 101a <I2C_GenerateSTOP>
c:\Users\Administrator\Documents\MyCode\0324\my_ch582m\ch582m\obj/../Code/my_interface.c:400
                                i2c_state = I2C_READY;
20000608:	800188a3          	sb	zero,-2031(gp) # 20000ca1 <i2c_state>
2000060c:	b7b1                	j	20000558 <I2C_IRQHandler+0x180>
c:\Users\Administrator\Documents\MyCode\0324\my_ch582m\ch582m\obj/../Code/my_interface.c:394
                                i2c_in_repstart = true;
2000060e:	4785                	li	a5,1
c:\Users\Administrator\Documents\MyCode\0324\my_ch582m\ch582m\obj/../Code/my_interface.c:396
                                I2C_ITConfig(I2C_IT_BUF, DISABLE);
20000610:	4581                	li	a1,0
20000612:	40000513          	li	a0,1024
c:\Users\Administrator\Documents\MyCode\0324\my_ch582m\ch582m\obj/../Code/my_interface.c:394
                                i2c_in_repstart = true;
20000616:	80f184a3          	sb	a5,-2039(gp) # 20000c99 <i2c_in_repstart>
c:\Users\Administrator\Documents\MyCode\0324\my_ch582m\ch582m\obj/../Code/my_interface.c:396
                                I2C_ITConfig(I2C_IT_BUF, DISABLE);
2000061a:	e0001097          	auipc	ra,0xe0001
2000061e:	a44080e7          	jalr	-1468(ra) # 105e <I2C_ITConfig>
c:\Users\Administrator\Documents\MyCode\0324\my_ch582m\ch582m\obj/../Code/my_interface.c:397
                                I2C_ITConfig(I2C_IT_EVT, DISABLE);
20000622:	4581                	li	a1,0
20000624:	20000513          	li	a0,512
20000628:	e0001097          	auipc	ra,0xe0001
2000062c:	a36080e7          	jalr	-1482(ra) # 105e <I2C_ITConfig>
c:\Users\Administrator\Documents\MyCode\0324\my_ch582m\ch582m\obj/../Code/my_interface.c:398
                                I2C_ITConfig(I2C_IT_ERR, DISABLE);
20000630:	4581                	li	a1,0
20000632:	10000513          	li	a0,256
20000636:	e0001097          	auipc	ra,0xe0001
2000063a:	a28080e7          	jalr	-1496(ra) # 105e <I2C_ITConfig>
c:\Users\Administrator\Documents\MyCode\0324\my_ch582m\ch582m\obj/../Code/my_interface.c:399
                                I2C_GenerateSTART(ENABLE);
2000063e:	4505                	li	a0,1
20000640:	e0001097          	auipc	ra,0xe0001
20000644:	9b8080e7          	jalr	-1608(ra) # ff8 <I2C_GenerateSTART>
20000648:	b7c1                	j	20000608 <I2C_IRQHandler+0x230>
c:\Users\Administrator\Documents\MyCode\0324\my_ch582m\ch582m\obj/../Code/my_interface.c:405
                            is_nack_sent = true;
2000064a:	4785                	li	a5,1
2000064c:	80f18923          	sb	a5,-2030(gp) # 20000ca2 <is_nack_sent>
20000650:	b721                	j	20000558 <I2C_IRQHandler+0x180>
c:\Users\Administrator\Documents\MyCode\0324\my_ch582m\ch582m\obj/../Code/my_interface.c:440
            if (event & RB_I2C_ADDR) {
20000652:	00257793          	andi	a5,a0,2
20000656:	cb8d                	beqz	a5,20000688 <I2C_IRQHandler+0x2b0>
c:\Users\Administrator\Documents\MyCode\0324\my_ch582m\ch582m\obj/../Code/my_interface.c:442
                if (event & ((RB_I2C_TRA << 16) | RB_I2C_TxE)) {
20000658:	000407b7          	lui	a5,0x40
2000065c:	08078793          	addi	a5,a5,128 # 40080 <_data_lma+0x3cf88>
20000660:	8fe9                	and	a5,a5,a0
20000662:	c7e1                	beqz	a5,2000072a <I2C_IRQHandler+0x352>
c:\Users\Administrator\Documents\MyCode\0324\my_ch582m\ch582m\obj/../Code/my_interface.c:445
                    i2c_state = I2C_STX;
20000664:	4791                	li	a5,4
20000666:	80f188a3          	sb	a5,-2031(gp) # 20000ca1 <i2c_state>
c:\Users\Administrator\Documents\MyCode\0324\my_ch582m\ch582m\obj/../Code/my_interface.c:446
                    i2c_slave_txbuffer_index = 0;
2000066a:	800187a3          	sb	zero,-2033(gp) # 20000c9f <i2c_slave_txbuffer_index>
c:\Users\Administrator\Documents\MyCode\0324\my_ch582m\ch582m\obj/../Code/my_interface.c:447
                    i2c_slave_txbuffer_length = 0;
2000066e:	80018823          	sb	zero,-2032(gp) # 20000ca0 <i2c_slave_txbuffer_length>
c:\Users\Administrator\Documents\MyCode\0324\my_ch582m\ch582m\obj/../Code/my_interface.c:449
                    if (slave_cb && slave_cb->on_transmit) {
20000672:	81418793          	addi	a5,gp,-2028 # 20000ca4 <slave_cb>
20000676:	439c                	lw	a5,0(a5)
20000678:	cb81                	beqz	a5,20000688 <I2C_IRQHandler+0x2b0>
c:\Users\Administrator\Documents\MyCode\0324\my_ch582m\ch582m\obj/../Code/my_interface.c:449 (discriminator 1)
2000067a:	439c                	lw	a5,0(a5)
2000067c:	c791                	beqz	a5,20000688 <I2C_IRQHandler+0x2b0>
c:\Users\Administrator\Documents\MyCode\0324\my_ch582m\ch582m\obj/../Code/my_interface.c:450
                        slave_cb->on_transmit(i2c_slave_txbuffer, &i2c_slave_txbuffer_length);
2000067e:	81018593          	addi	a1,gp,-2032 # 20000ca0 <i2c_slave_txbuffer_length>
20000682:	8dc18513          	addi	a0,gp,-1828 # 20000d6c <i2c_slave_txbuffer>
20000686:	9782                	jalr	a5
c:\Users\Administrator\Documents\MyCode\0324\my_ch582m\ch582m\obj/../Code/my_interface.c:460
            if (event & (RB_I2C_TRA << 16)) { //TODO: STOP?
20000688:	00d41793          	slli	a5,s0,0xd
2000068c:	0e07d563          	bgez	a5,20000776 <I2C_IRQHandler+0x39e>
c:\Users\Administrator\Documents\MyCode\0324\my_ch582m\ch582m\obj/../Code/my_interface.c:462
                I2C_AcknowledgeConfig(ENABLE);
20000690:	4505                	li	a0,1
20000692:	e0001097          	auipc	ra,0xe0001
20000696:	9aa080e7          	jalr	-1622(ra) # 103c <I2C_AcknowledgeConfig>
c:\Users\Administrator\Documents\MyCode\0324\my_ch582m\ch582m\obj/../Code/my_interface.c:465
                if (event & RB_I2C_AF) {
2000069a:	ccd1                	beqz	s1,20000736 <I2C_IRQHandler+0x35e>
c:\Users\Administrator\Documents\MyCode\0324\my_ch582m\ch582m\obj/../Code/my_interface.c:467
                    I2C_ClearFlag(I2C_FLAG_AF);
2000069c:	10000537          	lui	a0,0x10000
200006a0:	40050513          	addi	a0,a0,1024 # 10000400 <_data_lma+0xfffd308>
200006a4:	e0001097          	auipc	ra,0xe0001
200006a8:	b76080e7          	jalr	-1162(ra) # 121a <I2C_ClearFlag>
c:\Users\Administrator\Documents\MyCode\0324\my_ch582m\ch582m\obj/../Code/my_interface.c:468
                    I2C_AcknowledgeConfig(ENABLE);
200006ac:	4505                	li	a0,1
200006ae:	e0001097          	auipc	ra,0xe0001
200006b2:	98e080e7          	jalr	-1650(ra) # 103c <I2C_AcknowledgeConfig>
c:\Users\Administrator\Documents\MyCode\0324\my_ch582m\ch582m\obj/../Code/my_interface.c:474
                    event = 0;
200006b6:	4401                	li	s0,0
c:\Users\Administrator\Documents\MyCode\0324\my_ch582m\ch582m\obj/../Code/my_interface.c:472
                    i2c_state = I2C_READY;
200006b8:	800188a3          	sb	zero,-2031(gp) # 20000ca1 <i2c_state>
c:\Users\Administrator\Documents\MyCode\0324\my_ch582m\ch582m\obj/../Code/my_interface.c:545
            I2C_DBG("RB_I2C_ARLO\n");
        }

        if (event & RB_I2C_OVR) {
200006bc:	6505                	lui	a0,0x1
200006be:	80050513          	addi	a0,a0,-2048 # 800 <__stack_size+0x600>
200006c2:	00a477b3          	and	a5,s0,a0
200006c6:	cb81                	beqz	a5,200006d6 <I2C_IRQHandler+0x2fe>
c:\Users\Administrator\Documents\MyCode\0324\my_ch582m\ch582m\obj/../Code/my_interface.c:546
            I2C_ClearFlag(RB_I2C_OVR);
200006c8:	e0001097          	auipc	ra,0xe0001
200006cc:	b52080e7          	jalr	-1198(ra) # 121a <I2C_ClearFlag>
c:\Users\Administrator\Documents\MyCode\0324\my_ch582m\ch582m\obj/../Code/my_interface.c:548
            
            i2c_error = I2C_OVR;
200006d0:	4799                	li	a5,6
200006d2:	80f18423          	sb	a5,-2040(gp) # 20000c98 <_edata>
c:\Users\Administrator\Documents\MyCode\0324\my_ch582m\ch582m\obj/../Code/my_interface.c:552
            I2C_DBG("RB_I2C_OVR\n");
        }

        if (event & RB_I2C_PECERR) {
200006d6:	01341793          	slli	a5,s0,0x13
200006da:	0007da63          	bgez	a5,200006ee <I2C_IRQHandler+0x316>
c:\Users\Administrator\Documents\MyCode\0324\my_ch582m\ch582m\obj/../Code/my_interface.c:553
            I2C_ClearFlag(RB_I2C_PECERR);
200006de:	6505                	lui	a0,0x1
200006e0:	e0001097          	auipc	ra,0xe0001
200006e4:	b3a080e7          	jalr	-1222(ra) # 121a <I2C_ClearFlag>
c:\Users\Administrator\Documents\MyCode\0324\my_ch582m\ch582m\obj/../Code/my_interface.c:555
            
            i2c_error = I2C_PECERR;
200006e8:	479d                	li	a5,7
200006ea:	80f18423          	sb	a5,-2040(gp) # 20000c98 <_edata>
c:\Users\Administrator\Documents\MyCode\0324\my_ch582m\ch582m\obj/../Code/my_interface.c:559
            I2C_DBG("RB_I2C_PECERR\n");
        }

        if (event & RB_I2C_TIMEOUT) {
200006ee:	01141793          	slli	a5,s0,0x11
200006f2:	0007da63          	bgez	a5,20000706 <I2C_IRQHandler+0x32e>
c:\Users\Administrator\Documents\MyCode\0324\my_ch582m\ch582m\obj/../Code/my_interface.c:560
            I2C_ClearFlag(RB_I2C_TIMEOUT);
200006f6:	6511                	lui	a0,0x4
200006f8:	e0001097          	auipc	ra,0xe0001
200006fc:	b22080e7          	jalr	-1246(ra) # 121a <I2C_ClearFlag>
c:\Users\Administrator\Documents\MyCode\0324\my_ch582m\ch582m\obj/../Code/my_interface.c:562
            
            i2c_error = I2C_TIMEOUT;
20000700:	47a1                	li	a5,8
20000702:	80f18423          	sb	a5,-2040(gp) # 20000c98 <_edata>
c:\Users\Administrator\Documents\MyCode\0324\my_ch582m\ch582m\obj/../Code/my_interface.c:566
            I2C_DBG("RB_I2C_TIMEOUT\n");
        }

        if (event & RB_I2C_SMBALERT) {
20000706:	01041793          	slli	a5,s0,0x10
2000070a:	0007da63          	bgez	a5,2000071e <I2C_IRQHandler+0x346>
c:\Users\Administrator\Documents\MyCode\0324\my_ch582m\ch582m\obj/../Code/my_interface.c:567
            I2C_ClearFlag(RB_I2C_SMBALERT);
2000070e:	6521                	lui	a0,0x8
20000710:	e0001097          	auipc	ra,0xe0001
20000714:	b0a080e7          	jalr	-1270(ra) # 121a <I2C_ClearFlag>
c:\Users\Administrator\Documents\MyCode\0324\my_ch582m\ch582m\obj/../Code/my_interface.c:569
            
            i2c_error = I2C_SMBALERT;
20000718:	47a5                	li	a5,9
2000071a:	80f18423          	sb	a5,-2040(gp) # 20000c98 <_edata>
c:\Users\Administrator\Documents\MyCode\0324\my_ch582m\ch582m\obj/../Code/my_interface.c:574
            I2C_DBG("RB_I2C_SMBALERT\n");
        }

        I2C_DBG("\n");
    }
2000071e:	4432                	lw	s0,12(sp)
20000720:	44a2                	lw	s1,8(sp)
20000722:	4912                	lw	s2,4(sp)
20000724:	0141                	addi	sp,sp,16
20000726:	30200073          	mret
c:\Users\Administrator\Documents\MyCode\0324\my_ch582m\ch582m\obj/../Code/my_interface.c:455
                    i2c_state = I2C_SRX;
2000072a:	478d                	li	a5,3
2000072c:	80f188a3          	sb	a5,-2031(gp) # 20000ca1 <i2c_state>
c:\Users\Administrator\Documents\MyCode\0324\my_ch582m\ch582m\obj/../Code/my_interface.c:456
                    i2c_slave_rxbuffer_index = 0;
20000730:	80018723          	sb	zero,-2034(gp) # 20000c9e <i2c_slave_rxbuffer_index>
20000734:	bf91                	j	20000688 <I2C_IRQHandler+0x2b0>
c:\Users\Administrator\Documents\MyCode\0324\my_ch582m\ch582m\obj/../Code/my_interface.c:477
                if (event & (RB_I2C_BTF | RB_I2C_TxE)) {
20000736:	08447793          	andi	a5,s0,132
2000073a:	d2078de3          	beqz	a5,20000474 <I2C_IRQHandler+0x9c>
c:\Users\Administrator\Documents\MyCode\0324\my_ch582m\ch582m\obj/../Code/my_interface.c:479
                    if (i2c_slave_txbuffer_index < i2c_slave_txbuffer_length) {
2000073e:	80f1c783          	lbu	a5,-2033(gp) # 20000c9f <i2c_slave_txbuffer_index>
20000742:	8101c703          	lbu	a4,-2032(gp) # 20000ca0 <i2c_slave_txbuffer_length>
c:\Users\Administrator\Documents\MyCode\0324\my_ch582m\ch582m\obj/../Code/my_interface.c:485
                        I2C_SendData(0xff);
20000746:	0ff00513          	li	a0,255
c:\Users\Administrator\Documents\MyCode\0324\my_ch582m\ch582m\obj/../Code/my_interface.c:479
                    if (i2c_slave_txbuffer_index < i2c_slave_txbuffer_length) {
2000074a:	02e7f163          	bgeu	a5,a4,2000076c <I2C_IRQHandler+0x394>
c:\Users\Administrator\Documents\MyCode\0324\my_ch582m\ch582m\obj/../Code/my_interface.c:481
                        I2C_SendData(i2c_slave_txbuffer[i2c_slave_txbuffer_index++]);
2000074e:	80f18793          	addi	a5,gp,-2033 # 20000c9f <i2c_slave_txbuffer_index>
20000752:	0007c783          	lbu	a5,0(a5)
20000756:	0ff7f793          	andi	a5,a5,255
2000075a:	00178713          	addi	a4,a5,1
2000075e:	80e187a3          	sb	a4,-2033(gp) # 20000c9f <i2c_slave_txbuffer_index>
20000762:	8dc18713          	addi	a4,gp,-1828 # 20000d6c <i2c_slave_txbuffer>
20000766:	97ba                	add	a5,a5,a4
20000768:	0007c503          	lbu	a0,0(a5)
c:\Users\Administrator\Documents\MyCode\0324\my_ch582m\ch582m\obj/../Code/my_interface.c:485
                        I2C_SendData(0xff);
2000076c:	e0001097          	auipc	ra,0xe0001
20000770:	910080e7          	jalr	-1776(ra) # 107c <I2C_SendData>
20000774:	b301                	j	20000474 <I2C_IRQHandler+0x9c>
c:\Users\Administrator\Documents\MyCode\0324\my_ch582m\ch582m\obj/../Code/my_interface.c:493
                if (event & RB_I2C_RxNE) {
20000776:	04047793          	andi	a5,s0,64
2000077a:	cf9d                	beqz	a5,200007b8 <I2C_IRQHandler+0x3e0>
c:\Users\Administrator\Documents\MyCode\0324\my_ch582m\ch582m\obj/../Code/my_interface.c:495
                    if (i2c_slave_rxbuffer_index < I2C_BUFFER_LENGTH) {
2000077c:	80e1c703          	lbu	a4,-2034(gp) # 20000c9e <i2c_slave_rxbuffer_index>
20000780:	47fd                	li	a5,31
c:\Users\Administrator\Documents\MyCode\0324\my_ch582m\ch582m\obj/../Code/my_interface.c:503
                        I2C_AcknowledgeConfig(DISABLE);
20000782:	4501                	li	a0,0
c:\Users\Administrator\Documents\MyCode\0324\my_ch582m\ch582m\obj/../Code/my_interface.c:495
                    if (i2c_slave_rxbuffer_index < I2C_BUFFER_LENGTH) {
20000784:	02e7e663          	bltu	a5,a4,200007b0 <I2C_IRQHandler+0x3d8>
c:\Users\Administrator\Documents\MyCode\0324\my_ch582m\ch582m\obj/../Code/my_interface.c:497
                        i2c_slave_rxbuffer[i2c_slave_rxbuffer_index++] = I2C_ReceiveData();
20000788:	80e18793          	addi	a5,gp,-2034 # 20000c9e <i2c_slave_rxbuffer_index>
2000078c:	0007c903          	lbu	s2,0(a5)
20000790:	0ff97913          	andi	s2,s2,255
20000794:	00190793          	addi	a5,s2,1
20000798:	80f18723          	sb	a5,-2034(gp) # 20000c9e <i2c_slave_rxbuffer_index>
2000079c:	e0001097          	auipc	ra,0xe0001
200007a0:	8ea080e7          	jalr	-1814(ra) # 1086 <I2C_ReceiveData>
200007a4:	8bc18793          	addi	a5,gp,-1860 # 20000d4c <i2c_slave_rxbuffer>
200007a8:	993e                	add	s2,s2,a5
200007aa:	00a90023          	sb	a0,0(s2)
c:\Users\Administrator\Documents\MyCode\0324\my_ch582m\ch582m\obj/../Code/my_interface.c:498
                        I2C_AcknowledgeConfig(ENABLE);
200007ae:	4505                	li	a0,1
c:\Users\Administrator\Documents\MyCode\0324\my_ch582m\ch582m\obj/../Code/my_interface.c:503
                        I2C_AcknowledgeConfig(DISABLE);
200007b0:	e0001097          	auipc	ra,0xe0001
200007b4:	88c080e7          	jalr	-1908(ra) # 103c <I2C_AcknowledgeConfig>
c:\Users\Administrator\Documents\MyCode\0324\my_ch582m\ch582m\obj/../Code/my_interface.c:507
                if (event & RB_I2C_STOPF) {
200007b8:	01047793          	andi	a5,s0,16
200007bc:	c795                	beqz	a5,200007e8 <I2C_IRQHandler+0x410>
c:\Users\Administrator\Documents\MyCode\0324\my_ch582m\ch582m\obj/../Code/my_interface.c:509
                    R16_I2C_CTRL1 |= RB_I2C_PE; //clear flag
200007be:	40005737          	lui	a4,0x40005
200007c2:	80075783          	lhu	a5,-2048(a4) # 40004800 <_eusrstack+0x1fffe000>
200007c6:	0017e793          	ori	a5,a5,1
200007ca:	80f71023          	sh	a5,-2048(a4)
c:\Users\Administrator\Documents\MyCode\0324\my_ch582m\ch582m\obj/../Code/my_interface.c:514
                    if (slave_cb && slave_cb->on_receive) {
200007ce:	81418793          	addi	a5,gp,-2028 # 20000ca4 <slave_cb>
200007d2:	439c                	lw	a5,0(a5)
200007d4:	cb81                	beqz	a5,200007e4 <I2C_IRQHandler+0x40c>
c:\Users\Administrator\Documents\MyCode\0324\my_ch582m\ch582m\obj/../Code/my_interface.c:514 (discriminator 1)
200007d6:	43dc                	lw	a5,4(a5)
200007d8:	c791                	beqz	a5,200007e4 <I2C_IRQHandler+0x40c>
c:\Users\Administrator\Documents\MyCode\0324\my_ch582m\ch582m\obj/../Code/my_interface.c:515
                        slave_cb->on_receive(i2c_slave_rxbuffer, i2c_slave_rxbuffer_index);
200007da:	80e1c583          	lbu	a1,-2034(gp) # 20000c9e <i2c_slave_rxbuffer_index>
200007de:	8bc18513          	addi	a0,gp,-1860 # 20000d4c <i2c_slave_rxbuffer>
200007e2:	9782                	jalr	a5
c:\Users\Administrator\Documents\MyCode\0324\my_ch582m\ch582m\obj/../Code/my_interface.c:518
                    i2c_slave_rxbuffer_index = 0;
200007e4:	80018723          	sb	zero,-2034(gp) # 20000c9e <i2c_slave_rxbuffer_index>
c:\Users\Administrator\Documents\MyCode\0324\my_ch582m\ch582m\obj/../Code/my_interface.c:521
                if (event & RB_I2C_AF) {  
200007e8:	c80486e3          	beqz	s1,20000474 <I2C_IRQHandler+0x9c>
c:\Users\Administrator\Documents\MyCode\0324\my_ch582m\ch582m\obj/../Code/my_interface.c:522
                    I2C_ClearFlag(I2C_FLAG_AF);
200007ec:	10000537          	lui	a0,0x10000
200007f0:	40050513          	addi	a0,a0,1024 # 10000400 <_data_lma+0xfffd308>
200007f4:	e0001097          	auipc	ra,0xe0001
200007f8:	a26080e7          	jalr	-1498(ra) # 121a <I2C_ClearFlag>
c:\Users\Administrator\Documents\MyCode\0324\my_ch582m\ch582m\obj/../Code/my_interface.c:525
                    I2C_AcknowledgeConfig(ENABLE);
200007fc:	4505                	li	a0,1
200007fe:	e0001097          	auipc	ra,0xe0001
20000802:	83e080e7          	jalr	-1986(ra) # 103c <I2C_AcknowledgeConfig>
20000806:	b1bd                	j	20000474 <I2C_IRQHandler+0x9c>

20000808 <FLASH_ROM_BEG>:
FLASH_ROM_BEG():
20000808:	80040323          	sb	zero,-2042(s0)
2000080c:	4715                	li	a4,5
2000080e:	80e40323          	sb	a4,-2042(s0)
20000812:	0001                	nop
20000814:	80a40223          	sb	a0,-2044(s0)
20000818:	8082                	ret

2000081a <FLASH_ROM_END>:
FLASH_ROM_END():
2000081a:	80640783          	lb	a5,-2042(s0)
2000081e:	fe07cee3          	bltz	a5,2000081a <FLASH_ROM_END>
20000822:	80040323          	sb	zero,-2042(s0)
20000826:	8082                	ret

20000828 <FLASH_ROM_IN>:
FLASH_ROM_IN():
20000828:	80640783          	lb	a5,-2042(s0)
2000082c:	fe07cee3          	bltz	a5,20000828 <FLASH_ROM_IN>
20000830:	80444503          	lbu	a0,-2044(s0)
20000834:	8082                	ret

20000836 <FLASH_ROM_OUT>:
FLASH_ROM_OUT():
20000836:	80640783          	lb	a5,-2042(s0)
2000083a:	fe07cee3          	bltz	a5,20000836 <FLASH_ROM_OUT>
2000083e:	80a40223          	sb	a0,-2044(s0)
20000842:	8082                	ret

20000844 <FLASH_ROM_ADDR>:
FLASH_ROM_ADDR():
20000844:	1141                	addi	sp,sp,-16
20000846:	c426                	sw	s1,8(sp)
20000848:	c24a                	sw	s2,4(sp)
2000084a:	c04e                	sw	s3,0(sp)
2000084c:	c606                	sw	ra,12(sp)
2000084e:	0bf57713          	andi	a4,a0,191
20000852:	47ad                	li	a5,11
20000854:	89aa                	mv	s3,a0
20000856:	892e                	mv	s2,a1
20000858:	4495                	li	s1,5
2000085a:	00f70663          	beq	a4,a5,20000866 <FLASH_ROM_ADDR+0x22>
2000085e:	4519                	li	a0,6
20000860:	3765                	jal	20000808 <FLASH_ROM_BEG>
20000862:	3f65                	jal	2000081a <FLASH_ROM_END>
20000864:	448d                	li	s1,3
20000866:	854e                	mv	a0,s3
20000868:	3745                	jal	20000808 <FLASH_ROM_BEG>
2000086a:	59fd                	li	s3,-1
2000086c:	14fd                	addi	s1,s1,-1
2000086e:	01349863          	bne	s1,s3,2000087e <FLASH_ROM_ADDR+0x3a>
20000872:	40b2                	lw	ra,12(sp)
20000874:	44a2                	lw	s1,8(sp)
20000876:	4912                	lw	s2,4(sp)
20000878:	4982                	lw	s3,0(sp)
2000087a:	0141                	addi	sp,sp,16
2000087c:	8082                	ret
2000087e:	01095513          	srli	a0,s2,0x10
20000882:	0ff57513          	andi	a0,a0,255
20000886:	3f45                	jal	20000836 <FLASH_ROM_OUT>
20000888:	0922                	slli	s2,s2,0x8
2000088a:	b7cd                	j	2000086c <FLASH_ROM_ADDR+0x28>

2000088c <FLASH_ROM_WAIT>:
FLASH_ROM_WAIT():
2000088c:	1101                	addi	sp,sp,-32
2000088e:	cc26                	sw	s1,24(sp)
20000890:	ce06                	sw	ra,28(sp)
20000892:	000804b7          	lui	s1,0x80
20000896:	3751                	jal	2000081a <FLASH_ROM_END>
20000898:	4515                	li	a0,5
2000089a:	37bd                	jal	20000808 <FLASH_ROM_BEG>
2000089c:	3771                	jal	20000828 <FLASH_ROM_IN>
2000089e:	3769                	jal	20000828 <FLASH_ROM_IN>
200008a0:	c62a                	sw	a0,12(sp)
200008a2:	3fa5                	jal	2000081a <FLASH_ROM_END>
200008a4:	4532                	lw	a0,12(sp)
200008a6:	00157793          	andi	a5,a0,1
200008aa:	eb89                	bnez	a5,200008bc <FLASH_ROM_WAIT+0x30>
200008ac:	00156513          	ori	a0,a0,1
200008b0:	0ff57513          	andi	a0,a0,255
200008b4:	40f2                	lw	ra,28(sp)
200008b6:	44e2                	lw	s1,24(sp)
200008b8:	6105                	addi	sp,sp,32
200008ba:	8082                	ret
200008bc:	14fd                	addi	s1,s1,-1
200008be:	fce9                	bnez	s1,20000898 <FLASH_ROM_WAIT+0xc>
200008c0:	4501                	li	a0,0
200008c2:	bfcd                	j	200008b4 <FLASH_ROM_WAIT+0x28>

200008c4 <FLASH_EEPROM_CMD>:
FLASH_EEPROM_CMD():
200008c4:	7139                	addi	sp,sp,-64
200008c6:	dc26                	sw	s1,56(sp)
200008c8:	da4a                	sw	s2,52(sp)
200008ca:	d84e                	sw	s3,48(sp)
200008cc:	d652                	sw	s4,44(sp)
200008ce:	d456                	sw	s5,40(sp)
200008d0:	d25a                	sw	s6,36(sp)
200008d2:	d05e                	sw	s7,32(sp)
200008d4:	de06                	sw	ra,60(sp)
200008d6:	ce62                	sw	s8,28(sp)
200008d8:	cc66                	sw	s9,24(sp)
200008da:	e000e7b7          	lui	a5,0xe000e
200008de:	577d                	li	a4,-1
200008e0:	0007aa83          	lw	s5,0(a5) # e000e000 <_eusrstack+0xc0007800>
200008e4:	c622                	sw	s0,12(sp)
200008e6:	0047aa03          	lw	s4,4(a5)
200008ea:	18e7a023          	sw	a4,384(a5)
200008ee:	18e7a223          	sw	a4,388(a5)
200008f2:	400017b7          	lui	a5,0x40001
200008f6:	05700713          	li	a4,87
200008fa:	04e78023          	sb	a4,64(a5) # 40001040 <_eusrstack+0x1fffa840>
200008fe:	fa800713          	li	a4,-88
20000902:	04e78023          	sb	a4,64(a5)
20000906:	0447c783          	lbu	a5,68(a5)
2000090a:	ff750b93          	addi	s7,a0,-9
2000090e:	84b6                	mv	s1,a3
20000910:	07e2                	slli	a5,a5,0x18
20000912:	0ffbfb93          	andi	s7,s7,255
20000916:	4685                	li	a3,1
20000918:	89aa                	mv	s3,a0
2000091a:	8b2e                	mv	s6,a1
2000091c:	8932                	mv	s2,a2
2000091e:	40002437          	lui	s0,0x40002
20000922:	87e1                	srai	a5,a5,0x18
20000924:	5701                	li	a4,-32
20000926:	0176fa63          	bgeu	a3,s7,2000093a <FLASH_EEPROM_CMD+0x76>
2000092a:	00d50863          	beq	a0,a3,2000093a <FLASH_EEPROM_CMD+0x76>
2000092e:	4689                	li	a3,2
20000930:	02000713          	li	a4,32
20000934:	00d51363          	bne	a0,a3,2000093a <FLASH_EEPROM_CMD+0x76>
20000938:	5701                	li	a4,-32
2000093a:	8fd9                	or	a5,a5,a4
2000093c:	0ff7f793          	andi	a5,a5,255
20000940:	40001cb7          	lui	s9,0x40001
20000944:	04fc8223          	sb	a5,68(s9) # 40001044 <_eusrstack+0x1fffa844>
20000948:	4711                	li	a4,4
2000094a:	80e40323          	sb	a4,-2042(s0) # 40001806 <_eusrstack+0x1fffb006>
2000094e:	0ff00513          	li	a0,255
20000952:	3d5d                	jal	20000808 <FLASH_ROM_BEG>
20000954:	4c09                	li	s8,2
20000956:	35d1                	jal	2000081a <FLASH_ROM_END>
20000958:	117c6d63          	bltu	s8,s7,20000a72 <FLASH_EEPROM_CMD+0x1ae>
2000095c:	000705b7          	lui	a1,0x70
20000960:	95da                	add	a1,a1,s6
20000962:	00078737          	lui	a4,0x78
20000966:	5579                	li	a0,-2
20000968:	04e5f263          	bgeu	a1,a4,200009ac <FLASH_EEPROM_CMD+0xe8>
2000096c:	009587b3          	add	a5,a1,s1
20000970:	02f76e63          	bltu	a4,a5,200009ac <FLASH_EEPROM_CMD+0xe8>
20000974:	00080b37          	lui	s6,0x80
20000978:	47a9                	li	a5,10
2000097a:	0165eb33          	or	s6,a1,s6
2000097e:	06f99963          	bne	s3,a5,200009f0 <FLASH_EEPROM_CMD+0x12c>
20000982:	e489                	bnez	s1,2000098c <FLASH_EEPROM_CMD+0xc8>
20000984:	4481                	li	s1,0
20000986:	3d51                	jal	2000081a <FLASH_ROM_END>
20000988:	8526                	mv	a0,s1
2000098a:	a00d                	j	200009ac <FLASH_EEPROM_CMD+0xe8>
2000098c:	85da                	mv	a1,s6
2000098e:	4509                	li	a0,2
20000990:	3d55                	jal	20000844 <FLASH_ROM_ADDR>
20000992:	0905                	addi	s2,s2,1
20000994:	fff94503          	lbu	a0,-1(s2)
20000998:	14fd                	addi	s1,s1,-1
2000099a:	0b05                	addi	s6,s6,1
2000099c:	3d69                	jal	20000836 <FLASH_ROM_OUT>
2000099e:	c481                	beqz	s1,200009a6 <FLASH_EEPROM_CMD+0xe2>
200009a0:	0ffb7793          	andi	a5,s6,255
200009a4:	f7fd                	bnez	a5,20000992 <FLASH_EEPROM_CMD+0xce>
200009a6:	35dd                	jal	2000088c <FLASH_ROM_WAIT>
200009a8:	fd69                	bnez	a0,20000982 <FLASH_EEPROM_CMD+0xbe>
200009aa:	557d                	li	a0,-1
200009ac:	400017b7          	lui	a5,0x40001
200009b0:	05700713          	li	a4,87
200009b4:	04e78023          	sb	a4,64(a5) # 40001040 <_eusrstack+0x1fffa840>
200009b8:	fa800713          	li	a4,-88
200009bc:	04e78023          	sb	a4,64(a5)
200009c0:	0447c703          	lbu	a4,68(a5)
200009c4:	8b41                	andi	a4,a4,16
200009c6:	04e78223          	sb	a4,68(a5)
200009ca:	50f2                	lw	ra,60(sp)
200009cc:	e000e7b7          	lui	a5,0xe000e
200009d0:	1157a023          	sw	s5,256(a5) # e000e100 <_eusrstack+0xc0007900>
200009d4:	1147a223          	sw	s4,260(a5)
200009d8:	54e2                	lw	s1,56(sp)
200009da:	4432                	lw	s0,12(sp)
200009dc:	5952                	lw	s2,52(sp)
200009de:	59c2                	lw	s3,48(sp)
200009e0:	5a32                	lw	s4,44(sp)
200009e2:	5aa2                	lw	s5,40(sp)
200009e4:	5b12                	lw	s6,36(sp)
200009e6:	5b82                	lw	s7,32(sp)
200009e8:	4c72                	lw	s8,28(sp)
200009ea:	4ce2                	lw	s9,24(sp)
200009ec:	6121                	addi	sp,sp,64
200009ee:	8082                	ret
200009f0:	47a5                	li	a5,9
200009f2:	06f99563          	bne	s3,a5,20000a5c <FLASH_EEPROM_CMD+0x198>
200009f6:	6985                	lui	s3,0x1
200009f8:	0ff00913          	li	s2,255
200009fc:	009906b3          	add	a3,s2,s1
20000a00:	012b74b3          	and	s1,s6,s2
20000a04:	94b6                	add	s1,s1,a3
20000a06:	fff94913          	not	s2,s2
20000a0a:	009974b3          	and	s1,s2,s1
20000a0e:	6b85                	lui	s7,0x1
20000a10:	01697933          	and	s2,s2,s6
20000a14:	6b41                	lui	s6,0x10
20000a16:	fff98793          	addi	a5,s3,-1 # fff <I2C_GenerateSTART+0x7>
20000a1a:	0127f7b3          	and	a5,a5,s2
20000a1e:	e399                	bnez	a5,20000a24 <FLASH_EEPROM_CMD+0x160>
20000a20:	0134fc63          	bgeu	s1,s3,20000a38 <FLASH_EEPROM_CMD+0x174>
20000a24:	0049d993          	srli	s3,s3,0x4
20000a28:	47c1                	li	a5,16
20000a2a:	ff37e6e3          	bltu	a5,s3,20000a16 <FLASH_EEPROM_CMD+0x152>
20000a2e:	bf99                	j	20000984 <FLASH_EEPROM_CMD+0xc0>
20000a30:	6905                	lui	s2,0x1
20000a32:	69c1                	lui	s3,0x10
20000a34:	197d                	addi	s2,s2,-1
20000a36:	b7d9                	j	200009fc <FLASH_EEPROM_CMD+0x138>
20000a38:	0d800513          	li	a0,216
20000a3c:	01698863          	beq	s3,s6,20000a4c <FLASH_EEPROM_CMD+0x188>
20000a40:	02000513          	li	a0,32
20000a44:	01798463          	beq	s3,s7,20000a4c <FLASH_EEPROM_CMD+0x188>
20000a48:	08100513          	li	a0,129
20000a4c:	85ca                	mv	a1,s2
20000a4e:	3bdd                	jal	20000844 <FLASH_ROM_ADDR>
20000a50:	3d35                	jal	2000088c <FLASH_ROM_WAIT>
20000a52:	dd21                	beqz	a0,200009aa <FLASH_EEPROM_CMD+0xe6>
20000a54:	994e                	add	s2,s2,s3
20000a56:	413484b3          	sub	s1,s1,s3
20000a5a:	b7d9                	j	20000a20 <FLASH_EEPROM_CMD+0x15c>
20000a5c:	85da                	mv	a1,s6
20000a5e:	452d                	li	a0,11
20000a60:	33d5                	jal	20000844 <FLASH_ROM_ADDR>
20000a62:	94ca                	add	s1,s1,s2
20000a64:	f29900e3          	beq	s2,s1,20000984 <FLASH_EEPROM_CMD+0xc0>
20000a68:	0905                	addi	s2,s2,1
20000a6a:	3b7d                	jal	20000828 <FLASH_ROM_IN>
20000a6c:	fea90fa3          	sb	a0,-1(s2) # fff <I2C_GenerateSTART+0x7>
20000a70:	bfd5                	j	20000a64 <FLASH_EEPROM_CMD+0x1a0>
20000a72:	fff98793          	addi	a5,s3,-1 # ffff <_data_lma+0xcf07>
20000a76:	0ff7f793          	andi	a5,a5,255
20000a7a:	0cfc6163          	bltu	s8,a5,20000b3c <.loop402+0x7a>
20000a7e:	041cc783          	lbu	a5,65(s9)
20000a82:	08300713          	li	a4,131
20000a86:	04f71f63          	bne	a4,a5,20000ae4 <.loop402+0x22>
20000a8a:	00080737          	lui	a4,0x80
20000a8e:	04eb6b63          	bltu	s6,a4,20000ae4 <.loop402+0x22>
20000a92:	009b07b3          	add	a5,s6,s1
20000a96:	001006b7          	lui	a3,0x100
20000a9a:	04d7f563          	bgeu	a5,a3,20000ae4 <.loop402+0x22>
20000a9e:	00eb4b33          	xor	s6,s6,a4
20000aa2:	4789                	li	a5,2
20000aa4:	06f99363          	bne	s3,a5,20000b0a <.loop402+0x48>
20000aa8:	8089                	srli	s1,s1,0x2
20000aaa:	49d5                	li	s3,21
20000aac:	ec048ce3          	beqz	s1,20000984 <FLASH_EEPROM_CMD+0xc0>
20000ab0:	85da                	mv	a1,s6
20000ab2:	4509                	li	a0,2
20000ab4:	3b41                	jal	20000844 <FLASH_ROM_ADDR>
20000ab6:	0911                	addi	s2,s2,4
20000ab8:	ffc92703          	lw	a4,-4(s2)
20000abc:	4791                	li	a5,4
20000abe:	80e42023          	sw	a4,-2048(s0)

20000ac2 <.loop402>:
20000ac2:	80640703          	lb	a4,-2042(s0)
20000ac6:	fe074ee3          	bltz	a4,20000ac2 <.loop402>
20000aca:	81340323          	sb	s3,-2042(s0)
20000ace:	17fd                	addi	a5,a5,-1
20000ad0:	fbed                	bnez	a5,20000ac2 <.loop402>
20000ad2:	14fd                	addi	s1,s1,-1
20000ad4:	0b11                	addi	s6,s6,4
20000ad6:	c481                	beqz	s1,20000ade <.loop402+0x1c>
20000ad8:	0ffb7793          	andi	a5,s6,255
20000adc:	ffe9                	bnez	a5,20000ab6 <FLASH_EEPROM_CMD+0x1f2>
20000ade:	337d                	jal	2000088c <FLASH_ROM_WAIT>
20000ae0:	f571                	bnez	a0,20000aac <FLASH_EEPROM_CMD+0x1e8>
20000ae2:	b5e1                	j	200009aa <FLASH_EEPROM_CMD+0xe6>
20000ae4:	400017b7          	lui	a5,0x40001
20000ae8:	0457c703          	lbu	a4,69(a5) # 40001045 <_eusrstack+0x1fffa845>
20000aec:	000807b7          	lui	a5,0x80
20000af0:	02077713          	andi	a4,a4,32
20000af4:	e319                	bnez	a4,20000afa <.loop402+0x38>
20000af6:	000787b7          	lui	a5,0x78
20000afa:	5579                	li	a0,-2
20000afc:	eafb78e3          	bgeu	s6,a5,200009ac <FLASH_EEPROM_CMD+0xe8>
20000b00:	009b0733          	add	a4,s6,s1
20000b04:	f8e7ffe3          	bgeu	a5,a4,20000aa2 <FLASH_EEPROM_CMD+0x1de>
20000b08:	b555                	j	200009ac <FLASH_EEPROM_CMD+0xe8>
20000b0a:	4785                	li	a5,1
20000b0c:	f2f982e3          	beq	s3,a5,20000a30 <FLASH_EEPROM_CMD+0x16c>
20000b10:	85da                	mv	a1,s6
20000b12:	452d                	li	a0,11
20000b14:	3b05                	jal	20000844 <FLASH_ROM_ADDR>
20000b16:	fff48993          	addi	s3,s1,-1 # 7ffff <_data_lma+0x7cf07>
20000b1a:	e60485e3          	beqz	s1,20000984 <FLASH_EEPROM_CMD+0xc0>
20000b1e:	3329                	jal	20000828 <FLASH_ROM_IN>
20000b20:	0039f793          	andi	a5,s3,3
20000b24:	eb91                	bnez	a5,20000b38 <.loop402+0x76>
20000b26:	80042683          	lw	a3,-2048(s0)
20000b2a:	00092703          	lw	a4,0(s2)
20000b2e:	00490793          	addi	a5,s2,4
20000b32:	e4e69ae3          	bne	a3,a4,20000986 <FLASH_EEPROM_CMD+0xc2>
20000b36:	893e                	mv	s2,a5
20000b38:	84ce                	mv	s1,s3
20000b3a:	bff1                	j	20000b16 <.loop402+0x54>
20000b3c:	47b5                	li	a5,13
20000b3e:	00f99663          	bne	s3,a5,20000b4a <.loop402+0x88>
20000b42:	0b900513          	li	a0,185
20000b46:	31c9                	jal	20000808 <FLASH_ROM_BEG>
20000b48:	bd35                	j	20000984 <FLASH_EEPROM_CMD+0xc0>
20000b4a:	47b1                	li	a5,12
20000b4c:	0ab00513          	li	a0,171
20000b50:	fef98be3          	beq	s3,a5,20000b46 <.loop402+0x84>
20000b54:	4799                	li	a5,6
20000b56:	04f99163          	bne	s3,a5,20000b98 <.loop402+0xd6>
20000b5a:	000805b7          	lui	a1,0x80
20000b5e:	00bb65b3          	or	a1,s6,a1
20000b62:	452d                	li	a0,11
20000b64:	31c5                	jal	20000844 <FLASH_ROM_ADDR>
20000b66:	4481                	li	s1,0
20000b68:	4b8d                	li	s7,3
20000b6a:	49a1                	li	s3,8
20000b6c:	3975                	jal	20000828 <FLASH_ROM_IN>
20000b6e:	01749663          	bne	s1,s7,20000b7a <.loop402+0xb8>
20000b72:	80042783          	lw	a5,-2048(s0)
20000b76:	00f92023          	sw	a5,0(s2)
20000b7a:	0485                	addi	s1,s1,1
20000b7c:	ff3498e3          	bne	s1,s3,20000b6c <.loop402+0xaa>
20000b80:	80042783          	lw	a5,-2048(s0)
20000b84:	012b1713          	slli	a4,s6,0x12
20000b88:	00075563          	bgez	a4,20000b92 <.loop402+0xd0>
20000b8c:	00f91223          	sh	a5,4(s2)
20000b90:	bbd5                	j	20000984 <FLASH_EEPROM_CMD+0xc0>
20000b92:	00f92223          	sw	a5,4(s2)
20000b96:	b3fd                	j	20000984 <FLASH_EEPROM_CMD+0xc0>
20000b98:	479d                	li	a5,7
20000b9a:	02f99963          	bne	s3,a5,20000bcc <.loop402+0x10a>
20000b9e:	4581                	li	a1,0
20000ba0:	04b00513          	li	a0,75
20000ba4:	3145                	jal	20000844 <FLASH_ROM_ADDR>
20000ba6:	44bd                	li	s1,15
20000ba8:	00092023          	sw	zero,0(s2)
20000bac:	00092223          	sw	zero,4(s2)
20000bb0:	59fd                	li	s3,-1
20000bb2:	399d                	jal	20000828 <FLASH_ROM_IN>
20000bb4:	0074f793          	andi	a5,s1,7
20000bb8:	97ca                	add	a5,a5,s2
20000bba:	0007c703          	lbu	a4,0(a5) # 78000 <_data_lma+0x74f08>
20000bbe:	14fd                	addi	s1,s1,-1
20000bc0:	8d39                	xor	a0,a0,a4
20000bc2:	00a78023          	sb	a0,0(a5)
20000bc6:	ff3496e3          	bne	s1,s3,20000bb2 <.loop402+0xf0>
20000bca:	bb6d                	j	20000984 <FLASH_EEPROM_CMD+0xc0>
20000bcc:	47a1                	li	a5,8
20000bce:	04f99263          	bne	s3,a5,20000c12 <.loop402+0x150>
20000bd2:	396d                	jal	2000088c <FLASH_ROM_WAIT>
20000bd4:	4481                	li	s1,0
20000bd6:	000b0d63          	beqz	s6,20000bf0 <.loop402+0x12e>
20000bda:	478d                	li	a5,3
20000bdc:	03c00493          	li	s1,60
20000be0:	00fb0863          	beq	s6,a5,20000bf0 <.loop402+0x12e>
20000be4:	05000493          	li	s1,80
20000be8:	018b0463          	beq	s6,s8,20000bf0 <.loop402+0x12e>
20000bec:	04400493          	li	s1,68
20000bf0:	07c57513          	andi	a0,a0,124
20000bf4:	d89508e3          	beq	a0,s1,20000984 <FLASH_EEPROM_CMD+0xc0>
20000bf8:	4519                	li	a0,6
20000bfa:	3139                	jal	20000808 <FLASH_ROM_BEG>
20000bfc:	3939                	jal	2000081a <FLASH_ROM_END>
20000bfe:	4505                	li	a0,1
20000c00:	3121                	jal	20000808 <FLASH_ROM_BEG>
20000c02:	8526                	mv	a0,s1
20000c04:	390d                	jal	20000836 <FLASH_ROM_OUT>
20000c06:	4509                	li	a0,2
20000c08:	313d                	jal	20000836 <FLASH_ROM_OUT>
20000c0a:	3149                	jal	2000088c <FLASH_ROM_WAIT>
20000c0c:	d6051ce3          	bnez	a0,20000984 <FLASH_EEPROM_CMD+0xc0>
20000c10:	bb69                	j	200009aa <FLASH_EEPROM_CMD+0xe6>
20000c12:	4791                	li	a5,4
20000c14:	00f99963          	bne	s3,a5,20000c26 <.loop402+0x164>
20000c18:	06600513          	li	a0,102
20000c1c:	36f5                	jal	20000808 <FLASH_ROM_BEG>
20000c1e:	3ef5                	jal	2000081a <FLASH_ROM_END>
20000c20:	09900513          	li	a0,153
20000c24:	b70d                	j	20000b46 <.loop402+0x84>
20000c26:	d4098fe3          	beqz	s3,20000984 <FLASH_EEPROM_CMD+0xc0>
20000c2a:	54f1                	li	s1,-4
20000c2c:	bba9                	j	20000986 <FLASH_EEPROM_CMD+0xc2>
	...

Disassembly of section .text:

00000c34 <handle_reset>:
handle_reset():
c:/Users/Administrator/Documents/MyCode/0323/ch582_i2c/SRC/Startup/startup_CH592.S:127
	.weak	handle_reset
	.align	1
handle_reset:
.option push 
.option	norelax 
	la gp, __global_pointer$
     c34:	20001197          	auipc	gp,0x20001
     c38:	85c18193          	addi	gp,gp,-1956 # 20001490 <__global_pointer$>
c:/Users/Administrator/Documents/MyCode/0323/ch582_i2c/SRC/Startup/startup_CH592.S:130
.option	pop 
1:
	la sp, _eusrstack 
     c3c:	20006117          	auipc	sp,0x20006
     c40:	bc410113          	addi	sp,sp,-1084 # 20006800 <_eusrstack>
c:/Users/Administrator/Documents/MyCode/0323/ch582_i2c/SRC/Startup/startup_CH592.S:134

/* Load highcode code  section from flash to RAM */
2:
    la a0, _highcode_lma
     c44:	00400513          	li	a0,4
c:/Users/Administrator/Documents/MyCode/0323/ch582_i2c/SRC/Startup/startup_CH592.S:135
    la a1, _highcode_vma_start
     c48:	1ffff597          	auipc	a1,0x1ffff
     c4c:	3b858593          	addi	a1,a1,952 # 20000000 <_highcode_vma_start>
c:/Users/Administrator/Documents/MyCode/0323/ch582_i2c/SRC/Startup/startup_CH592.S:136
    la a2, _highcode_vma_end
     c50:	20000617          	auipc	a2,0x20000
     c54:	fe060613          	addi	a2,a2,-32 # 20000c30 <_highcode_vma_end>
c:/Users/Administrator/Documents/MyCode/0323/ch582_i2c/SRC/Startup/startup_CH592.S:137
    bgeu a1, a2, 2f
     c58:	00c5fa63          	bgeu	a1,a2,c6c <handle_reset+0x38>
c:/Users/Administrator/Documents/MyCode/0323/ch582_i2c/SRC/Startup/startup_CH592.S:139
1:
    lw t0, (a0)
     c5c:	00052283          	lw	t0,0(a0)
c:/Users/Administrator/Documents/MyCode/0323/ch582_i2c/SRC/Startup/startup_CH592.S:140
    sw t0, (a1)
     c60:	0055a023          	sw	t0,0(a1)
c:/Users/Administrator/Documents/MyCode/0323/ch582_i2c/SRC/Startup/startup_CH592.S:141
    addi a0, a0, 4
     c64:	0511                	addi	a0,a0,4
c:/Users/Administrator/Documents/MyCode/0323/ch582_i2c/SRC/Startup/startup_CH592.S:142
    addi a1, a1, 4
     c66:	0591                	addi	a1,a1,4
c:/Users/Administrator/Documents/MyCode/0323/ch582_i2c/SRC/Startup/startup_CH592.S:143
    bltu a1, a2, 1b
     c68:	fec5eae3          	bltu	a1,a2,c5c <handle_reset+0x28>
c:/Users/Administrator/Documents/MyCode/0323/ch582_i2c/SRC/Startup/startup_CH592.S:147

/* Load data section from flash to RAM */
2:
	la a0, _data_lma
     c6c:	00002517          	auipc	a0,0x2
     c70:	48c50513          	addi	a0,a0,1164 # 30f8 <_data_lma>
c:/Users/Administrator/Documents/MyCode/0323/ch582_i2c/SRC/Startup/startup_CH592.S:148
	la a1, _data_vma
     c74:	20000597          	auipc	a1,0x20000
     c78:	fbc58593          	addi	a1,a1,-68 # 20000c30 <_highcode_vma_end>
c:/Users/Administrator/Documents/MyCode/0323/ch582_i2c/SRC/Startup/startup_CH592.S:149
	la a2, _edata
     c7c:	80818613          	addi	a2,gp,-2040 # 20000c98 <_edata>
c:/Users/Administrator/Documents/MyCode/0323/ch582_i2c/SRC/Startup/startup_CH592.S:150
	bgeu a1, a2, 2f
     c80:	00c5fa63          	bgeu	a1,a2,c94 <handle_reset+0x60>
c:/Users/Administrator/Documents/MyCode/0323/ch582_i2c/SRC/Startup/startup_CH592.S:152
1:
	lw t0, (a0)
     c84:	00052283          	lw	t0,0(a0)
c:/Users/Administrator/Documents/MyCode/0323/ch582_i2c/SRC/Startup/startup_CH592.S:153
	sw t0, (a1)
     c88:	0055a023          	sw	t0,0(a1)
c:/Users/Administrator/Documents/MyCode/0323/ch582_i2c/SRC/Startup/startup_CH592.S:154
	addi a0, a0, 4
     c8c:	0511                	addi	a0,a0,4
c:/Users/Administrator/Documents/MyCode/0323/ch582_i2c/SRC/Startup/startup_CH592.S:155
	addi a1, a1, 4
     c8e:	0591                	addi	a1,a1,4
c:/Users/Administrator/Documents/MyCode/0323/ch582_i2c/SRC/Startup/startup_CH592.S:156
	bltu a1, a2, 1b
     c90:	fec5eae3          	bltu	a1,a2,c84 <handle_reset+0x50>
c:/Users/Administrator/Documents/MyCode/0323/ch582_i2c/SRC/Startup/startup_CH592.S:159
2:
	/* clear bss section */
	la a0, _sbss
     c94:	80818513          	addi	a0,gp,-2040 # 20000c98 <_edata>
c:/Users/Administrator/Documents/MyCode/0323/ch582_i2c/SRC/Startup/startup_CH592.S:160
	la a1, _ebss
     c98:	d0018593          	addi	a1,gp,-768 # 20001190 <_ebss>
c:/Users/Administrator/Documents/MyCode/0323/ch582_i2c/SRC/Startup/startup_CH592.S:161
	bgeu a0, a1, 2f
     c9c:	00b57763          	bgeu	a0,a1,caa <handle_reset+0x76>
c:/Users/Administrator/Documents/MyCode/0323/ch582_i2c/SRC/Startup/startup_CH592.S:163
1:
	sw zero, (a0)
     ca0:	00052023          	sw	zero,0(a0)
c:/Users/Administrator/Documents/MyCode/0323/ch582_i2c/SRC/Startup/startup_CH592.S:164
	addi a0, a0, 4
     ca4:	0511                	addi	a0,a0,4
c:/Users/Administrator/Documents/MyCode/0323/ch582_i2c/SRC/Startup/startup_CH592.S:165
	bltu a0, a1, 1b
     ca6:	feb56de3          	bltu	a0,a1,ca0 <handle_reset+0x6c>
c:/Users/Administrator/Documents/MyCode/0323/ch582_i2c/SRC/Startup/startup_CH592.S:168
2:
	/* 流水线控制位 & 动态预测控制位 */
	li t0, 0x1f
     caa:	42fd                	li	t0,31
c:/Users/Administrator/Documents/MyCode/0323/ch582_i2c/SRC/Startup/startup_CH592.S:169
	csrw 0xbc0, t0
     cac:	bc029073          	csrw	0xbc0,t0
c:/Users/Administrator/Documents/MyCode/0323/ch582_i2c/SRC/Startup/startup_CH592.S:171
	/* 打开嵌套中断、硬件压栈功能 */
	li t0, 0x3
     cb0:	428d                	li	t0,3
c:/Users/Administrator/Documents/MyCode/0323/ch582_i2c/SRC/Startup/startup_CH592.S:172
	csrw 0x804, t0
     cb2:	80429073          	csrw	0x804,t0
c:/Users/Administrator/Documents/MyCode/0323/ch582_i2c/SRC/Startup/startup_CH592.S:174
	
    li t0, 0x88
     cb6:	08800293          	li	t0,136
c:/Users/Administrator/Documents/MyCode/0323/ch582_i2c/SRC/Startup/startup_CH592.S:175
    csrw mstatus, t0
     cba:	30029073          	csrw	mstatus,t0
c:/Users/Administrator/Documents/MyCode/0323/ch582_i2c/SRC/Startup/startup_CH592.S:176
	la t0, _vector_base
     cbe:	1ffff297          	auipc	t0,0x1ffff
     cc2:	34228293          	addi	t0,t0,834 # 20000000 <_highcode_vma_start>
c:/Users/Administrator/Documents/MyCode/0323/ch582_i2c/SRC/Startup/startup_CH592.S:179

	/* 配置向量表模式为绝对地址模式 */
    ori t0, t0, 3
     cc6:	0032e293          	ori	t0,t0,3
c:/Users/Administrator/Documents/MyCode/0323/ch582_i2c/SRC/Startup/startup_CH592.S:180
	csrw mtvec, t0
     cca:	30529073          	csrw	mtvec,t0
c:/Users/Administrator/Documents/MyCode/0323/ch582_i2c/SRC/Startup/startup_CH592.S:182

	la t0, main
     cce:	00000297          	auipc	t0,0x0
     cd2:	1d628293          	addi	t0,t0,470 # ea4 <main>
c:/Users/Administrator/Documents/MyCode/0323/ch582_i2c/SRC/Startup/startup_CH592.S:183
	csrw mepc, t0
     cd6:	34129073          	csrw	mepc,t0
c:/Users/Administrator/Documents/MyCode/0323/ch582_i2c/SRC/Startup/startup_CH592.S:185
	
	mret
     cda:	30200073          	mret

00000cde <memset>:
memset():
     cde:	433d                	li	t1,15
     ce0:	872a                	mv	a4,a0
     ce2:	02c37363          	bgeu	t1,a2,d08 <memset+0x2a>
     ce6:	00f77793          	andi	a5,a4,15
     cea:	efbd                	bnez	a5,d68 <memset+0x8a>
     cec:	e5ad                	bnez	a1,d56 <memset+0x78>
     cee:	ff067693          	andi	a3,a2,-16
     cf2:	8a3d                	andi	a2,a2,15
     cf4:	96ba                	add	a3,a3,a4
     cf6:	c30c                	sw	a1,0(a4)
     cf8:	c34c                	sw	a1,4(a4)
     cfa:	c70c                	sw	a1,8(a4)
     cfc:	c74c                	sw	a1,12(a4)
     cfe:	0741                	addi	a4,a4,16
     d00:	fed76be3          	bltu	a4,a3,cf6 <memset+0x18>
     d04:	e211                	bnez	a2,d08 <memset+0x2a>
     d06:	8082                	ret
     d08:	40c306b3          	sub	a3,t1,a2
     d0c:	068a                	slli	a3,a3,0x2
     d0e:	00000297          	auipc	t0,0x0
     d12:	9696                	add	a3,a3,t0
     d14:	00a68067          	jr	10(a3) # 10000a <_data_lma+0xfcf12>
     d18:	00b70723          	sb	a1,14(a4) # 8000e <_data_lma+0x7cf16>
     d1c:	00b706a3          	sb	a1,13(a4)
     d20:	00b70623          	sb	a1,12(a4)
     d24:	00b705a3          	sb	a1,11(a4)
     d28:	00b70523          	sb	a1,10(a4)
     d2c:	00b704a3          	sb	a1,9(a4)
     d30:	00b70423          	sb	a1,8(a4)
     d34:	00b703a3          	sb	a1,7(a4)
     d38:	00b70323          	sb	a1,6(a4)
     d3c:	00b702a3          	sb	a1,5(a4)
     d40:	00b70223          	sb	a1,4(a4)
     d44:	00b701a3          	sb	a1,3(a4)
     d48:	00b70123          	sb	a1,2(a4)
     d4c:	00b700a3          	sb	a1,1(a4)
     d50:	00b70023          	sb	a1,0(a4)
     d54:	8082                	ret
     d56:	0ff5f593          	andi	a1,a1,255
     d5a:	00859693          	slli	a3,a1,0x8
     d5e:	8dd5                	or	a1,a1,a3
     d60:	01059693          	slli	a3,a1,0x10
     d64:	8dd5                	or	a1,a1,a3
     d66:	b761                	j	cee <memset+0x10>
     d68:	00279693          	slli	a3,a5,0x2
     d6c:	00000297          	auipc	t0,0x0
     d70:	9696                	add	a3,a3,t0
     d72:	8286                	mv	t0,ra
     d74:	fa8680e7          	jalr	-88(a3)
     d78:	8096                	mv	ra,t0
     d7a:	17c1                	addi	a5,a5,-16
     d7c:	8f1d                	sub	a4,a4,a5
     d7e:	963e                	add	a2,a2,a5
     d80:	f8c374e3          	bgeu	t1,a2,d08 <memset+0x2a>
     d84:	b7a5                	j	cec <memset+0xe>

00000d86 <strcmp>:
strcmp():
     d86:	00b56733          	or	a4,a0,a1
     d8a:	53fd                	li	t2,-1
     d8c:	8b0d                	andi	a4,a4,3
     d8e:	e779                	bnez	a4,e5c <strcmp+0xd6>
     d90:	7f7f87b7          	lui	a5,0x7f7f8
     d94:	f7f78793          	addi	a5,a5,-129 # 7f7f7f7f <_eusrstack+0x5f7f177f>
     d98:	4110                	lw	a2,0(a0)
     d9a:	4194                	lw	a3,0(a1)
     d9c:	00f672b3          	and	t0,a2,a5
     da0:	00f66333          	or	t1,a2,a5
     da4:	92be                	add	t0,t0,a5
     da6:	0062e2b3          	or	t0,t0,t1
     daa:	0c729763          	bne	t0,t2,e78 <strcmp+0xf2>
     dae:	06d61863          	bne	a2,a3,e1e <strcmp+0x98>
     db2:	4150                	lw	a2,4(a0)
     db4:	41d4                	lw	a3,4(a1)
     db6:	00f672b3          	and	t0,a2,a5
     dba:	00f66333          	or	t1,a2,a5
     dbe:	92be                	add	t0,t0,a5
     dc0:	0062e2b3          	or	t0,t0,t1
     dc4:	0a729863          	bne	t0,t2,e74 <strcmp+0xee>
     dc8:	04d61b63          	bne	a2,a3,e1e <strcmp+0x98>
     dcc:	4510                	lw	a2,8(a0)
     dce:	4594                	lw	a3,8(a1)
     dd0:	00f672b3          	and	t0,a2,a5
     dd4:	00f66333          	or	t1,a2,a5
     dd8:	92be                	add	t0,t0,a5
     dda:	0062e2b3          	or	t0,t0,t1
     dde:	0a729163          	bne	t0,t2,e80 <strcmp+0xfa>
     de2:	02d61e63          	bne	a2,a3,e1e <strcmp+0x98>
     de6:	4550                	lw	a2,12(a0)
     de8:	45d4                	lw	a3,12(a1)
     dea:	00f672b3          	and	t0,a2,a5
     dee:	00f66333          	or	t1,a2,a5
     df2:	92be                	add	t0,t0,a5
     df4:	0062e2b3          	or	t0,t0,t1
     df8:	08729a63          	bne	t0,t2,e8c <strcmp+0x106>
     dfc:	02d61163          	bne	a2,a3,e1e <strcmp+0x98>
     e00:	4910                	lw	a2,16(a0)
     e02:	4994                	lw	a3,16(a1)
     e04:	00f672b3          	and	t0,a2,a5
     e08:	00f66333          	or	t1,a2,a5
     e0c:	92be                	add	t0,t0,a5
     e0e:	0062e2b3          	or	t0,t0,t1
     e12:	08729363          	bne	t0,t2,e98 <strcmp+0x112>
     e16:	0551                	addi	a0,a0,20
     e18:	05d1                	addi	a1,a1,20
     e1a:	f6d60fe3          	beq	a2,a3,d98 <strcmp+0x12>
     e1e:	01061713          	slli	a4,a2,0x10
     e22:	01069793          	slli	a5,a3,0x10
     e26:	00f71c63          	bne	a4,a5,e3e <strcmp+0xb8>
     e2a:	01065713          	srli	a4,a2,0x10
     e2e:	0106d793          	srli	a5,a3,0x10
     e32:	40f70533          	sub	a0,a4,a5
     e36:	0ff57593          	andi	a1,a0,255
     e3a:	e991                	bnez	a1,e4e <strcmp+0xc8>
     e3c:	8082                	ret
     e3e:	8341                	srli	a4,a4,0x10
     e40:	83c1                	srli	a5,a5,0x10
     e42:	40f70533          	sub	a0,a4,a5
     e46:	0ff57593          	andi	a1,a0,255
     e4a:	e191                	bnez	a1,e4e <strcmp+0xc8>
     e4c:	8082                	ret
     e4e:	0ff77713          	andi	a4,a4,255
     e52:	0ff7f793          	andi	a5,a5,255
     e56:	40f70533          	sub	a0,a4,a5
     e5a:	8082                	ret
     e5c:	00054603          	lbu	a2,0(a0)
     e60:	0005c683          	lbu	a3,0(a1)
     e64:	0505                	addi	a0,a0,1
     e66:	0585                	addi	a1,a1,1
     e68:	00d61363          	bne	a2,a3,e6e <strcmp+0xe8>
     e6c:	fa65                	bnez	a2,e5c <strcmp+0xd6>
     e6e:	40d60533          	sub	a0,a2,a3
     e72:	8082                	ret
     e74:	0511                	addi	a0,a0,4
     e76:	0591                	addi	a1,a1,4
     e78:	fed612e3          	bne	a2,a3,e5c <strcmp+0xd6>
     e7c:	4501                	li	a0,0
     e7e:	8082                	ret
     e80:	0521                	addi	a0,a0,8
     e82:	05a1                	addi	a1,a1,8
     e84:	fcd61ce3          	bne	a2,a3,e5c <strcmp+0xd6>
     e88:	4501                	li	a0,0
     e8a:	8082                	ret
     e8c:	0531                	addi	a0,a0,12
     e8e:	05b1                	addi	a1,a1,12
     e90:	fcd616e3          	bne	a2,a3,e5c <strcmp+0xd6>
     e94:	4501                	li	a0,0
     e96:	8082                	ret
     e98:	0541                	addi	a0,a0,16
     e9a:	05c1                	addi	a1,a1,16
     e9c:	fcd610e3          	bne	a2,a3,e5c <strcmp+0xd6>
     ea0:	4501                	li	a0,0
     ea2:	8082                	ret

00000ea4 <main>:
main():
c:\Users\Administrator\Documents\MyCode\0323\ch582_i2c\ch582m\obj/../src/Main.c:15
 * microcontroller manufactured by Nanjing Qinheng Microelectronics.
 *******************************************************************************/

#include "code.h"

int main(){
     ea4:	1141                	addi	sp,sp,-16
     ea6:	c606                	sw	ra,12(sp)
c:\Users\Administrator\Documents\MyCode\0323\ch582_i2c\ch582m\obj/../src/Main.c:17

    CODE_MAIN();
     ea8:	233d                	jal	13d6 <CODE_MAIN>
c:\Users\Administrator\Documents\MyCode\0323\ch582_i2c\ch582m\obj/../src/Main.c:19 (discriminator 1)

    while(1);
     eaa:	a001                	j	eaa <main+0x6>

00000eac <GPIOA_ModeCfg>:
GPIOA_ModeCfg():
c:/Users/Administrator/Documents/MyCode/0323/ch582_i2c/SRC/StdPeriphDriver/CH59x_gpio.c:27
 *
 * @return  none
 */
void GPIOA_ModeCfg(uint32_t pin, GPIOModeTypeDef mode)
{
    switch(mode)
     eac:	4791                	li	a5,4
     eae:	02b7ee63          	bltu	a5,a1,eea <GPIOA_ModeCfg+0x3e>
     eb2:	00002717          	auipc	a4,0x2
     eb6:	06a70713          	addi	a4,a4,106 # 2f1c <_read+0xe>
     eba:	058a                	slli	a1,a1,0x2
     ebc:	95ba                	add	a1,a1,a4
     ebe:	419c                	lw	a5,0(a1)
     ec0:	97ba                	add	a5,a5,a4
     ec2:	8782                	jr	a5
c:/Users/Administrator/Documents/MyCode/0323/ch582_i2c/SRC/StdPeriphDriver/CH59x_gpio.c:30
    {
        case GPIO_ModeIN_Floating:
            R32_PA_PD_DRV &= ~pin;
     ec4:	400017b7          	lui	a5,0x40001
     ec8:	0b47a703          	lw	a4,180(a5) # 400010b4 <_eusrstack+0x1fffa8b4>
     ecc:	fff54513          	not	a0,a0
     ed0:	8f69                	and	a4,a4,a0
     ed2:	0ae7aa23          	sw	a4,180(a5)
c:/Users/Administrator/Documents/MyCode/0323/ch582_i2c/SRC/StdPeriphDriver/CH59x_gpio.c:31
            R32_PA_PU &= ~pin;
     ed6:	0b07a703          	lw	a4,176(a5)
c:/Users/Administrator/Documents/MyCode/0323/ch582_i2c/SRC/StdPeriphDriver/CH59x_gpio.c:43
            R32_PA_DIR &= ~pin;
            break;

        case GPIO_ModeIN_PD:
            R32_PA_PD_DRV |= pin;
            R32_PA_PU &= ~pin;
     eda:	8f69                	and	a4,a4,a0
     edc:	0ae7a823          	sw	a4,176(a5)
c:/Users/Administrator/Documents/MyCode/0323/ch582_i2c/SRC/StdPeriphDriver/CH59x_gpio.c:44
            R32_PA_DIR &= ~pin;
     ee0:	0a07a703          	lw	a4,160(a5)
     ee4:	8d79                	and	a0,a0,a4
c:/Users/Administrator/Documents/MyCode/0323/ch582_i2c/SRC/StdPeriphDriver/CH59x_gpio.c:54
            R32_PA_DIR |= pin;
            break;

        case GPIO_ModeOut_PP_20mA:
            R32_PA_PD_DRV |= pin;
            R32_PA_DIR |= pin;
     ee6:	0aa7a023          	sw	a0,160(a5)
c:/Users/Administrator/Documents/MyCode/0323/ch582_i2c/SRC/StdPeriphDriver/CH59x_gpio.c:60
            break;

        default:
            break;
    }
}
     eea:	8082                	ret
c:/Users/Administrator/Documents/MyCode/0323/ch582_i2c/SRC/StdPeriphDriver/CH59x_gpio.c:36
            R32_PA_PD_DRV &= ~pin;
     eec:	400017b7          	lui	a5,0x40001
     ef0:	0b47a683          	lw	a3,180(a5) # 400010b4 <_eusrstack+0x1fffa8b4>
     ef4:	fff54713          	not	a4,a0
     ef8:	8ef9                	and	a3,a3,a4
     efa:	0ad7aa23          	sw	a3,180(a5)
c:/Users/Administrator/Documents/MyCode/0323/ch582_i2c/SRC/StdPeriphDriver/CH59x_gpio.c:37
            R32_PA_PU |= pin;
     efe:	0b07a683          	lw	a3,176(a5)
     f02:	8d55                	or	a0,a0,a3
     f04:	0aa7a823          	sw	a0,176(a5)
c:/Users/Administrator/Documents/MyCode/0323/ch582_i2c/SRC/StdPeriphDriver/CH59x_gpio.c:38
            R32_PA_DIR &= ~pin;
     f08:	0a07a683          	lw	a3,160(a5)
     f0c:	8f75                	and	a4,a4,a3
     f0e:	0ae7a023          	sw	a4,160(a5)
c:/Users/Administrator/Documents/MyCode/0323/ch582_i2c/SRC/StdPeriphDriver/CH59x_gpio.c:39
            break;
     f12:	8082                	ret
c:/Users/Administrator/Documents/MyCode/0323/ch582_i2c/SRC/StdPeriphDriver/CH59x_gpio.c:42
            R32_PA_PD_DRV |= pin;
     f14:	400017b7          	lui	a5,0x40001
     f18:	0b47a703          	lw	a4,180(a5) # 400010b4 <_eusrstack+0x1fffa8b4>
     f1c:	8f49                	or	a4,a4,a0
     f1e:	0ae7aa23          	sw	a4,180(a5)
c:/Users/Administrator/Documents/MyCode/0323/ch582_i2c/SRC/StdPeriphDriver/CH59x_gpio.c:43
            R32_PA_PU &= ~pin;
     f22:	0b07a703          	lw	a4,176(a5)
     f26:	fff54513          	not	a0,a0
     f2a:	bf45                	j	eda <GPIOA_ModeCfg+0x2e>
c:/Users/Administrator/Documents/MyCode/0323/ch582_i2c/SRC/StdPeriphDriver/CH59x_gpio.c:48
            R32_PA_PD_DRV &= ~pin;
     f2c:	400017b7          	lui	a5,0x40001
     f30:	0b47a683          	lw	a3,180(a5) # 400010b4 <_eusrstack+0x1fffa8b4>
     f34:	fff54713          	not	a4,a0
     f38:	8f75                	and	a4,a4,a3
c:/Users/Administrator/Documents/MyCode/0323/ch582_i2c/SRC/StdPeriphDriver/CH59x_gpio.c:53
            R32_PA_PD_DRV |= pin;
     f3a:	0ae7aa23          	sw	a4,180(a5)
c:/Users/Administrator/Documents/MyCode/0323/ch582_i2c/SRC/StdPeriphDriver/CH59x_gpio.c:54
            R32_PA_DIR |= pin;
     f3e:	0a07a703          	lw	a4,160(a5)
     f42:	8d59                	or	a0,a0,a4
     f44:	b74d                	j	ee6 <GPIOA_ModeCfg+0x3a>
c:/Users/Administrator/Documents/MyCode/0323/ch582_i2c/SRC/StdPeriphDriver/CH59x_gpio.c:53
            R32_PA_PD_DRV |= pin;
     f46:	400017b7          	lui	a5,0x40001
     f4a:	0b47a703          	lw	a4,180(a5) # 400010b4 <_eusrstack+0x1fffa8b4>
     f4e:	8f49                	or	a4,a4,a0
     f50:	b7ed                	j	f3a <GPIOA_ModeCfg+0x8e>

00000f52 <GPIOB_ModeCfg>:
GPIOB_ModeCfg():
c:/Users/Administrator/Documents/MyCode/0323/ch582_i2c/SRC/StdPeriphDriver/CH59x_gpio.c:74
 *
 * @return  none
 */
void GPIOB_ModeCfg(uint32_t pin, GPIOModeTypeDef mode)
{
    switch(mode)
     f52:	4791                	li	a5,4
     f54:	02b7ee63          	bltu	a5,a1,f90 <GPIOB_ModeCfg+0x3e>
     f58:	00002717          	auipc	a4,0x2
     f5c:	fd870713          	addi	a4,a4,-40 # 2f30 <_read+0x22>
     f60:	058a                	slli	a1,a1,0x2
     f62:	95ba                	add	a1,a1,a4
     f64:	419c                	lw	a5,0(a1)
     f66:	97ba                	add	a5,a5,a4
     f68:	8782                	jr	a5
c:/Users/Administrator/Documents/MyCode/0323/ch582_i2c/SRC/StdPeriphDriver/CH59x_gpio.c:77
    {
        case GPIO_ModeIN_Floating:
            R32_PB_PD_DRV &= ~pin;
     f6a:	400017b7          	lui	a5,0x40001
     f6e:	0d47a703          	lw	a4,212(a5) # 400010d4 <_eusrstack+0x1fffa8d4>
     f72:	fff54513          	not	a0,a0
     f76:	8f69                	and	a4,a4,a0
     f78:	0ce7aa23          	sw	a4,212(a5)
c:/Users/Administrator/Documents/MyCode/0323/ch582_i2c/SRC/StdPeriphDriver/CH59x_gpio.c:78
            R32_PB_PU &= ~pin;
     f7c:	0d07a703          	lw	a4,208(a5)
c:/Users/Administrator/Documents/MyCode/0323/ch582_i2c/SRC/StdPeriphDriver/CH59x_gpio.c:90
            R32_PB_DIR &= ~pin;
            break;

        case GPIO_ModeIN_PD:
            R32_PB_PD_DRV |= pin;
            R32_PB_PU &= ~pin;
     f80:	8f69                	and	a4,a4,a0
     f82:	0ce7a823          	sw	a4,208(a5)
c:/Users/Administrator/Documents/MyCode/0323/ch582_i2c/SRC/StdPeriphDriver/CH59x_gpio.c:91
            R32_PB_DIR &= ~pin;
     f86:	0c07a703          	lw	a4,192(a5)
     f8a:	8d79                	and	a0,a0,a4
c:/Users/Administrator/Documents/MyCode/0323/ch582_i2c/SRC/StdPeriphDriver/CH59x_gpio.c:101
            R32_PB_DIR |= pin;
            break;

        case GPIO_ModeOut_PP_20mA:
            R32_PB_PD_DRV |= pin;
            R32_PB_DIR |= pin;
     f8c:	0ca7a023          	sw	a0,192(a5)
c:/Users/Administrator/Documents/MyCode/0323/ch582_i2c/SRC/StdPeriphDriver/CH59x_gpio.c:107
            break;

        default:
            break;
    }
}
     f90:	8082                	ret
c:/Users/Administrator/Documents/MyCode/0323/ch582_i2c/SRC/StdPeriphDriver/CH59x_gpio.c:83
            R32_PB_PD_DRV &= ~pin;
     f92:	400017b7          	lui	a5,0x40001
     f96:	0d47a683          	lw	a3,212(a5) # 400010d4 <_eusrstack+0x1fffa8d4>
     f9a:	fff54713          	not	a4,a0
     f9e:	8ef9                	and	a3,a3,a4
     fa0:	0cd7aa23          	sw	a3,212(a5)
c:/Users/Administrator/Documents/MyCode/0323/ch582_i2c/SRC/StdPeriphDriver/CH59x_gpio.c:84
            R32_PB_PU |= pin;
     fa4:	0d07a683          	lw	a3,208(a5)
     fa8:	8d55                	or	a0,a0,a3
     faa:	0ca7a823          	sw	a0,208(a5)
c:/Users/Administrator/Documents/MyCode/0323/ch582_i2c/SRC/StdPeriphDriver/CH59x_gpio.c:85
            R32_PB_DIR &= ~pin;
     fae:	0c07a683          	lw	a3,192(a5)
     fb2:	8f75                	and	a4,a4,a3
     fb4:	0ce7a023          	sw	a4,192(a5)
c:/Users/Administrator/Documents/MyCode/0323/ch582_i2c/SRC/StdPeriphDriver/CH59x_gpio.c:86
            break;
     fb8:	8082                	ret
c:/Users/Administrator/Documents/MyCode/0323/ch582_i2c/SRC/StdPeriphDriver/CH59x_gpio.c:89
            R32_PB_PD_DRV |= pin;
     fba:	400017b7          	lui	a5,0x40001
     fbe:	0d47a703          	lw	a4,212(a5) # 400010d4 <_eusrstack+0x1fffa8d4>
     fc2:	8f49                	or	a4,a4,a0
     fc4:	0ce7aa23          	sw	a4,212(a5)
c:/Users/Administrator/Documents/MyCode/0323/ch582_i2c/SRC/StdPeriphDriver/CH59x_gpio.c:90
            R32_PB_PU &= ~pin;
     fc8:	0d07a703          	lw	a4,208(a5)
     fcc:	fff54513          	not	a0,a0
     fd0:	bf45                	j	f80 <GPIOB_ModeCfg+0x2e>
c:/Users/Administrator/Documents/MyCode/0323/ch582_i2c/SRC/StdPeriphDriver/CH59x_gpio.c:95
            R32_PB_PD_DRV &= ~pin;
     fd2:	400017b7          	lui	a5,0x40001
     fd6:	0d47a683          	lw	a3,212(a5) # 400010d4 <_eusrstack+0x1fffa8d4>
     fda:	fff54713          	not	a4,a0
     fde:	8f75                	and	a4,a4,a3
c:/Users/Administrator/Documents/MyCode/0323/ch582_i2c/SRC/StdPeriphDriver/CH59x_gpio.c:100
            R32_PB_PD_DRV |= pin;
     fe0:	0ce7aa23          	sw	a4,212(a5)
c:/Users/Administrator/Documents/MyCode/0323/ch582_i2c/SRC/StdPeriphDriver/CH59x_gpio.c:101
            R32_PB_DIR |= pin;
     fe4:	0c07a703          	lw	a4,192(a5)
     fe8:	8d59                	or	a0,a0,a4
     fea:	b74d                	j	f8c <GPIOB_ModeCfg+0x3a>
c:/Users/Administrator/Documents/MyCode/0323/ch582_i2c/SRC/StdPeriphDriver/CH59x_gpio.c:100
            R32_PB_PD_DRV |= pin;
     fec:	400017b7          	lui	a5,0x40001
     ff0:	0d47a703          	lw	a4,212(a5) # 400010d4 <_eusrstack+0x1fffa8d4>
     ff4:	8f49                	or	a4,a4,a0
     ff6:	b7ed                	j	fe0 <GPIOB_ModeCfg+0x8e>

00000ff8 <I2C_GenerateSTART>:
I2C_GenerateSTART():
c:/Users/Administrator/Documents/MyCode/0323/ch582_i2c/SRC/StdPeriphDriver/CH59x_i2c.c:117
 * @return  none
 */
void I2C_GenerateSTART(FunctionalState NewState)
{
    if(NewState != DISABLE)
        R16_I2C_CTRL1 |= RB_I2C_START;
     ff8:	40005737          	lui	a4,0x40005
     ffc:	80075783          	lhu	a5,-2048(a4) # 40004800 <_eusrstack+0x1fffe000>
c:/Users/Administrator/Documents/MyCode/0323/ch582_i2c/SRC/StdPeriphDriver/CH59x_i2c.c:116
    if(NewState != DISABLE)
    1000:	c511                	beqz	a0,100c <I2C_GenerateSTART+0x14>
c:/Users/Administrator/Documents/MyCode/0323/ch582_i2c/SRC/StdPeriphDriver/CH59x_i2c.c:117
        R16_I2C_CTRL1 |= RB_I2C_START;
    1002:	1007e793          	ori	a5,a5,256
c:/Users/Administrator/Documents/MyCode/0323/ch582_i2c/SRC/StdPeriphDriver/CH59x_i2c.c:119
    else
        R16_I2C_CTRL1 &= ~RB_I2C_START;
    1006:	80f71023          	sh	a5,-2048(a4)
c:/Users/Administrator/Documents/MyCode/0323/ch582_i2c/SRC/StdPeriphDriver/CH59x_i2c.c:120
}
    100a:	8082                	ret
c:/Users/Administrator/Documents/MyCode/0323/ch582_i2c/SRC/StdPeriphDriver/CH59x_i2c.c:119
        R16_I2C_CTRL1 &= ~RB_I2C_START;
    100c:	07c2                	slli	a5,a5,0x10
    100e:	83c1                	srli	a5,a5,0x10
    1010:	eff7f793          	andi	a5,a5,-257
    1014:	07c2                	slli	a5,a5,0x10
    1016:	83c1                	srli	a5,a5,0x10
    1018:	b7fd                	j	1006 <I2C_GenerateSTART+0xe>

0000101a <I2C_GenerateSTOP>:
I2C_GenerateSTOP():
c:/Users/Administrator/Documents/MyCode/0323/ch582_i2c/SRC/StdPeriphDriver/CH59x_i2c.c:134
 * @return  none
 */
void I2C_GenerateSTOP(FunctionalState NewState)
{
    if(NewState != DISABLE)
        R16_I2C_CTRL1 |= RB_I2C_STOP;
    101a:	40005737          	lui	a4,0x40005
    101e:	80075783          	lhu	a5,-2048(a4) # 40004800 <_eusrstack+0x1fffe000>
c:/Users/Administrator/Documents/MyCode/0323/ch582_i2c/SRC/StdPeriphDriver/CH59x_i2c.c:133
    if(NewState != DISABLE)
    1022:	c511                	beqz	a0,102e <I2C_GenerateSTOP+0x14>
c:/Users/Administrator/Documents/MyCode/0323/ch582_i2c/SRC/StdPeriphDriver/CH59x_i2c.c:134
        R16_I2C_CTRL1 |= RB_I2C_STOP;
    1024:	2007e793          	ori	a5,a5,512
c:/Users/Administrator/Documents/MyCode/0323/ch582_i2c/SRC/StdPeriphDriver/CH59x_i2c.c:136
    else
        R16_I2C_CTRL1 &= ~RB_I2C_STOP;
    1028:	80f71023          	sh	a5,-2048(a4)
c:/Users/Administrator/Documents/MyCode/0323/ch582_i2c/SRC/StdPeriphDriver/CH59x_i2c.c:137
}
    102c:	8082                	ret
c:/Users/Administrator/Documents/MyCode/0323/ch582_i2c/SRC/StdPeriphDriver/CH59x_i2c.c:136
        R16_I2C_CTRL1 &= ~RB_I2C_STOP;
    102e:	07c2                	slli	a5,a5,0x10
    1030:	83c1                	srli	a5,a5,0x10
    1032:	dff7f793          	andi	a5,a5,-513
    1036:	07c2                	slli	a5,a5,0x10
    1038:	83c1                	srli	a5,a5,0x10
    103a:	b7fd                	j	1028 <I2C_GenerateSTOP+0xe>

0000103c <I2C_AcknowledgeConfig>:
I2C_AcknowledgeConfig():
c:/Users/Administrator/Documents/MyCode/0323/ch582_i2c/SRC/StdPeriphDriver/CH59x_i2c.c:151
 * @return  none
 */
void I2C_AcknowledgeConfig(FunctionalState NewState)
{
    if(NewState != DISABLE)
        R16_I2C_CTRL1 |= RB_I2C_ACK;
    103c:	40005737          	lui	a4,0x40005
    1040:	80075783          	lhu	a5,-2048(a4) # 40004800 <_eusrstack+0x1fffe000>
c:/Users/Administrator/Documents/MyCode/0323/ch582_i2c/SRC/StdPeriphDriver/CH59x_i2c.c:150
    if(NewState != DISABLE)
    1044:	c511                	beqz	a0,1050 <I2C_AcknowledgeConfig+0x14>
c:/Users/Administrator/Documents/MyCode/0323/ch582_i2c/SRC/StdPeriphDriver/CH59x_i2c.c:151
        R16_I2C_CTRL1 |= RB_I2C_ACK;
    1046:	4007e793          	ori	a5,a5,1024
c:/Users/Administrator/Documents/MyCode/0323/ch582_i2c/SRC/StdPeriphDriver/CH59x_i2c.c:153
    else
        R16_I2C_CTRL1 &= ~RB_I2C_ACK;
    104a:	80f71023          	sh	a5,-2048(a4)
c:/Users/Administrator/Documents/MyCode/0323/ch582_i2c/SRC/StdPeriphDriver/CH59x_i2c.c:154
}
    104e:	8082                	ret
c:/Users/Administrator/Documents/MyCode/0323/ch582_i2c/SRC/StdPeriphDriver/CH59x_i2c.c:153
        R16_I2C_CTRL1 &= ~RB_I2C_ACK;
    1050:	07c2                	slli	a5,a5,0x10
    1052:	83c1                	srli	a5,a5,0x10
    1054:	bff7f793          	andi	a5,a5,-1025
    1058:	07c2                	slli	a5,a5,0x10
    105a:	83c1                	srli	a5,a5,0x10
    105c:	b7fd                	j	104a <I2C_AcknowledgeConfig+0xe>

0000105e <I2C_ITConfig>:
I2C_ITConfig():
c:/Users/Administrator/Documents/MyCode/0323/ch582_i2c/SRC/StdPeriphDriver/CH59x_i2c.c:221
 * @return  none
 */
void I2C_ITConfig(I2C_ITTypeDef I2C_IT, FunctionalState NewState)
{
    if(NewState != DISABLE)
        R16_I2C_CTRL2 |= I2C_IT;
    105e:	400057b7          	lui	a5,0x40005
    1062:	8047d703          	lhu	a4,-2044(a5) # 40004804 <_eusrstack+0x1fffe004>
    1066:	0542                	slli	a0,a0,0x10
    1068:	8141                	srli	a0,a0,0x10
c:/Users/Administrator/Documents/MyCode/0323/ch582_i2c/SRC/StdPeriphDriver/CH59x_i2c.c:220
    if(NewState != DISABLE)
    106a:	c589                	beqz	a1,1074 <I2C_ITConfig+0x16>
c:/Users/Administrator/Documents/MyCode/0323/ch582_i2c/SRC/StdPeriphDriver/CH59x_i2c.c:221
        R16_I2C_CTRL2 |= I2C_IT;
    106c:	8d59                	or	a0,a0,a4
c:/Users/Administrator/Documents/MyCode/0323/ch582_i2c/SRC/StdPeriphDriver/CH59x_i2c.c:223
    else
        R16_I2C_CTRL2 &= (uint16_t)~I2C_IT;
    106e:	80a79223          	sh	a0,-2044(a5)
c:/Users/Administrator/Documents/MyCode/0323/ch582_i2c/SRC/StdPeriphDriver/CH59x_i2c.c:224
}
    1072:	8082                	ret
c:/Users/Administrator/Documents/MyCode/0323/ch582_i2c/SRC/StdPeriphDriver/CH59x_i2c.c:223
        R16_I2C_CTRL2 &= (uint16_t)~I2C_IT;
    1074:	fff54513          	not	a0,a0
    1078:	8d79                	and	a0,a0,a4
    107a:	bfd5                	j	106e <I2C_ITConfig+0x10>

0000107c <I2C_SendData>:
I2C_SendData():
c:/Users/Administrator/Documents/MyCode/0323/ch582_i2c/SRC/StdPeriphDriver/CH59x_i2c.c:237
 *
 * @return  none
 */
void I2C_SendData(uint8_t Data)
{
    R16_I2C_DATAR = Data;
    107c:	400057b7          	lui	a5,0x40005
    1080:	80a79823          	sh	a0,-2032(a5) # 40004810 <_eusrstack+0x1fffe010>
c:/Users/Administrator/Documents/MyCode/0323/ch582_i2c/SRC/StdPeriphDriver/CH59x_i2c.c:238
}
    1084:	8082                	ret

00001086 <I2C_ReceiveData>:
I2C_ReceiveData():
c:/Users/Administrator/Documents/MyCode/0323/ch582_i2c/SRC/StdPeriphDriver/CH59x_i2c.c:249
 *
 * @return  The value of the received data.
 */
uint8_t I2C_ReceiveData(void)
{
    return (uint8_t)R16_I2C_DATAR;
    1086:	400057b7          	lui	a5,0x40005
    108a:	8107d503          	lhu	a0,-2032(a5) # 40004810 <_eusrstack+0x1fffe010>
c:/Users/Administrator/Documents/MyCode/0323/ch582_i2c/SRC/StdPeriphDriver/CH59x_i2c.c:250
}
    108e:	0ff57513          	andi	a0,a0,255
    1092:	8082                	ret

00001094 <I2C_SoftwareResetCmd>:
I2C_SoftwareResetCmd():
c:/Users/Administrator/Documents/MyCode/0323/ch582_i2c/SRC/StdPeriphDriver/CH59x_i2c.c:286
 * @return  none
 */
void I2C_SoftwareResetCmd(FunctionalState NewState)
{
    if(NewState != DISABLE)
        R16_I2C_CTRL1 |= RB_I2C_SWRST;
    1094:	40005737          	lui	a4,0x40005
    1098:	80075783          	lhu	a5,-2048(a4) # 40004800 <_eusrstack+0x1fffe000>
c:/Users/Administrator/Documents/MyCode/0323/ch582_i2c/SRC/StdPeriphDriver/CH59x_i2c.c:285
    if(NewState != DISABLE)
    109c:	c511                	beqz	a0,10a8 <I2C_SoftwareResetCmd+0x14>
c:/Users/Administrator/Documents/MyCode/0323/ch582_i2c/SRC/StdPeriphDriver/CH59x_i2c.c:286
        R16_I2C_CTRL1 |= RB_I2C_SWRST;
    109e:	66a1                	lui	a3,0x8
    10a0:	8fd5                	or	a5,a5,a3
c:/Users/Administrator/Documents/MyCode/0323/ch582_i2c/SRC/StdPeriphDriver/CH59x_i2c.c:288
    else
        R16_I2C_CTRL1 &= ~RB_I2C_SWRST;
    10a2:	80f71023          	sh	a5,-2048(a4)
c:/Users/Administrator/Documents/MyCode/0323/ch582_i2c/SRC/StdPeriphDriver/CH59x_i2c.c:289
}
    10a6:	8082                	ret
c:/Users/Administrator/Documents/MyCode/0323/ch582_i2c/SRC/StdPeriphDriver/CH59x_i2c.c:288
        R16_I2C_CTRL1 &= ~RB_I2C_SWRST;
    10a8:	07c6                	slli	a5,a5,0x11
    10aa:	83c5                	srli	a5,a5,0x11
    10ac:	bfdd                	j	10a2 <I2C_SoftwareResetCmd+0xe>

000010ae <I2C_Init>:
I2C_Init():
c:/Users/Administrator/Documents/MyCode/0323/ch582_i2c/SRC/StdPeriphDriver/CH59x_i2c.c:34
{
    10ae:	1101                	addi	sp,sp,-32
    10b0:	ca26                	sw	s1,20(sp)
I2C_SoftwareResetCmd():
c:/Users/Administrator/Documents/MyCode/0323/ch582_i2c/SRC/StdPeriphDriver/CH59x_i2c.c:286
        R16_I2C_CTRL1 |= RB_I2C_SWRST;
    10b2:	400054b7          	lui	s1,0x40005
I2C_Init():
c:/Users/Administrator/Documents/MyCode/0323/ch582_i2c/SRC/StdPeriphDriver/CH59x_i2c.c:34
{
    10b6:	cc22                	sw	s0,24(sp)
    10b8:	842e                	mv	s0,a1
I2C_SoftwareResetCmd():
c:/Users/Administrator/Documents/MyCode/0323/ch582_i2c/SRC/StdPeriphDriver/CH59x_i2c.c:286
        R16_I2C_CTRL1 |= RB_I2C_SWRST;
    10ba:	8004d583          	lhu	a1,-2048(s1) # 40004800 <_eusrstack+0x1fffe000>
I2C_Init():
c:/Users/Administrator/Documents/MyCode/0323/ch582_i2c/SRC/StdPeriphDriver/CH59x_i2c.c:34
{
    10be:	c84a                	sw	s2,16(sp)
    10c0:	892a                	mv	s2,a0
I2C_SoftwareResetCmd():
c:/Users/Administrator/Documents/MyCode/0323/ch582_i2c/SRC/StdPeriphDriver/CH59x_i2c.c:286
        R16_I2C_CTRL1 |= RB_I2C_SWRST;
    10c2:	6521                	lui	a0,0x8
    10c4:	8dc9                	or	a1,a1,a0
I2C_Init():
c:/Users/Administrator/Documents/MyCode/0323/ch582_i2c/SRC/StdPeriphDriver/CH59x_i2c.c:34
{
    10c6:	c632                	sw	a2,12(sp)
    10c8:	c436                	sw	a3,8(sp)
    10ca:	c23a                	sw	a4,4(sp)
    10cc:	c03e                	sw	a5,0(sp)
    10ce:	ce06                	sw	ra,28(sp)
I2C_SoftwareResetCmd():
c:/Users/Administrator/Documents/MyCode/0323/ch582_i2c/SRC/StdPeriphDriver/CH59x_i2c.c:286
        R16_I2C_CTRL1 |= RB_I2C_SWRST;
    10d0:	80b49023          	sh	a1,-2048(s1)
I2C_Init():
c:/Users/Administrator/Documents/MyCode/0323/ch582_i2c/SRC/StdPeriphDriver/CH59x_i2c.c:39
    I2C_SoftwareResetCmd(DISABLE);
    10d4:	4501                	li	a0,0
    10d6:	3f7d                	jal	1094 <I2C_SoftwareResetCmd>
c:/Users/Administrator/Documents/MyCode/0323/ch582_i2c/SRC/StdPeriphDriver/CH59x_i2c.c:41
    sysClock = GetSysClock();
    10d8:	2a91                	jal	122c <GetSysClock>
c:/Users/Administrator/Documents/MyCode/0323/ch582_i2c/SRC/StdPeriphDriver/CH59x_i2c.c:44
    R16_I2C_CTRL2 |= (sysClock / 1000000);
    10da:	000f4837          	lui	a6,0xf4
    10de:	24080813          	addi	a6,a6,576 # f4240 <_data_lma+0xf1148>
    10e2:	03055833          	divu	a6,a0,a6
c:/Users/Administrator/Documents/MyCode/0323/ch582_i2c/SRC/StdPeriphDriver/CH59x_i2c.c:43
    R16_I2C_CTRL2 &= ~RB_I2C_FREQ;
    10e6:	8044d583          	lhu	a1,-2044(s1)
c:/Users/Administrator/Documents/MyCode/0323/ch582_i2c/SRC/StdPeriphDriver/CH59x_i2c.c:48
    if(I2C_ClockSpeed <= 100000)
    10ea:	4782                	lw	a5,0(sp)
    10ec:	4712                	lw	a4,4(sp)
c:/Users/Administrator/Documents/MyCode/0323/ch582_i2c/SRC/StdPeriphDriver/CH59x_i2c.c:43
    R16_I2C_CTRL2 &= ~RB_I2C_FREQ;
    10ee:	05c2                	slli	a1,a1,0x10
    10f0:	81c1                	srli	a1,a1,0x10
    10f2:	fc05f593          	andi	a1,a1,-64
    10f6:	05c2                	slli	a1,a1,0x10
    10f8:	81c1                	srli	a1,a1,0x10
    10fa:	80b49223          	sh	a1,-2044(s1)
c:/Users/Administrator/Documents/MyCode/0323/ch582_i2c/SRC/StdPeriphDriver/CH59x_i2c.c:44
    R16_I2C_CTRL2 |= (sysClock / 1000000);
    10fe:	8044d583          	lhu	a1,-2044(s1)
c:/Users/Administrator/Documents/MyCode/0323/ch582_i2c/SRC/StdPeriphDriver/CH59x_i2c.c:48
    if(I2C_ClockSpeed <= 100000)
    1102:	46a2                	lw	a3,8(sp)
    1104:	4632                	lw	a2,12(sp)
c:/Users/Administrator/Documents/MyCode/0323/ch582_i2c/SRC/StdPeriphDriver/CH59x_i2c.c:44
    R16_I2C_CTRL2 |= (sysClock / 1000000);
    1106:	00b865b3          	or	a1,a6,a1
    110a:	05c2                	slli	a1,a1,0x10
    110c:	81c1                	srli	a1,a1,0x10
    110e:	80b49223          	sh	a1,-2044(s1)
c:/Users/Administrator/Documents/MyCode/0323/ch582_i2c/SRC/StdPeriphDriver/CH59x_i2c.c:46
    R16_I2C_CTRL1 &= ~RB_I2C_PE;
    1112:	8004d583          	lhu	a1,-2048(s1)
    1116:	05c2                	slli	a1,a1,0x10
    1118:	81c1                	srli	a1,a1,0x10
    111a:	99f9                	andi	a1,a1,-2
    111c:	05c2                	slli	a1,a1,0x10
    111e:	81c1                	srli	a1,a1,0x10
    1120:	80b49023          	sh	a1,-2048(s1)
c:/Users/Administrator/Documents/MyCode/0323/ch582_i2c/SRC/StdPeriphDriver/CH59x_i2c.c:48
    if(I2C_ClockSpeed <= 100000)
    1124:	65e1                	lui	a1,0x18
    1126:	6a058593          	addi	a1,a1,1696 # 186a0 <_data_lma+0x155a8>
    112a:	0885ed63          	bltu	a1,s0,11c4 <I2C_Init+0x116>
c:/Users/Administrator/Documents/MyCode/0323/ch582_i2c/SRC/StdPeriphDriver/CH59x_i2c.c:50
        tmpreg = (sysClock / (I2C_ClockSpeed << 1)) & RB_I2C_CCR;
    112e:	0406                	slli	s0,s0,0x1
    1130:	02855433          	divu	s0,a0,s0
c:/Users/Administrator/Documents/MyCode/0323/ch582_i2c/SRC/StdPeriphDriver/CH59x_i2c.c:52
        if(tmpreg < 0x04)
    1134:	6605                	lui	a2,0x1
    1136:	ffc60593          	addi	a1,a2,-4 # ffc <I2C_GenerateSTART+0x4>
c:/Users/Administrator/Documents/MyCode/0323/ch582_i2c/SRC/StdPeriphDriver/CH59x_i2c.c:53
            tmpreg = 0x04;
    113a:	4511                	li	a0,4
c:/Users/Administrator/Documents/MyCode/0323/ch582_i2c/SRC/StdPeriphDriver/CH59x_i2c.c:50
        tmpreg = (sysClock / (I2C_ClockSpeed << 1)) & RB_I2C_CCR;
    113c:	0442                	slli	s0,s0,0x10
    113e:	8041                	srli	s0,s0,0x10
c:/Users/Administrator/Documents/MyCode/0323/ch582_i2c/SRC/StdPeriphDriver/CH59x_i2c.c:52
        if(tmpreg < 0x04)
    1140:	8de1                	and	a1,a1,s0
    1142:	c581                	beqz	a1,114a <I2C_Init+0x9c>
c:/Users/Administrator/Documents/MyCode/0323/ch582_i2c/SRC/StdPeriphDriver/CH59x_i2c.c:50
        tmpreg = (sysClock / (I2C_ClockSpeed << 1)) & RB_I2C_CCR;
    1144:	fff60513          	addi	a0,a2,-1
    1148:	8d61                	and	a0,a0,s0
c:/Users/Administrator/Documents/MyCode/0323/ch582_i2c/SRC/StdPeriphDriver/CH59x_i2c.c:55
        R16_I2C_RTR = (((sysClock / 1000000) + 1) > 0x3F) ? 0x3F : ((sysClock / 1000000) + 1);
    114a:	0805                	addi	a6,a6,1
    114c:	03f00613          	li	a2,63
    1150:	01067463          	bgeu	a2,a6,1158 <I2C_Init+0xaa>
    1154:	03f00813          	li	a6,63
c:/Users/Administrator/Documents/MyCode/0323/ch582_i2c/SRC/StdPeriphDriver/CH59x_i2c.c:75
        R16_I2C_RTR = (uint16_t)((((sysClock / 1000000) * (uint16_t)300) / (uint16_t)1000) + (uint16_t)1);
    1158:	0842                	slli	a6,a6,0x10
    115a:	40005637          	lui	a2,0x40005
    115e:	01085813          	srli	a6,a6,0x10
    1162:	83061023          	sh	a6,-2016(a2) # 40004820 <_eusrstack+0x1fffe020>
c:/Users/Administrator/Documents/MyCode/0323/ch582_i2c/SRC/StdPeriphDriver/CH59x_i2c.c:77
    R16_I2C_CKCFGR = tmpreg;
    1166:	40005637          	lui	a2,0x40005
    116a:	80a61e23          	sh	a0,-2020(a2) # 4000481c <_eusrstack+0x1fffe01c>
c:/Users/Administrator/Documents/MyCode/0323/ch582_i2c/SRC/StdPeriphDriver/CH59x_i2c.c:79
    R16_I2C_CTRL1 |= RB_I2C_PE;
    116e:	80065583          	lhu	a1,-2048(a2)
c:/Users/Administrator/Documents/MyCode/0323/ch582_i2c/SRC/StdPeriphDriver/CH59x_i2c.c:86
}
    1172:	40f2                	lw	ra,28(sp)
    1174:	4462                	lw	s0,24(sp)
c:/Users/Administrator/Documents/MyCode/0323/ch582_i2c/SRC/StdPeriphDriver/CH59x_i2c.c:79
    R16_I2C_CTRL1 |= RB_I2C_PE;
    1176:	0015e593          	ori	a1,a1,1
    117a:	80b61023          	sh	a1,-2048(a2)
c:/Users/Administrator/Documents/MyCode/0323/ch582_i2c/SRC/StdPeriphDriver/CH59x_i2c.c:81
    R16_I2C_CTRL1 &= ~(RB_I2C_SMBUS | RB_I2C_SMBTYPE | RB_I2C_ACK);
    117e:	80065583          	lhu	a1,-2048(a2)
c:/Users/Administrator/Documents/MyCode/0323/ch582_i2c/SRC/StdPeriphDriver/CH59x_i2c.c:86
}
    1182:	44d2                	lw	s1,20(sp)
c:/Users/Administrator/Documents/MyCode/0323/ch582_i2c/SRC/StdPeriphDriver/CH59x_i2c.c:81
    R16_I2C_CTRL1 &= ~(RB_I2C_SMBUS | RB_I2C_SMBTYPE | RB_I2C_ACK);
    1184:	05c2                	slli	a1,a1,0x10
    1186:	81c1                	srli	a1,a1,0x10
    1188:	bf55f593          	andi	a1,a1,-1035
    118c:	05c2                	slli	a1,a1,0x10
    118e:	81c1                	srli	a1,a1,0x10
    1190:	80b61023          	sh	a1,-2048(a2)
c:/Users/Administrator/Documents/MyCode/0323/ch582_i2c/SRC/StdPeriphDriver/CH59x_i2c.c:82
    R16_I2C_CTRL1 |= I2C_Mode | I2C_Ack;
    1194:	80065583          	lhu	a1,-2048(a2)
    1198:	8ecd                	or	a3,a3,a1
    119a:	0126e6b3          	or	a3,a3,s2
    119e:	06c2                	slli	a3,a3,0x10
    11a0:	82c1                	srli	a3,a3,0x10
    11a2:	80d61023          	sh	a3,-2048(a2)
c:/Users/Administrator/Documents/MyCode/0323/ch582_i2c/SRC/StdPeriphDriver/CH59x_i2c.c:84
    R16_I2C_OADDR1 &= ~0xFFFF;
    11a6:	80865683          	lhu	a3,-2040(a2)
    11aa:	80061423          	sh	zero,-2040(a2)
c:/Users/Administrator/Documents/MyCode/0323/ch582_i2c/SRC/StdPeriphDriver/CH59x_i2c.c:85
    R16_I2C_OADDR1 |= I2C_AckAddr | I2C_OwnAddress1;
    11ae:	80865683          	lhu	a3,-2040(a2)
c:/Users/Administrator/Documents/MyCode/0323/ch582_i2c/SRC/StdPeriphDriver/CH59x_i2c.c:86
}
    11b2:	4942                	lw	s2,16(sp)
c:/Users/Administrator/Documents/MyCode/0323/ch582_i2c/SRC/StdPeriphDriver/CH59x_i2c.c:85
    R16_I2C_OADDR1 |= I2C_AckAddr | I2C_OwnAddress1;
    11b4:	8fd5                	or	a5,a5,a3
    11b6:	8fd9                	or	a5,a5,a4
    11b8:	07c2                	slli	a5,a5,0x10
    11ba:	83c1                	srli	a5,a5,0x10
    11bc:	80f61423          	sh	a5,-2040(a2)
c:/Users/Administrator/Documents/MyCode/0323/ch582_i2c/SRC/StdPeriphDriver/CH59x_i2c.c:86
}
    11c0:	6105                	addi	sp,sp,32
    11c2:	8082                	ret
c:/Users/Administrator/Documents/MyCode/0323/ch582_i2c/SRC/StdPeriphDriver/CH59x_i2c.c:59
        if(I2C_DutyCycle == I2C_DutyCycle_2)
    11c4:	e615                	bnez	a2,11f0 <I2C_Init+0x142>
c:/Users/Administrator/Documents/MyCode/0323/ch582_i2c/SRC/StdPeriphDriver/CH59x_i2c.c:61
            tmpreg = (sysClock / (I2C_ClockSpeed * 3)) & RB_I2C_CCR;
    11c6:	458d                	li	a1,3
    11c8:	02b405b3          	mul	a1,s0,a1
    11cc:	02b55533          	divu	a0,a0,a1
    11d0:	0552                	slli	a0,a0,0x14
    11d2:	8151                	srli	a0,a0,0x14
c:/Users/Administrator/Documents/MyCode/0323/ch582_i2c/SRC/StdPeriphDriver/CH59x_i2c.c:69
        if(tmpreg == 0)
    11d4:	e111                	bnez	a0,11d8 <I2C_Init+0x12a>
c:/Users/Administrator/Documents/MyCode/0323/ch582_i2c/SRC/StdPeriphDriver/CH59x_i2c.c:71
            tmpreg |= (uint16_t)0x0001;
    11d6:	4505                	li	a0,1
c:/Users/Administrator/Documents/MyCode/0323/ch582_i2c/SRC/StdPeriphDriver/CH59x_i2c.c:74
        tmpreg |= RB_I2C_F_S;
    11d8:	6621                	lui	a2,0x8
    11da:	8d51                	or	a0,a0,a2
c:/Users/Administrator/Documents/MyCode/0323/ch582_i2c/SRC/StdPeriphDriver/CH59x_i2c.c:75
        R16_I2C_RTR = (uint16_t)((((sysClock / 1000000) * (uint16_t)300) / (uint16_t)1000) + (uint16_t)1);
    11dc:	12c00613          	li	a2,300
    11e0:	02c80833          	mul	a6,a6,a2
    11e4:	3e800613          	li	a2,1000
    11e8:	02c85833          	divu	a6,a6,a2
    11ec:	0805                	addi	a6,a6,1
    11ee:	b7ad                	j	1158 <I2C_Init+0xaa>
c:/Users/Administrator/Documents/MyCode/0323/ch582_i2c/SRC/StdPeriphDriver/CH59x_i2c.c:65
            tmpreg = (sysClock / (I2C_ClockSpeed * 25)) & RB_I2C_CCR;
    11f0:	45e5                	li	a1,25
    11f2:	02b40433          	mul	s0,s0,a1
c:/Users/Administrator/Documents/MyCode/0323/ch582_i2c/SRC/StdPeriphDriver/CH59x_i2c.c:66
            tmpreg |= I2C_DutyCycle_16_9;
    11f6:	6611                	lui	a2,0x4
c:/Users/Administrator/Documents/MyCode/0323/ch582_i2c/SRC/StdPeriphDriver/CH59x_i2c.c:65
            tmpreg = (sysClock / (I2C_ClockSpeed * 25)) & RB_I2C_CCR;
    11f8:	02855533          	divu	a0,a0,s0
    11fc:	0552                	slli	a0,a0,0x14
    11fe:	8151                	srli	a0,a0,0x14
c:/Users/Administrator/Documents/MyCode/0323/ch582_i2c/SRC/StdPeriphDriver/CH59x_i2c.c:66
            tmpreg |= I2C_DutyCycle_16_9;
    1200:	8d51                	or	a0,a0,a2
c:/Users/Administrator/Documents/MyCode/0323/ch582_i2c/SRC/StdPeriphDriver/CH59x_i2c.c:69
        if(tmpreg == 0)
    1202:	bfd9                	j	11d8 <I2C_Init+0x12a>

00001204 <I2C_GetLastEvent>:
I2C_GetLastEvent():
c:/Users/Administrator/Documents/MyCode/0323/ch582_i2c/SRC/StdPeriphDriver/CH59x_i2c.c:512
uint32_t I2C_GetLastEvent(void)
{
    uint32_t lastevent = 0;
    uint32_t flag1 = 0, flag2 = 0;

    flag1 = R16_I2C_STAR1;
    1204:	400057b7          	lui	a5,0x40005
    1208:	8147d703          	lhu	a4,-2028(a5) # 40004814 <_eusrstack+0x1fffe014>
c:/Users/Administrator/Documents/MyCode/0323/ch582_i2c/SRC/StdPeriphDriver/CH59x_i2c.c:513
    flag2 = R16_I2C_STAR2;
    120c:	8187d503          	lhu	a0,-2024(a5)
c:/Users/Administrator/Documents/MyCode/0323/ch582_i2c/SRC/StdPeriphDriver/CH59x_i2c.c:514
    flag2 = flag2 << 16;
    1210:	0542                	slli	a0,a0,0x10
c:/Users/Administrator/Documents/MyCode/0323/ch582_i2c/SRC/StdPeriphDriver/CH59x_i2c.c:515
    lastevent = (flag1 | flag2) & FLAG_Mask;
    1212:	8d59                	or	a0,a0,a4
    1214:	0522                	slli	a0,a0,0x8
c:/Users/Administrator/Documents/MyCode/0323/ch582_i2c/SRC/StdPeriphDriver/CH59x_i2c.c:518

    return lastevent;
}
    1216:	8121                	srli	a0,a0,0x8
    1218:	8082                	ret

0000121a <I2C_ClearFlag>:
I2C_ClearFlag():
c:/Users/Administrator/Documents/MyCode/0323/ch582_i2c/SRC/StdPeriphDriver/CH59x_i2c.c:603
void I2C_ClearFlag(uint32_t I2C_FLAG)
{
    uint32_t flagpos = 0;

    flagpos = I2C_FLAG & FLAG_Mask;
    R16_I2C_STAR1 = (uint16_t)~flagpos;
    121a:	fff54513          	not	a0,a0
    121e:	0542                	slli	a0,a0,0x10
    1220:	8141                	srli	a0,a0,0x10
    1222:	400057b7          	lui	a5,0x40005
    1226:	80a79a23          	sh	a0,-2028(a5) # 40004814 <_eusrstack+0x1fffe014>
c:/Users/Administrator/Documents/MyCode/0323/ch582_i2c/SRC/StdPeriphDriver/CH59x_i2c.c:604
}
    122a:	8082                	ret

0000122c <GetSysClock>:
GetSysClock():
c:/Users/Administrator/Documents/MyCode/0323/ch582_i2c/SRC/StdPeriphDriver/CH59x_sys.c:83
    rev = R32_CLK_SYS_CFG & 0xff;
    122c:	400017b7          	lui	a5,0x40001
    1230:	4788                	lw	a0,8(a5)
    1232:	0542                	slli	a0,a0,0x10
    1234:	8141                	srli	a0,a0,0x10
c:/Users/Administrator/Documents/MyCode/0323/ch582_i2c/SRC/StdPeriphDriver/CH59x_sys.c:84
    if((rev & 0x40) == (0 << 6))
    1236:	04057793          	andi	a5,a0,64
    123a:	eb91                	bnez	a5,124e <GetSysClock+0x22>
c:/Users/Administrator/Documents/MyCode/0323/ch582_i2c/SRC/StdPeriphDriver/CH59x_sys.c:86
        return (32000000 / (rev & 0x1f));
    123c:	01f57793          	andi	a5,a0,31
    1240:	01e85537          	lui	a0,0x1e85
c:/Users/Administrator/Documents/MyCode/0323/ch582_i2c/SRC/StdPeriphDriver/CH59x_sys.c:90
        return (480000000 / (rev & 0x1f));
    1244:	80050513          	addi	a0,a0,-2048 # 1e84800 <_data_lma+0x1e81708>
    1248:	02f54533          	div	a0,a0,a5
    124c:	8082                	ret
c:/Users/Administrator/Documents/MyCode/0323/ch582_i2c/SRC/StdPeriphDriver/CH59x_sys.c:88
    else if((rev & RB_CLK_SYS_MOD) == (1 << 6))
    124e:	0c057793          	andi	a5,a0,192
    1252:	04000713          	li	a4,64
    1256:	00e79763          	bne	a5,a4,1264 <GetSysClock+0x38>
c:/Users/Administrator/Documents/MyCode/0323/ch582_i2c/SRC/StdPeriphDriver/CH59x_sys.c:90
        return (480000000 / (rev & 0x1f));
    125a:	01f57793          	andi	a5,a0,31
    125e:	1c9c4537          	lui	a0,0x1c9c4
    1262:	b7cd                	j	1244 <GetSysClock+0x18>
c:/Users/Administrator/Documents/MyCode/0323/ch582_i2c/SRC/StdPeriphDriver/CH59x_sys.c:94
        return (32000);
    1264:	6521                	lui	a0,0x8
    1266:	d0050513          	addi	a0,a0,-768 # 7d00 <_data_lma+0x4c08>
c:/Users/Administrator/Documents/MyCode/0323/ch582_i2c/SRC/StdPeriphDriver/CH59x_sys.c:96
}
    126a:	8082                	ret

0000126c <_write>:
_write():
c:/Users/Administrator/Documents/MyCode/0323/ch582_i2c/SRC/StdPeriphDriver/CH59x_sys.c:347

#ifdef DEBUG
int _write(int fd, char *buf, int size)
{
    int i;
    for(i = 0; i < size; i++)
    126c:	4781                	li	a5,0
c:/Users/Administrator/Documents/MyCode/0323/ch582_i2c/SRC/StdPeriphDriver/CH59x_sys.c:353
    {
#if DEBUG == Debug_UART0
        while(R8_UART0_TFC == UART_FIFO_SIZE);                  /* 等待数据发送 */
        R8_UART0_THR = *buf++; /* 发送数据 */
#elif DEBUG == Debug_UART1
        while(R8_UART1_TFC == UART_FIFO_SIZE);                  /* 等待数据发送 */
    126e:	40003737          	lui	a4,0x40003
    1272:	46a1                	li	a3,8
c:/Users/Administrator/Documents/MyCode/0323/ch582_i2c/SRC/StdPeriphDriver/CH59x_sys.c:347 (discriminator 1)
    for(i = 0; i < size; i++)
    1274:	00c7c463          	blt	a5,a2,127c <_write+0x10>
c:/Users/Administrator/Documents/MyCode/0323/ch582_i2c/SRC/StdPeriphDriver/CH59x_sys.c:364
        while(R8_UART3_TFC == UART_FIFO_SIZE);                  /* 等待数据发送 */
        R8_UART3_THR = *buf++; /* 发送数据 */
#endif
    }
    return size;
}
    1278:	8532                	mv	a0,a2
    127a:	8082                	ret
c:/Users/Administrator/Documents/MyCode/0323/ch582_i2c/SRC/StdPeriphDriver/CH59x_sys.c:353 (discriminator 1)
        while(R8_UART1_TFC == UART_FIFO_SIZE);                  /* 等待数据发送 */
    127c:	40b74503          	lbu	a0,1035(a4) # 4000340b <_eusrstack+0x1fffcc0b>
    1280:	fea68ee3          	beq	a3,a0,127c <_write+0x10>
c:/Users/Administrator/Documents/MyCode/0323/ch582_i2c/SRC/StdPeriphDriver/CH59x_sys.c:354 (discriminator 2)
        R8_UART1_THR = *buf++; /* 发送数据 */
    1284:	00f58533          	add	a0,a1,a5
    1288:	00054503          	lbu	a0,0(a0)
c:/Users/Administrator/Documents/MyCode/0323/ch582_i2c/SRC/StdPeriphDriver/CH59x_sys.c:347 (discriminator 2)
    for(i = 0; i < size; i++)
    128c:	0785                	addi	a5,a5,1
c:/Users/Administrator/Documents/MyCode/0323/ch582_i2c/SRC/StdPeriphDriver/CH59x_sys.c:354 (discriminator 2)
        R8_UART1_THR = *buf++; /* 发送数据 */
    128e:	40a70423          	sb	a0,1032(a4)
    1292:	b7cd                	j	1274 <_write+0x8>

00001294 <_sbrk>:
_sbrk():
c:/Users/Administrator/Documents/MyCode/0323/ch582_i2c/SRC/StdPeriphDriver/CH59x_sys.c:382
{
    extern char _end[];
    extern char _heap_end[];
    static char *curbrk = _end;

    if ((curbrk + incr < _end) || (curbrk + incr > _heap_end))
    1294:	20000797          	auipc	a5,0x20000
    1298:	9fc78793          	addi	a5,a5,-1540 # 20000c90 <curbrk.3969>
    129c:	439c                	lw	a5,0(a5)
    129e:	d0018713          	addi	a4,gp,-768 # 20001190 <_ebss>
    12a2:	953e                	add	a0,a0,a5
    12a4:	00e56e63          	bltu	a0,a4,12c0 <_sbrk+0x2c>
c:/Users/Administrator/Documents/MyCode/0323/ch582_i2c/SRC/StdPeriphDriver/CH59x_sys.c:382 (discriminator 1)
    12a8:	20005717          	auipc	a4,0x20005
    12ac:	35870713          	addi	a4,a4,856 # 20006600 <_heap_end>
    12b0:	00a76863          	bltu	a4,a0,12c0 <_sbrk+0x2c>
c:/Users/Administrator/Documents/MyCode/0323/ch582_i2c/SRC/StdPeriphDriver/CH59x_sys.c:385
    return NULL - 1;

    curbrk += incr;
    12b4:	20000717          	auipc	a4,0x20000
    12b8:	9ca72e23          	sw	a0,-1572(a4) # 20000c90 <curbrk.3969>
c:/Users/Administrator/Documents/MyCode/0323/ch582_i2c/SRC/StdPeriphDriver/CH59x_sys.c:387
    return curbrk - incr;
}
    12bc:	853e                	mv	a0,a5
    12be:	8082                	ret
c:/Users/Administrator/Documents/MyCode/0323/ch582_i2c/SRC/StdPeriphDriver/CH59x_sys.c:383
    return NULL - 1;
    12c0:	57fd                	li	a5,-1
    12c2:	bfed                	j	12bc <_sbrk+0x28>

000012c4 <UART1_BaudRateCfg>:
UART1_BaudRateCfg():
c:/Users/Administrator/Documents/MyCode/0323/ch582_i2c/SRC/StdPeriphDriver/CH59x_uart1.c:43
 * @param   baudrate    - 波特率
 *
 * @return  none
 */
void UART1_BaudRateCfg(uint32_t baudrate)
{
    12c4:	1141                	addi	sp,sp,-16
    12c6:	c422                	sw	s0,8(sp)
    12c8:	c606                	sw	ra,12(sp)
    12ca:	842a                	mv	s0,a0
c:/Users/Administrator/Documents/MyCode/0323/ch582_i2c/SRC/StdPeriphDriver/CH59x_uart1.c:46
    uint32_t x;

    x = 10 * GetSysClock() / 8 / baudrate;
    12cc:	3785                	jal	122c <GetSysClock>
    12ce:	4729                	li	a4,10
    12d0:	02e507b3          	mul	a5,a0,a4
c:/Users/Administrator/Documents/MyCode/0323/ch582_i2c/SRC/StdPeriphDriver/CH59x_uart1.c:49
    x = (x + 5) / 10;
    R16_UART1_DL = (uint16_t)x;
}
    12d4:	40b2                	lw	ra,12(sp)
c:/Users/Administrator/Documents/MyCode/0323/ch582_i2c/SRC/StdPeriphDriver/CH59x_uart1.c:46
    x = 10 * GetSysClock() / 8 / baudrate;
    12d6:	838d                	srli	a5,a5,0x3
    12d8:	0287d7b3          	divu	a5,a5,s0
c:/Users/Administrator/Documents/MyCode/0323/ch582_i2c/SRC/StdPeriphDriver/CH59x_uart1.c:49
}
    12dc:	4422                	lw	s0,8(sp)
c:/Users/Administrator/Documents/MyCode/0323/ch582_i2c/SRC/StdPeriphDriver/CH59x_uart1.c:47
    x = (x + 5) / 10;
    12de:	0795                	addi	a5,a5,5
    12e0:	02e7d7b3          	divu	a5,a5,a4
c:/Users/Administrator/Documents/MyCode/0323/ch582_i2c/SRC/StdPeriphDriver/CH59x_uart1.c:48
    R16_UART1_DL = (uint16_t)x;
    12e4:	40003737          	lui	a4,0x40003
    12e8:	07c2                	slli	a5,a5,0x10
    12ea:	83c1                	srli	a5,a5,0x10
    12ec:	40f71623          	sh	a5,1036(a4) # 4000340c <_eusrstack+0x1fffcc0c>
c:/Users/Administrator/Documents/MyCode/0323/ch582_i2c/SRC/StdPeriphDriver/CH59x_uart1.c:49
}
    12f0:	0141                	addi	sp,sp,16
    12f2:	8082                	ret

000012f4 <UART1_DefInit>:
UART1_DefInit():
c:/Users/Administrator/Documents/MyCode/0323/ch582_i2c/SRC/StdPeriphDriver/CH59x_uart1.c:26
    UART1_BaudRateCfg(115200);
    12f4:	6571                	lui	a0,0x1c
c:/Users/Administrator/Documents/MyCode/0323/ch582_i2c/SRC/StdPeriphDriver/CH59x_uart1.c:25
{
    12f6:	1141                	addi	sp,sp,-16
c:/Users/Administrator/Documents/MyCode/0323/ch582_i2c/SRC/StdPeriphDriver/CH59x_uart1.c:26
    UART1_BaudRateCfg(115200);
    12f8:	20050513          	addi	a0,a0,512 # 1c200 <_data_lma+0x19108>
c:/Users/Administrator/Documents/MyCode/0323/ch582_i2c/SRC/StdPeriphDriver/CH59x_uart1.c:25
{
    12fc:	c606                	sw	ra,12(sp)
c:/Users/Administrator/Documents/MyCode/0323/ch582_i2c/SRC/StdPeriphDriver/CH59x_uart1.c:26
    UART1_BaudRateCfg(115200);
    12fe:	37d9                	jal	12c4 <UART1_BaudRateCfg>
c:/Users/Administrator/Documents/MyCode/0323/ch582_i2c/SRC/StdPeriphDriver/CH59x_uart1.c:27
    R8_UART1_FCR = (2 << 6) | RB_FCR_TX_FIFO_CLR | RB_FCR_RX_FIFO_CLR | RB_FCR_FIFO_EN; // FIFO打开，触发点4字节
    1300:	400037b7          	lui	a5,0x40003
    1304:	f8700713          	li	a4,-121
    1308:	40e78123          	sb	a4,1026(a5) # 40003402 <_eusrstack+0x1fffcc02>
c:/Users/Administrator/Documents/MyCode/0323/ch582_i2c/SRC/StdPeriphDriver/CH59x_uart1.c:28
    R8_UART1_LCR = RB_LCR_WORD_SZ;
    130c:	470d                	li	a4,3
    130e:	40e781a3          	sb	a4,1027(a5)
c:/Users/Administrator/Documents/MyCode/0323/ch582_i2c/SRC/StdPeriphDriver/CH59x_uart1.c:29
    R8_UART1_IER = RB_IER_TXD_EN;
    1312:	04000713          	li	a4,64
    1316:	40e780a3          	sb	a4,1025(a5)
c:/Users/Administrator/Documents/MyCode/0323/ch582_i2c/SRC/StdPeriphDriver/CH59x_uart1.c:30
    R8_UART1_DIV = 1;
    131a:	4705                	li	a4,1
    131c:	40e78723          	sb	a4,1038(a5)
c:/Users/Administrator/Documents/MyCode/0323/ch582_i2c/SRC/StdPeriphDriver/CH59x_uart1.c:31
}
    1320:	40b2                	lw	ra,12(sp)
    1322:	0141                	addi	sp,sp,16
    1324:	8082                	ret

00001326 <UART1_ByteTrigCfg>:
UART1_ByteTrigCfg():
c:/Users/Administrator/Documents/MyCode/0323/ch582_i2c/SRC/StdPeriphDriver/CH59x_uart1.c:62
 *
 * @return  none
 */
void UART1_ByteTrigCfg(UARTByteTRIGTypeDef b)
{
    R8_UART1_FCR = (R8_UART1_FCR & ~RB_FCR_FIFO_TRIG) | (b << 6);
    1326:	40003737          	lui	a4,0x40003
    132a:	40274783          	lbu	a5,1026(a4) # 40003402 <_eusrstack+0x1fffcc02>
    132e:	051a                	slli	a0,a0,0x6
    1330:	03f7f793          	andi	a5,a5,63
    1334:	8fc9                	or	a5,a5,a0
    1336:	0ff7f793          	andi	a5,a5,255
    133a:	40f70123          	sb	a5,1026(a4)
c:/Users/Administrator/Documents/MyCode/0323/ch582_i2c/SRC/StdPeriphDriver/CH59x_uart1.c:63
}
    133e:	8082                	ret

00001340 <UART1_INTCfg>:
UART1_INTCfg():
c:/Users/Administrator/Documents/MyCode/0323/ch582_i2c/SRC/StdPeriphDriver/CH59x_uart1.c:83
 */
void UART1_INTCfg(FunctionalState s, uint8_t i)
{
    if(s)
    {
        R8_UART1_IER |= i;
    1340:	400037b7          	lui	a5,0x40003
    1344:	4017c703          	lbu	a4,1025(a5) # 40003401 <_eusrstack+0x1fffcc01>
c:/Users/Administrator/Documents/MyCode/0323/ch582_i2c/SRC/StdPeriphDriver/CH59x_uart1.c:81
    if(s)
    1348:	c919                	beqz	a0,135e <UART1_INTCfg+0x1e>
c:/Users/Administrator/Documents/MyCode/0323/ch582_i2c/SRC/StdPeriphDriver/CH59x_uart1.c:83
        R8_UART1_IER |= i;
    134a:	8dd9                	or	a1,a1,a4
    134c:	40b780a3          	sb	a1,1025(a5)
c:/Users/Administrator/Documents/MyCode/0323/ch582_i2c/SRC/StdPeriphDriver/CH59x_uart1.c:84
        R8_UART1_MCR |= RB_MCR_INT_OE;
    1350:	4007c703          	lbu	a4,1024(a5)
    1354:	00876713          	ori	a4,a4,8
    1358:	40e78023          	sb	a4,1024(a5)
    135c:	8082                	ret
c:/Users/Administrator/Documents/MyCode/0323/ch582_i2c/SRC/StdPeriphDriver/CH59x_uart1.c:88
    }
    else
    {
        R8_UART1_IER &= ~i;
    135e:	fff5c593          	not	a1,a1
    1362:	8df9                	and	a1,a1,a4
    1364:	40b780a3          	sb	a1,1025(a5)
c:/Users/Administrator/Documents/MyCode/0323/ch582_i2c/SRC/StdPeriphDriver/CH59x_uart1.c:90
    }
}
    1368:	8082                	ret

0000136a <UART1_SendString>:
UART1_SendString():
c:/Users/Administrator/Documents/MyCode/0323/ch582_i2c/SRC/StdPeriphDriver/CH59x_uart1.c:122
{
    uint16_t len = l;

    while(len)
    {
        if(R8_UART1_TFC != UART_FIFO_SIZE)
    136a:	400037b7          	lui	a5,0x40003
    136e:	4721                	li	a4,8
    1370:	400036b7          	lui	a3,0x40003
c:/Users/Administrator/Documents/MyCode/0323/ch582_i2c/SRC/StdPeriphDriver/CH59x_uart1.c:120
    while(len)
    1374:	e191                	bnez	a1,1378 <UART1_SendString+0xe>
c:/Users/Administrator/Documents/MyCode/0323/ch582_i2c/SRC/StdPeriphDriver/CH59x_uart1.c:128
        {
            R8_UART1_THR = *buf++;
            len--;
        }
    }
}
    1376:	8082                	ret
c:/Users/Administrator/Documents/MyCode/0323/ch582_i2c/SRC/StdPeriphDriver/CH59x_uart1.c:122
        if(R8_UART1_TFC != UART_FIFO_SIZE)
    1378:	40b7c603          	lbu	a2,1035(a5) # 4000340b <_eusrstack+0x1fffcc0b>
    137c:	fec70ce3          	beq	a4,a2,1374 <UART1_SendString+0xa>
c:/Users/Administrator/Documents/MyCode/0323/ch582_i2c/SRC/StdPeriphDriver/CH59x_uart1.c:124
            R8_UART1_THR = *buf++;
    1380:	0505                	addi	a0,a0,1
    1382:	fff54603          	lbu	a2,-1(a0)
c:/Users/Administrator/Documents/MyCode/0323/ch582_i2c/SRC/StdPeriphDriver/CH59x_uart1.c:125
            len--;
    1386:	15fd                	addi	a1,a1,-1
    1388:	05c2                	slli	a1,a1,0x10
c:/Users/Administrator/Documents/MyCode/0323/ch582_i2c/SRC/StdPeriphDriver/CH59x_uart1.c:124
            R8_UART1_THR = *buf++;
    138a:	40c68423          	sb	a2,1032(a3) # 40003408 <_eusrstack+0x1fffcc08>
c:/Users/Administrator/Documents/MyCode/0323/ch582_i2c/SRC/StdPeriphDriver/CH59x_uart1.c:125
            len--;
    138e:	81c1                	srli	a1,a1,0x10
    1390:	b7d5                	j	1374 <UART1_SendString+0xa>

00001392 <UART1_RecvString>:
UART1_RecvString():
c:/Users/Administrator/Documents/MyCode/0323/ch582_i2c/SRC/StdPeriphDriver/CH59x_uart1.c:143
 */
uint16_t UART1_RecvString(uint8_t *buf)
{
    uint16_t len = 0;

    while(R8_UART1_RFC)
    1392:	4781                	li	a5,0
    1394:	400036b7          	lui	a3,0x40003
    1398:	40a6c703          	lbu	a4,1034(a3) # 4000340a <_eusrstack+0x1fffcc0a>
    139c:	01079613          	slli	a2,a5,0x10
    13a0:	8241                	srli	a2,a2,0x10
    13a2:	0ff77713          	andi	a4,a4,255
    13a6:	e319                	bnez	a4,13ac <UART1_RecvString+0x1a>
c:/Users/Administrator/Documents/MyCode/0323/ch582_i2c/SRC/StdPeriphDriver/CH59x_uart1.c:150
        *buf++ = R8_UART1_RBR;
        len++;
    }

    return (len);
}
    13a8:	8532                	mv	a0,a2
    13aa:	8082                	ret
c:/Users/Administrator/Documents/MyCode/0323/ch582_i2c/SRC/StdPeriphDriver/CH59x_uart1.c:145
        *buf++ = R8_UART1_RBR;
    13ac:	4086c603          	lbu	a2,1032(a3)
    13b0:	00f50733          	add	a4,a0,a5
    13b4:	0785                	addi	a5,a5,1
    13b6:	00c70023          	sb	a2,0(a4)
c:/Users/Administrator/Documents/MyCode/0323/ch582_i2c/SRC/StdPeriphDriver/CH59x_uart1.c:146
        len++;
    13ba:	bff9                	j	1398 <UART1_RecvString+0x6>

000013bc <CODE_INIT>:
CODE_INIT():
c:\Users\Administrator\Documents\MyCode\0324\my_ch582m\ch582m\obj/../Code/code.c:9
    CODE_INIT();
    CODE_SELF_TEST();
    CODE_WHILE();
}

void CODE_INIT(){
    13bc:	1141                	addi	sp,sp,-16
c:\Users\Administrator\Documents\MyCode\0324\my_ch582m\ch582m\obj/../Code/code.c:10
    SetSysClock(CLK_SOURCE_PLL_60MHz);
    13be:	04800513          	li	a0,72
c:\Users\Administrator\Documents\MyCode\0324\my_ch582m\ch582m\obj/../Code/code.c:9
void CODE_INIT(){
    13c2:	c606                	sw	ra,12(sp)
c:\Users\Administrator\Documents\MyCode\0324\my_ch582m\ch582m\obj/../Code/code.c:10
    SetSysClock(CLK_SOURCE_PLL_60MHz);
    13c4:	1ffff097          	auipc	ra,0x1ffff
    13c8:	cce080e7          	jalr	-818(ra) # 20000092 <SetSysClock>
c:\Users\Administrator\Documents\MyCode\0324\my_ch582m\ch582m\obj/../Code/code.c:11
    USART_APP_Init();
    13cc:	2811                	jal	13e0 <USART_APP_Init>
c:\Users\Administrator\Documents\MyCode\0324\my_ch582m\ch582m\obj/../Code/code.c:16
    i2c_app_init(MAG_ADDRESS);  // I2C_APP_Init();
    // LSM6DSOW_APP_Init();
    // LIS2MDLTR_APP_Init();
    // LSM6DSV16X_APP_Init();
}
    13ce:	40b2                	lw	ra,12(sp)
c:\Users\Administrator\Documents\MyCode\0324\my_ch582m\ch582m\obj/../Code/code.c:12
    i2c_app_init(MAG_ADDRESS);  // I2C_APP_Init();
    13d0:	4569                	li	a0,26
c:\Users\Administrator\Documents\MyCode\0324\my_ch582m\ch582m\obj/../Code/code.c:16
}
    13d2:	0141                	addi	sp,sp,16
c:\Users\Administrator\Documents\MyCode\0324\my_ch582m\ch582m\obj/../Code/code.c:12
    i2c_app_init(MAG_ADDRESS);  // I2C_APP_Init();
    13d4:	a891                	j	1428 <i2c_app_init>

000013d6 <CODE_MAIN>:
CODE_MAIN():
c:\Users\Administrator\Documents\MyCode\0324\my_ch582m\ch582m\obj/../Code/code.c:3
void CODE_MAIN(){
    13d6:	1141                	addi	sp,sp,-16
    13d8:	c606                	sw	ra,12(sp)
c:\Users\Administrator\Documents\MyCode\0324\my_ch582m\ch582m\obj/../Code/code.c:4
    CODE_INIT();
    13da:	37cd                	jal	13bc <CODE_INIT>
CODE_SELF_TEST():
c:\Users\Administrator\Documents\MyCode\0324\my_ch582m\ch582m\obj/../Code/code.c:23
void CODE_SELF_TEST(){
    while(1){
        // my_test();
        // my_usart_self_test();
        // my_i2c_self_test();
        my_qmc5883_self_test();
    13dc:	24a9                	jal	1626 <my_qmc5883_self_test>
    13de:	bffd                	j	13dc <CODE_MAIN+0x6>

000013e0 <USART_APP_Init>:
USART_APP_Init():
c:\Users\Administrator\Documents\MyCode\0324\my_ch582m\ch582m\obj/../Code/my_interface.c:14
        GPIOA_SetBits(GPIO_Pin_9);
    13e0:	40001737          	lui	a4,0x40001
    13e4:	0a872783          	lw	a5,168(a4) # 400010a8 <_eusrstack+0x1fffa8a8>
c:\Users\Administrator\Documents\MyCode\0324\my_ch582m\ch582m\obj/../Code/my_interface.c:12
    void USART_APP_Init(void){
    13e8:	1141                	addi	sp,sp,-16
    13ea:	c606                	sw	ra,12(sp)
c:\Users\Administrator\Documents\MyCode\0324\my_ch582m\ch582m\obj/../Code/my_interface.c:14
        GPIOA_SetBits(GPIO_Pin_9);
    13ec:	2007e793          	ori	a5,a5,512
    13f0:	0af72423          	sw	a5,168(a4)
c:\Users\Administrator\Documents\MyCode\0324\my_ch582m\ch582m\obj/../Code/my_interface.c:15
        GPIOA_ModeCfg(GPIO_Pin_8, GPIO_ModeIN_PU);      // RXD-配置上拉输入
    13f4:	4585                	li	a1,1
    13f6:	10000513          	li	a0,256
    13fa:	3c4d                	jal	eac <GPIOA_ModeCfg>
c:\Users\Administrator\Documents\MyCode\0324\my_ch582m\ch582m\obj/../Code/my_interface.c:16
        GPIOA_ModeCfg(GPIO_Pin_9, GPIO_ModeOut_PP_5mA); // TXD-配置推挽输出，注意先让IO口输出高电平
    13fc:	458d                	li	a1,3
    13fe:	20000513          	li	a0,512
    1402:	346d                	jal	eac <GPIOA_ModeCfg>
c:\Users\Administrator\Documents\MyCode\0324\my_ch582m\ch582m\obj/../Code/my_interface.c:17
        UART1_DefInit();
    1404:	3dc5                	jal	12f4 <UART1_DefInit>
c:\Users\Administrator\Documents\MyCode\0324\my_ch582m\ch582m\obj/../Code/my_interface.c:20
        UART1_ByteTrigCfg(UART_7BYTE_TRIG);
    1406:	450d                	li	a0,3
    1408:	3f39                	jal	1326 <UART1_ByteTrigCfg>
c:\Users\Administrator\Documents\MyCode\0324\my_ch582m\ch582m\obj/../Code/my_interface.c:21
        trigB = 7;
    140a:	479d                	li	a5,7
c:\Users\Administrator\Documents\MyCode\0324\my_ch582m\ch582m\obj/../Code/my_interface.c:22
        UART1_INTCfg(ENABLE, RB_IER_RECV_RDY | RB_IER_LINE_STAT);
    140c:	4595                	li	a1,5
    140e:	4505                	li	a0,1
c:\Users\Administrator\Documents\MyCode\0324\my_ch582m\ch582m\obj/../Code/my_interface.c:21
        trigB = 7;
    1410:	80f18c23          	sb	a5,-2024(gp) # 20000ca8 <trigB>
c:\Users\Administrator\Documents\MyCode\0324\my_ch582m\ch582m\obj/../Code/my_interface.c:22
        UART1_INTCfg(ENABLE, RB_IER_RECV_RDY | RB_IER_LINE_STAT);
    1414:	3735                	jal	1340 <UART1_INTCfg>
c:\Users\Administrator\Documents\MyCode\0324\my_ch582m\ch582m\obj/../Code/my_interface.c:24
    }
    1416:	40b2                	lw	ra,12(sp)
PFIC_EnableIRQ():
c:/Users/Administrator/Documents/MyCode/0324/my_ch582m/SRC/RVMSIS/core_riscv.h:144
 *
 * @param   IRQn    - Interrupt Numbers
 */
__attribute__((always_inline)) RV_STATIC_INLINE void PFIC_EnableIRQ(IRQn_Type IRQn)
{
    PFIC->IENR[((uint32_t)(IRQn) >> 5)] = (1 << ((uint32_t)(IRQn)&0x1F));
    1418:	e000e7b7          	lui	a5,0xe000e
    141c:	08000737          	lui	a4,0x8000
    1420:	10e7a023          	sw	a4,256(a5) # e000e100 <_eusrstack+0xc0007900>
USART_APP_Init():
c:\Users\Administrator\Documents\MyCode\0324\my_ch582m\ch582m\obj/../Code/my_interface.c:24
    1424:	0141                	addi	sp,sp,16
    1426:	8082                	ret

00001428 <i2c_app_init>:
i2c_app_init():
c:\Users\Administrator\Documents\MyCode\0324\my_ch582m\ch582m\obj/../Code/my_interface.c:101
    {
    1428:	1101                	addi	sp,sp,-32
c:\Users\Administrator\Documents\MyCode\0324\my_ch582m\ch582m\obj/../Code/my_interface.c:102
        i2c_state = I2C_READY;
    142a:	800188a3          	sb	zero,-2031(gp) # 20000ca1 <i2c_state>
c:\Users\Administrator\Documents\MyCode\0324\my_ch582m\ch582m\obj/../Code/my_interface.c:103
        i2c_send_stop = true;
    142e:	4705                	li	a4,1
    1430:	80e18623          	sb	a4,-2036(gp) # 20000c9c <i2c_send_stop>
c:\Users\Administrator\Documents\MyCode\0324\my_ch582m\ch582m\obj/../Code/my_interface.c:101
    {
    1434:	c62a                	sw	a0,12(sp)
c:\Users\Administrator\Documents\MyCode\0324\my_ch582m\ch582m\obj/../Code/my_interface.c:106
        GPIOB_ModeCfg(GPIO_Pin_14 | GPIO_Pin_15, GPIO_ModeIN_PU);
    1436:	4585                	li	a1,1
    1438:	6531                	lui	a0,0xc
c:\Users\Administrator\Documents\MyCode\0324\my_ch582m\ch582m\obj/../Code/my_interface.c:101
    {
    143a:	ce06                	sw	ra,28(sp)
c:\Users\Administrator\Documents\MyCode\0324\my_ch582m\ch582m\obj/../Code/my_interface.c:104
        i2c_in_repstart = false;
    143c:	800184a3          	sb	zero,-2039(gp) # 20000c99 <i2c_in_repstart>
c:\Users\Administrator\Documents\MyCode\0324\my_ch582m\ch582m\obj/../Code/my_interface.c:106
        GPIOB_ModeCfg(GPIO_Pin_14 | GPIO_Pin_15, GPIO_ModeIN_PU);
    1440:	3e09                	jal	f52 <GPIOB_ModeCfg>
c:\Users\Administrator\Documents\MyCode\0324\my_ch582m\ch582m\obj/../Code/my_interface.c:108
        I2C_Init(I2C_Mode_I2C, 400000, I2C_DutyCycle_16_9, I2C_Ack_Enable,
    1442:	47b2                	lw	a5,12(sp)
    1444:	000625b7          	lui	a1,0x62
    1448:	6711                	lui	a4,0x4
    144a:	40000693          	li	a3,1024
    144e:	6611                	lui	a2,0x4
    1450:	a8058593          	addi	a1,a1,-1408 # 61a80 <_data_lma+0x5e988>
    1454:	4501                	li	a0,0
    1456:	39a1                	jal	10ae <I2C_Init>
c:\Users\Administrator\Documents\MyCode\0324\my_ch582m\ch582m\obj/../Code/my_interface.c:111
        I2C_ITConfig(I2C_IT_BUF, ENABLE);
    1458:	4585                	li	a1,1
    145a:	40000513          	li	a0,1024
    145e:	3101                	jal	105e <I2C_ITConfig>
c:\Users\Administrator\Documents\MyCode\0324\my_ch582m\ch582m\obj/../Code/my_interface.c:112
        I2C_ITConfig(I2C_IT_EVT, ENABLE);
    1460:	4585                	li	a1,1
    1462:	20000513          	li	a0,512
    1466:	3ee5                	jal	105e <I2C_ITConfig>
c:\Users\Administrator\Documents\MyCode\0324\my_ch582m\ch582m\obj/../Code/my_interface.c:113
        I2C_ITConfig(I2C_IT_ERR, ENABLE);
    1468:	4585                	li	a1,1
    146a:	10000513          	li	a0,256
    146e:	3ec5                	jal	105e <I2C_ITConfig>
c:\Users\Administrator\Documents\MyCode\0324\my_ch582m\ch582m\obj/../Code/my_interface.c:116
    }
    1470:	40f2                	lw	ra,28(sp)
PFIC_EnableIRQ():
c:/Users/Administrator/Documents/MyCode/0324/my_ch582m/SRC/RVMSIS/core_riscv.h:144
    1472:	e000e7b7          	lui	a5,0xe000e
    1476:	40000737          	lui	a4,0x40000
    147a:	10e7a023          	sw	a4,256(a5) # e000e100 <_eusrstack+0xc0007900>
i2c_app_init():
c:\Users\Administrator\Documents\MyCode\0324\my_ch582m\ch582m\obj/../Code/my_interface.c:116
    147e:	6105                	addi	sp,sp,32
    1480:	8082                	ret

00001482 <i2c_read_from>:
i2c_read_from():
c:\Users\Administrator\Documents\MyCode\0324\my_ch582m\ch582m\obj/../Code/my_interface.c:182
    {
    1482:	1101                	addi	sp,sp,-32
    1484:	c84a                	sw	s2,16(sp)
    1486:	ce06                	sw	ra,28(sp)
    1488:	893a                	mv	s2,a4
    148a:	cc22                	sw	s0,24(sp)
    148c:	ca26                	sw	s1,20(sp)
    148e:	c64e                	sw	s3,12(sp)
    1490:	c452                	sw	s4,8(sp)
    1492:	c256                	sw	s5,4(sp)
    1494:	c05a                	sw	s6,0(sp)
c:\Users\Administrator\Documents\MyCode\0324\my_ch582m\ch582m\obj/../Code/my_interface.c:186
        if (length > I2C_BUFFER_LENGTH) {
    1496:	02000713          	li	a4,32
    149a:	0ec76263          	bltu	a4,a2,157e <i2c_read_from+0xfc>
c:\Users\Administrator\Documents\MyCode\0324\my_ch582m\ch582m\obj/../Code/my_interface.c:190
        if (i2c_state != I2C_READY) {
    149e:	8111c703          	lbu	a4,-2031(gp) # 20000ca1 <i2c_state>
    14a2:	87aa                	mv	a5,a0
    14a4:	81118a13          	addi	s4,gp,-2031 # 20000ca1 <i2c_state>
c:\Users\Administrator\Documents\MyCode\0324\my_ch582m\ch582m\obj/../Code/my_interface.c:191
            return -I2C_STATE;
    14a8:	5579                	li	a0,-2
c:\Users\Administrator\Documents\MyCode\0324\my_ch582m\ch582m\obj/../Code/my_interface.c:190
        if (i2c_state != I2C_READY) {
    14aa:	0a071663          	bnez	a4,1556 <i2c_read_from+0xd4>
    14ae:	8432                	mv	s0,a2
c:\Users\Administrator\Documents\MyCode\0324\my_ch582m\ch582m\obj/../Code/my_interface.c:195
            return 0;
    14b0:	4501                	li	a0,0
c:\Users\Administrator\Documents\MyCode\0324\my_ch582m\ch582m\obj/../Code/my_interface.c:194
        if (!length) {
    14b2:	c255                	beqz	a2,1556 <i2c_read_from+0xd4>
c:\Users\Administrator\Documents\MyCode\0324\my_ch582m\ch582m\obj/../Code/my_interface.c:198
        i2c_state = I2C_MRX;
    14b4:	4705                	li	a4,1
    14b6:	80e188a3          	sb	a4,-2031(gp) # 20000ca1 <i2c_state>
c:\Users\Administrator\Documents\MyCode\0324\my_ch582m\ch582m\obj/../Code/my_interface.c:199
        i2c_send_stop = send_stop;
    14ba:	80d18623          	sb	a3,-2036(gp) # 20000c9c <i2c_send_stop>
c:\Users\Administrator\Documents\MyCode\0324\my_ch582m\ch582m\obj/../Code/my_interface.c:201
        i2c_error = 0;
    14be:	80018423          	sb	zero,-2040(gp) # 20000c98 <_edata>
c:\Users\Administrator\Documents\MyCode\0324\my_ch582m\ch582m\obj/../Code/my_interface.c:204
        i2c_master_buffer_index = 0;
    14c2:	80018523          	sb	zero,-2038(gp) # 20000c9a <i2c_master_buffer_index>
c:\Users\Administrator\Documents\MyCode\0324\my_ch582m\ch582m\obj/../Code/my_interface.c:205
        i2c_master_buffer_length = length - 1;
    14c6:	fff40693          	addi	a3,s0,-1
    14ca:	80d185a3          	sb	a3,-2037(gp) # 20000c9b <i2c_master_buffer_length>
c:\Users\Administrator\Documents\MyCode\0324\my_ch582m\ch582m\obj/../Code/my_interface.c:207
        i2c_slave_addr_rw = I2C_READ;
    14ce:	80e186a3          	sb	a4,-2035(gp) # 20000c9d <i2c_slave_addr_rw>
c:\Users\Administrator\Documents\MyCode\0324\my_ch582m\ch582m\obj/../Code/my_interface.c:208
        i2c_slave_addr_rw |= addr_7bit << 1;
    14d2:	80d1c503          	lbu	a0,-2035(gp) # 20000c9d <i2c_slave_addr_rw>
    14d6:	0786                	slli	a5,a5,0x1
    14d8:	8fc9                	or	a5,a5,a0
c:\Users\Administrator\Documents\MyCode\0324\my_ch582m\ch582m\obj/../Code/my_interface.c:210
        I2C_GenerateSTOP(DISABLE);
    14da:	4501                	li	a0,0
c:\Users\Administrator\Documents\MyCode\0324\my_ch582m\ch582m\obj/../Code/my_interface.c:208
        i2c_slave_addr_rw |= addr_7bit << 1;
    14dc:	80f186a3          	sb	a5,-2035(gp) # 20000c9d <i2c_slave_addr_rw>
    14e0:	89ae                	mv	s3,a1
c:\Users\Administrator\Documents\MyCode\0324\my_ch582m\ch582m\obj/../Code/my_interface.c:210
        I2C_GenerateSTOP(DISABLE);
    14e2:	3e25                	jal	101a <I2C_GenerateSTOP>
c:\Users\Administrator\Documents\MyCode\0324\my_ch582m\ch582m\obj/../Code/my_interface.c:212
        if (i2c_in_repstart == true) {
    14e4:	8091c703          	lbu	a4,-2039(gp) # 20000c99 <i2c_in_repstart>
    14e8:	4785                	li	a5,1
    14ea:	80d18a93          	addi	s5,gp,-2035 # 20000c9d <i2c_slave_addr_rw>
    14ee:	06f71e63          	bne	a4,a5,156a <i2c_read_from+0xe8>
c:\Users\Administrator\Documents\MyCode\0324\my_ch582m\ch582m\obj/../Code/my_interface.c:213
            i2c_in_repstart = false;
    14f2:	800184a3          	sb	zero,-2039(gp) # 20000c99 <i2c_in_repstart>
c:\Users\Administrator\Documents\MyCode\0324\my_ch582m\ch582m\obj/../Code/my_interface.c:217
            } while(R16_I2C_CTRL1 & RB_I2C_BTF);
    14f6:	400054b7          	lui	s1,0x40005
c:\Users\Administrator\Documents\MyCode\0324\my_ch582m\ch582m\obj/../Code/my_interface.c:216 (discriminator 1)
                I2C_SendData(i2c_slave_addr_rw);
    14fa:	000ac503          	lbu	a0,0(s5)
    14fe:	3ebd                	jal	107c <I2C_SendData>
c:\Users\Administrator\Documents\MyCode\0324\my_ch582m\ch582m\obj/../Code/my_interface.c:217 (discriminator 1)
            } while(R16_I2C_CTRL1 & RB_I2C_BTF);
    1500:	8004d783          	lhu	a5,-2048(s1) # 40004800 <_eusrstack+0x1fffe000>
    1504:	8b91                	andi	a5,a5,4
    1506:	fbf5                	bnez	a5,14fa <i2c_read_from+0x78>
c:\Users\Administrator\Documents\MyCode\0324\my_ch582m\ch582m\obj/../Code/my_interface.c:220
            I2C_ITConfig(I2C_IT_BUF, ENABLE);
    1508:	4585                	li	a1,1
    150a:	40000513          	li	a0,1024
    150e:	3e81                	jal	105e <I2C_ITConfig>
c:\Users\Administrator\Documents\MyCode\0324\my_ch582m\ch582m\obj/../Code/my_interface.c:221
            I2C_ITConfig(I2C_IT_EVT, ENABLE);
    1510:	4585                	li	a1,1
    1512:	20000513          	li	a0,512
    1516:	36a1                	jal	105e <I2C_ITConfig>
c:\Users\Administrator\Documents\MyCode\0324\my_ch582m\ch582m\obj/../Code/my_interface.c:222
            I2C_ITConfig(I2C_IT_ERR, ENABLE);
    1518:	4585                	li	a1,1
    151a:	10000513          	li	a0,256
    151e:	3681                	jal	105e <I2C_ITConfig>
c:\Users\Administrator\Documents\MyCode\0324\my_ch582m\ch582m\obj/../Code/my_interface.c:182
    {
    1520:	4481                	li	s1,0
c:\Users\Administrator\Documents\MyCode\0324\my_ch582m\ch582m\obj/../Code/my_interface.c:228
        while (i2c_state == I2C_MRX) {
    1522:	4a85                	li	s5,1
c:\Users\Administrator\Documents\MyCode\0324\my_ch582m\ch582m\obj/../Code/my_interface.c:231
            if (!forever && (to >= timeout)) {
    1524:	5b7d                	li	s6,-1
c:\Users\Administrator\Documents\MyCode\0324\my_ch582m\ch582m\obj/../Code/my_interface.c:228
        while (i2c_state == I2C_MRX) {
    1526:	000a4783          	lbu	a5,0(s4)
    152a:	00fa9c63          	bne	s5,a5,1542 <i2c_read_from+0xc0>
c:\Users\Administrator\Documents\MyCode\0324\my_ch582m\ch582m\obj/../Code/my_interface.c:229
            mDelaymS(1);
    152e:	4505                	li	a0,1
    1530:	1ffff097          	auipc	ra,0x1ffff
    1534:	dea080e7          	jalr	-534(ra) # 2000031a <mDelaymS>
c:\Users\Administrator\Documents\MyCode\0324\my_ch582m\ch582m\obj/../Code/my_interface.c:230
            to++;
    1538:	0485                	addi	s1,s1,1
c:\Users\Administrator\Documents\MyCode\0324\my_ch582m\ch582m\obj/../Code/my_interface.c:231
            if (!forever && (to >= timeout)) {
    153a:	ff6906e3          	beq	s2,s6,1526 <i2c_read_from+0xa4>
c:\Users\Administrator\Documents\MyCode\0324\my_ch582m\ch582m\obj/../Code/my_interface.c:231 (discriminator 1)
    153e:	ff24c4e3          	blt	s1,s2,1526 <i2c_read_from+0xa4>
c:\Users\Administrator\Documents\MyCode\0324\my_ch582m\ch582m\obj/../Code/my_interface.c:236
        if (i2c_master_buffer_index < length)
    1542:	80a1c783          	lbu	a5,-2038(gp) # 20000c9a <i2c_master_buffer_index>
    1546:	0287e563          	bltu	a5,s0,1570 <i2c_read_from+0xee>
c:\Users\Administrator\Documents\MyCode\0324\my_ch582m\ch582m\obj/../Code/my_interface.c:240
        memcpy(data, i2c_master_buffer, length);
    154a:	8622                	mv	a2,s0
    154c:	89c18593          	addi	a1,gp,-1892 # 20000d2c <i2c_master_buffer>
    1550:	854e                	mv	a0,s3
    1552:	2639                	jal	1860 <memcpy>
c:\Users\Administrator\Documents\MyCode\0324\my_ch582m\ch582m\obj/../Code/my_interface.c:242
        return length;
    1554:	8522                	mv	a0,s0
c:\Users\Administrator\Documents\MyCode\0324\my_ch582m\ch582m\obj/../Code/my_interface.c:243
    }
    1556:	40f2                	lw	ra,28(sp)
    1558:	4462                	lw	s0,24(sp)
    155a:	44d2                	lw	s1,20(sp)
    155c:	4942                	lw	s2,16(sp)
    155e:	49b2                	lw	s3,12(sp)
    1560:	4a22                	lw	s4,8(sp)
    1562:	4a92                	lw	s5,4(sp)
    1564:	4b02                	lw	s6,0(sp)
    1566:	6105                	addi	sp,sp,32
    1568:	8082                	ret
c:\Users\Administrator\Documents\MyCode\0324\my_ch582m\ch582m\obj/../Code/my_interface.c:224
            I2C_GenerateSTART(ENABLE);
    156a:	4505                	li	a0,1
    156c:	3471                	jal	ff8 <I2C_GenerateSTART>
    156e:	bf4d                	j	1520 <i2c_read_from+0x9e>
c:\Users\Administrator\Documents\MyCode\0324\my_ch582m\ch582m\obj/../Code/my_interface.c:237
            length = i2c_master_buffer_index;
    1570:	80a18793          	addi	a5,gp,-2038 # 20000c9a <i2c_master_buffer_index>
    1574:	0007c403          	lbu	s0,0(a5)
    1578:	0ff47413          	andi	s0,s0,255
    157c:	b7f9                	j	154a <i2c_read_from+0xc8>
c:\Users\Administrator\Documents\MyCode\0324\my_ch582m\ch582m\obj/../Code/my_interface.c:187
            return -I2C_NO_MEM;
    157e:	557d                	li	a0,-1
    1580:	bfd9                	j	1556 <i2c_read_from+0xd4>

00001582 <I2C_Read_QMC5883>:
I2C_Read_QMC5883():
c:\Users\Administrator\Documents\MyCode\0324\my_ch582m\ch582m\obj/../Code/my_module.c:11
    int16_t qmc5883_mag[3];
    unsigned char temp_qmc5883[6];

    
    uint8_t temp_read[1];
    uint8_t I2C_Read_QMC5883(uint8_t DeviceAddress, uint8_t RegisterAddress){
    1582:	1141                	addi	sp,sp,-16
    1584:	c422                	sw	s0,8(sp)
c:\Users\Administrator\Documents\MyCode\0324\my_ch582m\ch582m\obj/../Code/my_module.c:12
        i2c_read_from(DeviceAddress, temp_read, 4, true, 1000);
    1586:	82c18413          	addi	s0,gp,-2004 # 20000cbc <temp_read>
    158a:	85a2                	mv	a1,s0
    158c:	3e800713          	li	a4,1000
    1590:	4685                	li	a3,1
    1592:	4611                	li	a2,4
c:\Users\Administrator\Documents\MyCode\0324\my_ch582m\ch582m\obj/../Code/my_module.c:11
    uint8_t I2C_Read_QMC5883(uint8_t DeviceAddress, uint8_t RegisterAddress){
    1594:	c606                	sw	ra,12(sp)
c:\Users\Administrator\Documents\MyCode\0324\my_ch582m\ch582m\obj/../Code/my_module.c:12
        i2c_read_from(DeviceAddress, temp_read, 4, true, 1000);
    1596:	35f5                	jal	1482 <i2c_read_from>
c:\Users\Administrator\Documents\MyCode\0324\my_ch582m\ch582m\obj/../Code/my_module.c:14
        return temp_read[1];
    }
    1598:	00144503          	lbu	a0,1(s0)
    159c:	40b2                	lw	ra,12(sp)
    159e:	4422                	lw	s0,8(sp)
    15a0:	0141                	addi	sp,sp,16
    15a2:	8082                	ret

000015a4 <QMC5883_Read_Mag>:
QMC5883_Read_Mag():
c:\Users\Administrator\Documents\MyCode\0324\my_ch582m\ch582m\obj/../Code/my_module.c:35

    void QMC5883_Update_Data(void){
        QMC5883_Read_Mag();
    }

    void QMC5883_Read_Mag(void){
    15a4:	1141                	addi	sp,sp,-16
c:\Users\Administrator\Documents\MyCode\0324\my_ch582m\ch582m\obj/../Code/my_module.c:37

        temp_qmc5883[0] = I2C_Read_QMC5883(MAG_ADDRESS, MAG_XOUT_L);
    15a6:	4581                	li	a1,0
    15a8:	4569                	li	a0,26
c:\Users\Administrator\Documents\MyCode\0324\my_ch582m\ch582m\obj/../Code/my_module.c:35
    void QMC5883_Read_Mag(void){
    15aa:	c606                	sw	ra,12(sp)
    15ac:	c422                	sw	s0,8(sp)
c:\Users\Administrator\Documents\MyCode\0324\my_ch582m\ch582m\obj/../Code/my_module.c:37
        temp_qmc5883[0] = I2C_Read_QMC5883(MAG_ADDRESS, MAG_XOUT_L);
    15ae:	82418413          	addi	s0,gp,-2012 # 20000cb4 <temp_qmc5883>
    15b2:	3fc1                	jal	1582 <I2C_Read_QMC5883>
    15b4:	00a40023          	sb	a0,0(s0)
c:\Users\Administrator\Documents\MyCode\0324\my_ch582m\ch582m\obj/../Code/my_module.c:38
        temp_qmc5883[1] = I2C_Read_QMC5883(MAG_ADDRESS, MAG_XOUT_H);
    15b8:	4585                	li	a1,1
    15ba:	4569                	li	a0,26
    15bc:	37d9                	jal	1582 <I2C_Read_QMC5883>
    15be:	00a400a3          	sb	a0,1(s0)
c:\Users\Administrator\Documents\MyCode\0324\my_ch582m\ch582m\obj/../Code/my_module.c:40
    
        temp_qmc5883[2] = I2C_Read_QMC5883(MAG_ADDRESS, MAG_YOUT_L);
    15c2:	4589                	li	a1,2
    15c4:	4569                	li	a0,26
    15c6:	3f75                	jal	1582 <I2C_Read_QMC5883>
    15c8:	00a40123          	sb	a0,2(s0)
c:\Users\Administrator\Documents\MyCode\0324\my_ch582m\ch582m\obj/../Code/my_module.c:41
        temp_qmc5883[3] = I2C_Read_QMC5883(MAG_ADDRESS, MAG_YOUT_H);
    15cc:	458d                	li	a1,3
    15ce:	4569                	li	a0,26
    15d0:	3f4d                	jal	1582 <I2C_Read_QMC5883>
    15d2:	00a401a3          	sb	a0,3(s0)
c:\Users\Administrator\Documents\MyCode\0324\my_ch582m\ch582m\obj/../Code/my_module.c:43
    
        temp_qmc5883[4] = I2C_Read_QMC5883(MAG_ADDRESS, MAG_ZOUT_L);
    15d6:	4591                	li	a1,4
    15d8:	4569                	li	a0,26
    15da:	3765                	jal	1582 <I2C_Read_QMC5883>
    15dc:	00a40223          	sb	a0,4(s0)
c:\Users\Administrator\Documents\MyCode\0324\my_ch582m\ch582m\obj/../Code/my_module.c:44
        temp_qmc5883[5] = I2C_Read_QMC5883(MAG_ADDRESS, MAG_ZOUT_H);
    15e0:	4595                	li	a1,5
    15e2:	4569                	li	a0,26
    15e4:	3f79                	jal	1582 <I2C_Read_QMC5883>
c:\Users\Administrator\Documents\MyCode\0324\my_ch582m\ch582m\obj/../Code/my_module.c:46

        qmc5883_mag[1] = (temp_qmc5883[1] << 8) | temp_qmc5883[0];
    15e6:	00144783          	lbu	a5,1(s0)
    15ea:	00044683          	lbu	a3,0(s0)
    15ee:	81c18713          	addi	a4,gp,-2020 # 20000cac <qmc5883_mag>
    15f2:	07a2                	slli	a5,a5,0x8
    15f4:	8fd5                	or	a5,a5,a3
    15f6:	00f71123          	sh	a5,2(a4) # 40000002 <_eusrstack+0x1fff9802>
c:\Users\Administrator\Documents\MyCode\0324\my_ch582m\ch582m\obj/../Code/my_module.c:47
        qmc5883_mag[0] = (temp_qmc5883[3] << 8) | temp_qmc5883[2];
    15fa:	00344783          	lbu	a5,3(s0)
    15fe:	00244683          	lbu	a3,2(s0)
c:\Users\Administrator\Documents\MyCode\0324\my_ch582m\ch582m\obj/../Code/my_module.c:44
        temp_qmc5883[5] = I2C_Read_QMC5883(MAG_ADDRESS, MAG_ZOUT_H);
    1602:	00a402a3          	sb	a0,5(s0)
c:\Users\Administrator\Documents\MyCode\0324\my_ch582m\ch582m\obj/../Code/my_module.c:47
        qmc5883_mag[0] = (temp_qmc5883[3] << 8) | temp_qmc5883[2];
    1606:	07a2                	slli	a5,a5,0x8
    1608:	8fd5                	or	a5,a5,a3
    160a:	00f71023          	sh	a5,0(a4)
c:\Users\Administrator\Documents\MyCode\0324\my_ch582m\ch582m\obj/../Code/my_module.c:48
        qmc5883_mag[2] = (temp_qmc5883[5] << 8) | temp_qmc5883[4];
    160e:	00444783          	lbu	a5,4(s0)
    1612:	0522                	slli	a0,a0,0x8
c:\Users\Administrator\Documents\MyCode\0324\my_ch582m\ch582m\obj/../Code/my_module.c:51

        qmc5883_mag[2] = -qmc5883_mag[2];
    }
    1614:	40b2                	lw	ra,12(sp)
    1616:	4422                	lw	s0,8(sp)
c:\Users\Administrator\Documents\MyCode\0324\my_ch582m\ch582m\obj/../Code/my_module.c:48
        qmc5883_mag[2] = (temp_qmc5883[5] << 8) | temp_qmc5883[4];
    1618:	8d5d                	or	a0,a0,a5
c:\Users\Administrator\Documents\MyCode\0324\my_ch582m\ch582m\obj/../Code/my_module.c:50
        qmc5883_mag[2] = -qmc5883_mag[2];
    161a:	40a00533          	neg	a0,a0
    161e:	00a71223          	sh	a0,4(a4)
c:\Users\Administrator\Documents\MyCode\0324\my_ch582m\ch582m\obj/../Code/my_module.c:51
    }
    1622:	0141                	addi	sp,sp,16
    1624:	8082                	ret

00001626 <my_qmc5883_self_test>:
my_qmc5883_self_test():
c:\Users\Administrator\Documents\MyCode\0324\my_ch582m\ch582m\obj/../Code/my_module.c:54


    void my_qmc5883_self_test(void){
    1626:	1141                	addi	sp,sp,-16
    1628:	c606                	sw	ra,12(sp)
QMC5883_Update_Data():
c:\Users\Administrator\Documents\MyCode\0324\my_ch582m\ch582m\obj/../Code/my_module.c:32
        QMC5883_Read_Mag();
    162a:	3fad                	jal	15a4 <QMC5883_Read_Mag>
my_qmc5883_self_test():
c:\Users\Administrator\Documents\MyCode\0324\my_ch582m\ch582m\obj/../Code/my_module.c:58

        QMC5883_Update_Data();
        
        char* temp_char = muti_printf_arrays(1, ",", "%d",
    162c:	470d                	li	a4,3
    162e:	81c18693          	addi	a3,gp,-2020 # 20000cac <qmc5883_mag>
    1632:	00002617          	auipc	a2,0x2
    1636:	91260613          	addi	a2,a2,-1774 # 2f44 <_read+0x36>
    163a:	00002597          	auipc	a1,0x2
    163e:	90e58593          	addi	a1,a1,-1778 # 2f48 <_read+0x3a>
    1642:	4505                	li	a0,1
    1644:	2839                	jal	1662 <muti_printf_arrays>
c:\Users\Administrator\Documents\MyCode\0324\my_ch582m\ch582m\obj/../Code/my_module.c:61
            qmc5883_mag, 3
        );
        printf("%s\r\n", temp_char);
    1646:	85aa                	mv	a1,a0
    1648:	00002517          	auipc	a0,0x2
    164c:	90450513          	addi	a0,a0,-1788 # 2f4c <_read+0x3e>
    1650:	24d9                	jal	1916 <iprintf>
c:\Users\Administrator\Documents\MyCode\0324\my_ch582m\ch582m\obj/../Code/my_module.c:63
        DelayMs(500);
    }
    1652:	40b2                	lw	ra,12(sp)
c:\Users\Administrator\Documents\MyCode\0324\my_ch582m\ch582m\obj/../Code/my_module.c:62
        DelayMs(500);
    1654:	1f400513          	li	a0,500
c:\Users\Administrator\Documents\MyCode\0324\my_ch582m\ch582m\obj/../Code/my_module.c:63
    }
    1658:	0141                	addi	sp,sp,16
c:\Users\Administrator\Documents\MyCode\0324\my_ch582m\ch582m\obj/../Code/my_module.c:62
        DelayMs(500);
    165a:	1ffff317          	auipc	t1,0x1ffff
    165e:	cc030067          	jr	-832(t1) # 2000031a <mDelaymS>

00001662 <muti_printf_arrays>:
muti_printf_arrays():
c:\Users\Administrator\Documents\MyCode\0324\my_ch582m\ch582m\obj/../Code/my_tool.c:44
        *         @arg "%x": Hex
        *         @arg "%s": String
        *         @arg ...
        * @retval Char*
        */
        char* muti_printf_arrays(int num_arrays, const char* delimiter, const char* format, ...){
    1662:	7119                	addi	sp,sp,-128
    1664:	dabe                	sw	a5,116(sp)
c:\Users\Administrator\Documents\MyCode\0324\my_ch582m\ch582m\obj/../Code/my_tool.c:46
            static char result[mpa_MAX_STR_LEN];  // 静态缓冲区存储结果
            result[0] = '\0';  // 初始化为空字符串
    1666:	8e018e23          	sb	zero,-1796(gp) # 20000d8c <result.4356>
c:\Users\Administrator\Documents\MyCode\0324\my_ch582m\ch582m\obj/../Code/my_tool.c:49

            va_list args;
            va_start(args, format);
    166a:	10fc                	addi	a5,sp,108
c:\Users\Administrator\Documents\MyCode\0324\my_ch582m\ch582m\obj/../Code/my_tool.c:44
        char* muti_printf_arrays(int num_arrays, const char* delimiter, const char* format, ...){
    166c:	cca2                	sw	s0,88(sp)
    166e:	caa6                	sw	s1,84(sp)
    1670:	c6ce                	sw	s3,76(sp)
    1672:	c4d2                	sw	s4,72(sp)
    1674:	c2d6                	sw	s5,68(sp)
    1676:	dc62                	sw	s8,56(sp)
    1678:	da66                	sw	s9,52(sp)
    167a:	ce86                	sw	ra,92(sp)
    167c:	c8ca                	sw	s2,80(sp)
    167e:	c0da                	sw	s6,64(sp)
    1680:	de5e                	sw	s7,60(sp)
    1682:	8c2a                	mv	s8,a0
    1684:	8aae                	mv	s5,a1
    1686:	8a32                	mv	s4,a2
    1688:	d6b6                	sw	a3,108(sp)
    168a:	d8ba                	sw	a4,112(sp)
    168c:	dcc2                	sw	a6,120(sp)
    168e:	dec6                	sw	a7,124(sp)
c:\Users\Administrator\Documents\MyCode\0324\my_ch582m\ch582m\obj/../Code/my_tool.c:49
            va_start(args, format);
    1690:	c63e                	sw	a5,12(sp)
c:\Users\Administrator\Documents\MyCode\0324\my_ch582m\ch582m\obj/../Code/my_tool.c:54

            char buffer[32];  // 临时存储格式化后的数据
            int first = 1;    // 用于避免首个元素前的分隔符

            for (int i = 0; i < num_arrays; i++) {
    1692:	4981                	li	s3,0
c:\Users\Administrator\Documents\MyCode\0324\my_ch582m\ch582m\obj/../Code/my_tool.c:52
            int first = 1;    // 用于避免首个元素前的分隔符
    1694:	4405                	li	s0,1
c:\Users\Administrator\Documents\MyCode\0324\my_ch582m\ch582m\obj/../Code/my_tool.c:56
                
                if (strcmp(format, "%f") == 0) {
    1696:	00002c97          	auipc	s9,0x2
    169a:	8bec8c93          	addi	s9,s9,-1858 # 2f54 <_read+0x46>
c:\Users\Administrator\Documents\MyCode\0324\my_ch582m\ch582m\obj/../Code/my_tool.c:74
                    int* array = va_arg(args, int*);  // 处理整数数组
                    int size = va_arg(args, int);

                    for (int j = 0; j < size; j++) {
                        if (!first) {
                            strcat(result, delimiter);
    169e:	8fc18493          	addi	s1,gp,-1796 # 20000d8c <result.4356>
c:\Users\Administrator\Documents\MyCode\0324\my_ch582m\ch582m\obj/../Code/my_tool.c:54 (discriminator 1)
            for (int i = 0; i < num_arrays; i++) {
    16a2:	0389c163          	blt	s3,s8,16c4 <muti_printf_arrays+0x62>
c:\Users\Administrator\Documents\MyCode\0324\my_ch582m\ch582m\obj/../Code/my_tool.c:85
                }
            }

            va_end(args);
            return result;
        }
    16a6:	40f6                	lw	ra,92(sp)
    16a8:	4466                	lw	s0,88(sp)
    16aa:	44d6                	lw	s1,84(sp)
    16ac:	4946                	lw	s2,80(sp)
    16ae:	49b6                	lw	s3,76(sp)
    16b0:	4a26                	lw	s4,72(sp)
    16b2:	4a96                	lw	s5,68(sp)
    16b4:	4b06                	lw	s6,64(sp)
    16b6:	5bf2                	lw	s7,60(sp)
    16b8:	5c62                	lw	s8,56(sp)
    16ba:	5cd2                	lw	s9,52(sp)
    16bc:	8fc18513          	addi	a0,gp,-1796 # 20000d8c <result.4356>
    16c0:	6109                	addi	sp,sp,128
    16c2:	8082                	ret
c:\Users\Administrator\Documents\MyCode\0324\my_ch582m\ch582m\obj/../Code/my_tool.c:56
                if (strcmp(format, "%f") == 0) {
    16c4:	85e6                	mv	a1,s9
    16c6:	8552                	mv	a0,s4
    16c8:	ebeff0ef          	jal	ra,d86 <strcmp>
    16cc:	47b2                	lw	a5,12(sp)
c:\Users\Administrator\Documents\MyCode\0324\my_ch582m\ch582m\obj/../Code/my_tool.c:60
                    for (int j = 0; j < size; j++) {
    16ce:	4901                	li	s2,0
    16d0:	00878713          	addi	a4,a5,8
c:\Users\Administrator\Documents\MyCode\0324\my_ch582m\ch582m\obj/../Code/my_tool.c:58
                    int size = va_arg(args, int);
    16d4:	c63a                	sw	a4,12(sp)
    16d6:	0007ab83          	lw	s7,0(a5)
    16da:	0047ab03          	lw	s6,4(a5)
c:\Users\Administrator\Documents\MyCode\0324\my_ch582m\ch582m\obj/../Code/my_tool.c:56
                if (strcmp(format, "%f") == 0) {
    16de:	ed29                	bnez	a0,1738 <muti_printf_arrays+0xd6>
c:\Users\Administrator\Documents\MyCode\0324\my_ch582m\ch582m\obj/../Code/my_tool.c:60 (discriminator 1)
                    for (int j = 0; j < size; j++) {
    16e0:	01694463          	blt	s2,s6,16e8 <muti_printf_arrays+0x86>
c:\Users\Administrator\Documents\MyCode\0324\my_ch582m\ch582m\obj/../Code/my_tool.c:54 (discriminator 2)
            for (int i = 0; i < num_arrays; i++) {
    16e4:	0985                	addi	s3,s3,1
    16e6:	bf75                	j	16a2 <muti_printf_arrays+0x40>
c:\Users\Administrator\Documents\MyCode\0324\my_ch582m\ch582m\obj/../Code/my_tool.c:61
                        if (!first) {
    16e8:	e401                	bnez	s0,16f0 <muti_printf_arrays+0x8e>
c:\Users\Administrator\Documents\MyCode\0324\my_ch582m\ch582m\obj/../Code/my_tool.c:62
                            strcat(result, delimiter);
    16ea:	85d6                	mv	a1,s5
    16ec:	8526                	mv	a0,s1
    16ee:	2cf9                	jal	19cc <strcat>
c:\Users\Administrator\Documents\MyCode\0324\my_ch582m\ch582m\obj/../Code/my_tool.c:65 (discriminator 2)
                        snprintf(buffer, sizeof(buffer), format, array[j]);  // 处理浮点数
    16f0:	00291793          	slli	a5,s2,0x2
    16f4:	97de                	add	a5,a5,s7
    16f6:	4388                	lw	a0,0(a5)
c:\Users\Administrator\Documents\MyCode\0324\my_ch582m\ch582m\obj/../Code/my_tool.c:60 (discriminator 2)
                    for (int j = 0; j < size; j++) {
    16f8:	0905                	addi	s2,s2,1
c:\Users\Administrator\Documents\MyCode\0324\my_ch582m\ch582m\obj/../Code/my_tool.c:64 (discriminator 2)
                        first = 0;
    16fa:	4401                	li	s0,0
c:\Users\Administrator\Documents\MyCode\0324\my_ch582m\ch582m\obj/../Code/my_tool.c:65 (discriminator 2)
                        snprintf(buffer, sizeof(buffer), format, array[j]);  // 处理浮点数
    16fc:	2089                	jal	173e <__extendsfdf2>
    16fe:	872a                	mv	a4,a0
    1700:	87ae                	mv	a5,a1
    1702:	8652                	mv	a2,s4
    1704:	02000593          	li	a1,32
    1708:	0808                	addi	a0,sp,16
    170a:	2c81                	jal	195a <sniprintf>
c:\Users\Administrator\Documents\MyCode\0324\my_ch582m\ch582m\obj/../Code/my_tool.c:66 (discriminator 2)
                        strcat(result, buffer);
    170c:	080c                	addi	a1,sp,16
    170e:	8526                	mv	a0,s1
    1710:	2c75                	jal	19cc <strcat>
    1712:	b7f9                	j	16e0 <muti_printf_arrays+0x7e>
c:\Users\Administrator\Documents\MyCode\0324\my_ch582m\ch582m\obj/../Code/my_tool.c:73
                        if (!first) {
    1714:	e401                	bnez	s0,171c <muti_printf_arrays+0xba>
c:\Users\Administrator\Documents\MyCode\0324\my_ch582m\ch582m\obj/../Code/my_tool.c:74
                            strcat(result, delimiter);
    1716:	85d6                	mv	a1,s5
    1718:	8526                	mv	a0,s1
    171a:	2c4d                	jal	19cc <strcat>
c:\Users\Administrator\Documents\MyCode\0324\my_ch582m\ch582m\obj/../Code/my_tool.c:77 (discriminator 2)
                        snprintf(buffer, sizeof(buffer), format, array[j]);  // 处理整数
    171c:	00291793          	slli	a5,s2,0x2
    1720:	97de                	add	a5,a5,s7
    1722:	4394                	lw	a3,0(a5)
    1724:	8652                	mv	a2,s4
    1726:	02000593          	li	a1,32
    172a:	0808                	addi	a0,sp,16
    172c:	243d                	jal	195a <sniprintf>
c:\Users\Administrator\Documents\MyCode\0324\my_ch582m\ch582m\obj/../Code/my_tool.c:78 (discriminator 2)
                        strcat(result, buffer);
    172e:	080c                	addi	a1,sp,16
    1730:	8526                	mv	a0,s1
    1732:	2c69                	jal	19cc <strcat>
c:\Users\Administrator\Documents\MyCode\0324\my_ch582m\ch582m\obj/../Code/my_tool.c:72 (discriminator 2)
                    for (int j = 0; j < size; j++) {
    1734:	0905                	addi	s2,s2,1
c:\Users\Administrator\Documents\MyCode\0324\my_ch582m\ch582m\obj/../Code/my_tool.c:76 (discriminator 2)
                        first = 0;
    1736:	4401                	li	s0,0
c:\Users\Administrator\Documents\MyCode\0324\my_ch582m\ch582m\obj/../Code/my_tool.c:72 (discriminator 1)
                    for (int j = 0; j < size; j++) {
    1738:	fd694ee3          	blt	s2,s6,1714 <muti_printf_arrays+0xb2>
    173c:	b765                	j	16e4 <muti_printf_arrays+0x82>

0000173e <__extendsfdf2>:
__extendsfdf2():
    173e:	01755713          	srli	a4,a0,0x17
    1742:	0ff77713          	andi	a4,a4,255
    1746:	1141                	addi	sp,sp,-16
    1748:	00170793          	addi	a5,a4,1
    174c:	c422                	sw	s0,8(sp)
    174e:	c226                	sw	s1,4(sp)
    1750:	00951413          	slli	s0,a0,0x9
    1754:	c606                	sw	ra,12(sp)
    1756:	0fe7f793          	andi	a5,a5,254
    175a:	8025                	srli	s0,s0,0x9
    175c:	01f55493          	srli	s1,a0,0x1f
    1760:	c785                	beqz	a5,1788 <__extendsfdf2+0x4a>
    1762:	00345793          	srli	a5,s0,0x3
    1766:	38070713          	addi	a4,a4,896
    176a:	0476                	slli	s0,s0,0x1d
    176c:	07b2                	slli	a5,a5,0xc
    176e:	0752                	slli	a4,a4,0x14
    1770:	83b1                	srli	a5,a5,0xc
    1772:	01f49513          	slli	a0,s1,0x1f
    1776:	8fd9                	or	a5,a5,a4
    1778:	8fc9                	or	a5,a5,a0
    177a:	40b2                	lw	ra,12(sp)
    177c:	8522                	mv	a0,s0
    177e:	4422                	lw	s0,8(sp)
    1780:	4492                	lw	s1,4(sp)
    1782:	85be                	mv	a1,a5
    1784:	0141                	addi	sp,sp,16
    1786:	8082                	ret
    1788:	eb05                	bnez	a4,17b8 <__extendsfdf2+0x7a>
    178a:	c439                	beqz	s0,17d8 <__extendsfdf2+0x9a>
    178c:	8522                	mv	a0,s0
    178e:	28b1                	jal	17ea <__clzsi2>
    1790:	47a9                	li	a5,10
    1792:	04a7c663          	blt	a5,a0,17de <__extendsfdf2+0xa0>
    1796:	472d                	li	a4,11
    1798:	8f09                	sub	a4,a4,a0
    179a:	01550793          	addi	a5,a0,21
    179e:	00e45733          	srl	a4,s0,a4
    17a2:	00f41433          	sll	s0,s0,a5
    17a6:	00c71793          	slli	a5,a4,0xc
    17aa:	38900713          	li	a4,905
    17ae:	8f09                	sub	a4,a4,a0
    17b0:	83b1                	srli	a5,a5,0xc
    17b2:	7ff77713          	andi	a4,a4,2047
    17b6:	bf5d                	j	176c <__extendsfdf2+0x2e>
    17b8:	cc01                	beqz	s0,17d0 <__extendsfdf2+0x92>
    17ba:	00345713          	srli	a4,s0,0x3
    17be:	000807b7          	lui	a5,0x80
    17c2:	8fd9                	or	a5,a5,a4
    17c4:	07b2                	slli	a5,a5,0xc
    17c6:	0476                	slli	s0,s0,0x1d
    17c8:	83b1                	srli	a5,a5,0xc
    17ca:	7ff00713          	li	a4,2047
    17ce:	bf79                	j	176c <__extendsfdf2+0x2e>
    17d0:	7ff00713          	li	a4,2047
    17d4:	4781                	li	a5,0
    17d6:	bf59                	j	176c <__extendsfdf2+0x2e>
    17d8:	4701                	li	a4,0
    17da:	4781                	li	a5,0
    17dc:	bf41                	j	176c <__extendsfdf2+0x2e>
    17de:	ff550713          	addi	a4,a0,-11
    17e2:	00e41733          	sll	a4,s0,a4
    17e6:	4401                	li	s0,0
    17e8:	bf7d                	j	17a6 <__extendsfdf2+0x68>

000017ea <__clzsi2>:
__clzsi2():
    17ea:	67c1                	lui	a5,0x10
    17ec:	02f57e63          	bgeu	a0,a5,1828 <__clzsi2+0x3e>
    17f0:	0ff00793          	li	a5,255
    17f4:	02000713          	li	a4,32
    17f8:	00a7ec63          	bltu	a5,a0,1810 <__clzsi2+0x26>
    17fc:	00001797          	auipc	a5,0x1
    1800:	75c78793          	addi	a5,a5,1884 # 2f58 <__clz_tab>
    1804:	97aa                	add	a5,a5,a0
    1806:	0007c503          	lbu	a0,0(a5)
    180a:	40a70533          	sub	a0,a4,a0
    180e:	8082                	ret
    1810:	8121                	srli	a0,a0,0x8
    1812:	00001797          	auipc	a5,0x1
    1816:	74678793          	addi	a5,a5,1862 # 2f58 <__clz_tab>
    181a:	97aa                	add	a5,a5,a0
    181c:	0007c503          	lbu	a0,0(a5)
    1820:	4761                	li	a4,24
    1822:	40a70533          	sub	a0,a4,a0
    1826:	8082                	ret
    1828:	010007b7          	lui	a5,0x1000
    182c:	00f56e63          	bltu	a0,a5,1848 <__clzsi2+0x5e>
    1830:	8161                	srli	a0,a0,0x18
    1832:	00001797          	auipc	a5,0x1
    1836:	72678793          	addi	a5,a5,1830 # 2f58 <__clz_tab>
    183a:	97aa                	add	a5,a5,a0
    183c:	0007c503          	lbu	a0,0(a5)
    1840:	4721                	li	a4,8
    1842:	40a70533          	sub	a0,a4,a0
    1846:	8082                	ret
    1848:	8141                	srli	a0,a0,0x10
    184a:	00001797          	auipc	a5,0x1
    184e:	70e78793          	addi	a5,a5,1806 # 2f58 <__clz_tab>
    1852:	97aa                	add	a5,a5,a0
    1854:	0007c503          	lbu	a0,0(a5)
    1858:	4741                	li	a4,16
    185a:	40a70533          	sub	a0,a4,a0
    185e:	8082                	ret

00001860 <memcpy>:
memcpy():
    1860:	00a5c7b3          	xor	a5,a1,a0
    1864:	8b8d                	andi	a5,a5,3
    1866:	00c50733          	add	a4,a0,a2
    186a:	e781                	bnez	a5,1872 <memcpy+0x12>
    186c:	478d                	li	a5,3
    186e:	00c7ee63          	bltu	a5,a2,188a <memcpy+0x2a>
    1872:	87aa                	mv	a5,a0
    1874:	0ae57063          	bgeu	a0,a4,1914 <memcpy+0xb4>
    1878:	0005c683          	lbu	a3,0(a1)
    187c:	0785                	addi	a5,a5,1
    187e:	0585                	addi	a1,a1,1
    1880:	fed78fa3          	sb	a3,-1(a5)
    1884:	fee7eae3          	bltu	a5,a4,1878 <memcpy+0x18>
    1888:	8082                	ret
    188a:	00357693          	andi	a3,a0,3
    188e:	87aa                	mv	a5,a0
    1890:	ca91                	beqz	a3,18a4 <memcpy+0x44>
    1892:	0005c683          	lbu	a3,0(a1)
    1896:	0785                	addi	a5,a5,1
    1898:	0585                	addi	a1,a1,1
    189a:	fed78fa3          	sb	a3,-1(a5)
    189e:	0037f693          	andi	a3,a5,3
    18a2:	b7fd                	j	1890 <memcpy+0x30>
    18a4:	ffc77693          	andi	a3,a4,-4
    18a8:	fe068613          	addi	a2,a3,-32
    18ac:	06c7f063          	bgeu	a5,a2,190c <memcpy+0xac>
    18b0:	0005a383          	lw	t2,0(a1)
    18b4:	0045a283          	lw	t0,4(a1)
    18b8:	0085af83          	lw	t6,8(a1)
    18bc:	00c5af03          	lw	t5,12(a1)
    18c0:	0105ae83          	lw	t4,16(a1)
    18c4:	0145ae03          	lw	t3,20(a1)
    18c8:	0185a303          	lw	t1,24(a1)
    18cc:	01c5a883          	lw	a7,28(a1)
    18d0:	02458593          	addi	a1,a1,36
    18d4:	0077a023          	sw	t2,0(a5)
    18d8:	ffc5a803          	lw	a6,-4(a1)
    18dc:	0057a223          	sw	t0,4(a5)
    18e0:	01f7a423          	sw	t6,8(a5)
    18e4:	01e7a623          	sw	t5,12(a5)
    18e8:	01d7a823          	sw	t4,16(a5)
    18ec:	01c7aa23          	sw	t3,20(a5)
    18f0:	0067ac23          	sw	t1,24(a5)
    18f4:	0117ae23          	sw	a7,28(a5)
    18f8:	02478793          	addi	a5,a5,36
    18fc:	ff07ae23          	sw	a6,-4(a5)
    1900:	b775                	j	18ac <memcpy+0x4c>
    1902:	4190                	lw	a2,0(a1)
    1904:	0791                	addi	a5,a5,4
    1906:	0591                	addi	a1,a1,4
    1908:	fec7ae23          	sw	a2,-4(a5)
    190c:	fed7ebe3          	bltu	a5,a3,1902 <memcpy+0xa2>
    1910:	f6e7e4e3          	bltu	a5,a4,1878 <memcpy+0x18>
    1914:	8082                	ret

00001916 <iprintf>:
printf():
    1916:	7139                	addi	sp,sp,-64
    1918:	da3e                	sw	a5,52(sp)
    191a:	d22e                	sw	a1,36(sp)
    191c:	d432                	sw	a2,40(sp)
    191e:	d636                	sw	a3,44(sp)
    1920:	d83a                	sw	a4,48(sp)
    1922:	dc42                	sw	a6,56(sp)
    1924:	de46                	sw	a7,60(sp)
    1926:	1ffff797          	auipc	a5,0x1ffff
    192a:	36e78793          	addi	a5,a5,878 # 20000c94 <_impure_ptr>
    192e:	cc22                	sw	s0,24(sp)
    1930:	4380                	lw	s0,0(a5)
    1932:	ca26                	sw	s1,20(sp)
    1934:	ce06                	sw	ra,28(sp)
    1936:	84aa                	mv	s1,a0
    1938:	c409                	beqz	s0,1942 <iprintf+0x2c>
    193a:	4c1c                	lw	a5,24(s0)
    193c:	e399                	bnez	a5,1942 <iprintf+0x2c>
    193e:	8522                	mv	a0,s0
    1940:	229d                	jal	1aa6 <__sinit>
    1942:	440c                	lw	a1,8(s0)
    1944:	1054                	addi	a3,sp,36
    1946:	8626                	mv	a2,s1
    1948:	8522                	mv	a0,s0
    194a:	c636                	sw	a3,12(sp)
    194c:	77a000ef          	jal	ra,20c6 <_vfiprintf_r>
    1950:	40f2                	lw	ra,28(sp)
    1952:	4462                	lw	s0,24(sp)
    1954:	44d2                	lw	s1,20(sp)
    1956:	6121                	addi	sp,sp,64
    1958:	8082                	ret

0000195a <sniprintf>:
snprintf():
    195a:	7135                	addi	sp,sp,-160
    195c:	cb3e                	sw	a5,148(sp)
    195e:	daa6                	sw	s1,116(sp)
    1960:	c736                	sw	a3,140(sp)
    1962:	c93a                	sw	a4,144(sp)
    1964:	cd42                	sw	a6,152(sp)
    1966:	cf46                	sw	a7,156(sp)
    1968:	1ffff797          	auipc	a5,0x1ffff
    196c:	32c78793          	addi	a5,a5,812 # 20000c94 <_impure_ptr>
    1970:	de86                	sw	ra,124(sp)
    1972:	dca2                	sw	s0,120(sp)
    1974:	4384                	lw	s1,0(a5)
    1976:	0005db63          	bgez	a1,198c <sniprintf+0x32>
    197a:	08b00793          	li	a5,139
    197e:	c09c                	sw	a5,0(s1)
    1980:	557d                	li	a0,-1
    1982:	50f6                	lw	ra,124(sp)
    1984:	5466                	lw	s0,120(sp)
    1986:	54d6                	lw	s1,116(sp)
    1988:	610d                	addi	sp,sp,160
    198a:	8082                	ret
    198c:	20800793          	li	a5,520
    1990:	00f11a23          	sh	a5,20(sp)
    1994:	c42a                	sw	a0,8(sp)
    1996:	cc2a                	sw	a0,24(sp)
    1998:	4781                	li	a5,0
    199a:	c199                	beqz	a1,19a0 <sniprintf+0x46>
    199c:	fff58793          	addi	a5,a1,-1
    19a0:	c83e                	sw	a5,16(sp)
    19a2:	ce3e                	sw	a5,28(sp)
    19a4:	0174                	addi	a3,sp,140
    19a6:	57fd                	li	a5,-1
    19a8:	842e                	mv	s0,a1
    19aa:	8526                	mv	a0,s1
    19ac:	002c                	addi	a1,sp,8
    19ae:	00f11b23          	sh	a5,22(sp)
    19b2:	c236                	sw	a3,4(sp)
    19b4:	2135                	jal	1de0 <_svfiprintf_r>
    19b6:	57fd                	li	a5,-1
    19b8:	00f55563          	bge	a0,a5,19c2 <sniprintf+0x68>
    19bc:	08b00793          	li	a5,139
    19c0:	c09c                	sw	a5,0(s1)
    19c2:	d061                	beqz	s0,1982 <sniprintf+0x28>
    19c4:	47a2                	lw	a5,8(sp)
    19c6:	00078023          	sb	zero,0(a5)
    19ca:	bf65                	j	1982 <sniprintf+0x28>

000019cc <strcat>:
strcat():
    19cc:	87aa                	mv	a5,a0
    19ce:	0007c703          	lbu	a4,0(a5)
    19d2:	00178693          	addi	a3,a5,1
    19d6:	eb09                	bnez	a4,19e8 <strcat+0x1c>
    19d8:	0585                	addi	a1,a1,1
    19da:	fff5c703          	lbu	a4,-1(a1)
    19de:	0785                	addi	a5,a5,1
    19e0:	fee78fa3          	sb	a4,-1(a5)
    19e4:	fb75                	bnez	a4,19d8 <strcat+0xc>
    19e6:	8082                	ret
    19e8:	87b6                	mv	a5,a3
    19ea:	b7d5                	j	19ce <strcat+0x2>

000019ec <std>:
std():
    19ec:	1141                	addi	sp,sp,-16
    19ee:	c422                	sw	s0,8(sp)
    19f0:	c606                	sw	ra,12(sp)
    19f2:	842a                	mv	s0,a0
    19f4:	00b51623          	sh	a1,12(a0)
    19f8:	00c51723          	sh	a2,14(a0)
    19fc:	00052023          	sw	zero,0(a0)
    1a00:	00052223          	sw	zero,4(a0)
    1a04:	00052423          	sw	zero,8(a0)
    1a08:	06052223          	sw	zero,100(a0)
    1a0c:	00052823          	sw	zero,16(a0)
    1a10:	00052a23          	sw	zero,20(a0)
    1a14:	00052c23          	sw	zero,24(a0)
    1a18:	4621                	li	a2,8
    1a1a:	4581                	li	a1,0
    1a1c:	05c50513          	addi	a0,a0,92
    1a20:	abeff0ef          	jal	ra,cde <memset>
    1a24:	00001797          	auipc	a5,0x1
    1a28:	d2078793          	addi	a5,a5,-736 # 2744 <__sread>
    1a2c:	d05c                	sw	a5,36(s0)
    1a2e:	00001797          	auipc	a5,0x1
    1a32:	d4678793          	addi	a5,a5,-698 # 2774 <__swrite>
    1a36:	d41c                	sw	a5,40(s0)
    1a38:	00001797          	auipc	a5,0x1
    1a3c:	d8a78793          	addi	a5,a5,-630 # 27c2 <__sseek>
    1a40:	d45c                	sw	a5,44(s0)
    1a42:	00001797          	auipc	a5,0x1
    1a46:	db678793          	addi	a5,a5,-586 # 27f8 <__sclose>
    1a4a:	d000                	sw	s0,32(s0)
    1a4c:	d81c                	sw	a5,48(s0)
    1a4e:	40b2                	lw	ra,12(sp)
    1a50:	4422                	lw	s0,8(sp)
    1a52:	0141                	addi	sp,sp,16
    1a54:	8082                	ret

00001a56 <_cleanup_r>:
_cleanup_r():
    1a56:	00001597          	auipc	a1,0x1
    1a5a:	10e58593          	addi	a1,a1,270 # 2b64 <_fflush_r>
    1a5e:	aa89                	j	1bb0 <_fwalk_reent>

00001a60 <__sfmoreglue>:
__sfmoreglue():
    1a60:	1141                	addi	sp,sp,-16
    1a62:	c226                	sw	s1,4(sp)
    1a64:	06800613          	li	a2,104
    1a68:	fff58493          	addi	s1,a1,-1
    1a6c:	02c484b3          	mul	s1,s1,a2
    1a70:	c04a                	sw	s2,0(sp)
    1a72:	892e                	mv	s2,a1
    1a74:	c422                	sw	s0,8(sp)
    1a76:	c606                	sw	ra,12(sp)
    1a78:	07448593          	addi	a1,s1,116
    1a7c:	2245                	jal	1c1c <_malloc_r>
    1a7e:	842a                	mv	s0,a0
    1a80:	cd01                	beqz	a0,1a98 <__sfmoreglue+0x38>
    1a82:	00052023          	sw	zero,0(a0)
    1a86:	01252223          	sw	s2,4(a0)
    1a8a:	0531                	addi	a0,a0,12
    1a8c:	c408                	sw	a0,8(s0)
    1a8e:	06848613          	addi	a2,s1,104
    1a92:	4581                	li	a1,0
    1a94:	a4aff0ef          	jal	ra,cde <memset>
    1a98:	8522                	mv	a0,s0
    1a9a:	40b2                	lw	ra,12(sp)
    1a9c:	4422                	lw	s0,8(sp)
    1a9e:	4492                	lw	s1,4(sp)
    1aa0:	4902                	lw	s2,0(sp)
    1aa2:	0141                	addi	sp,sp,16
    1aa4:	8082                	ret

00001aa6 <__sinit>:
__sinit():
    1aa6:	4d1c                	lw	a5,24(a0)
    1aa8:	e3bd                	bnez	a5,1b0e <__sinit+0x68>
    1aaa:	1141                	addi	sp,sp,-16
    1aac:	c606                	sw	ra,12(sp)
    1aae:	c422                	sw	s0,8(sp)
    1ab0:	00000797          	auipc	a5,0x0
    1ab4:	fa678793          	addi	a5,a5,-90 # 1a56 <_cleanup_r>
    1ab8:	d51c                	sw	a5,40(a0)
    1aba:	00001797          	auipc	a5,0x1
    1abe:	63a78793          	addi	a5,a5,1594 # 30f4 <_global_impure_ptr>
    1ac2:	439c                	lw	a5,0(a5)
    1ac4:	04052423          	sw	zero,72(a0)
    1ac8:	04052623          	sw	zero,76(a0)
    1acc:	04052823          	sw	zero,80(a0)
    1ad0:	00f51463          	bne	a0,a5,1ad8 <__sinit+0x32>
    1ad4:	4785                	li	a5,1
    1ad6:	cd1c                	sw	a5,24(a0)
    1ad8:	842a                	mv	s0,a0
    1ada:	281d                	jal	1b10 <__sfp>
    1adc:	c048                	sw	a0,4(s0)
    1ade:	8522                	mv	a0,s0
    1ae0:	2805                	jal	1b10 <__sfp>
    1ae2:	c408                	sw	a0,8(s0)
    1ae4:	8522                	mv	a0,s0
    1ae6:	202d                	jal	1b10 <__sfp>
    1ae8:	c448                	sw	a0,12(s0)
    1aea:	4048                	lw	a0,4(s0)
    1aec:	4601                	li	a2,0
    1aee:	4591                	li	a1,4
    1af0:	3df5                	jal	19ec <std>
    1af2:	4408                	lw	a0,8(s0)
    1af4:	4605                	li	a2,1
    1af6:	45a5                	li	a1,9
    1af8:	3dd5                	jal	19ec <std>
    1afa:	4448                	lw	a0,12(s0)
    1afc:	4609                	li	a2,2
    1afe:	45c9                	li	a1,18
    1b00:	35f5                	jal	19ec <std>
    1b02:	4785                	li	a5,1
    1b04:	cc1c                	sw	a5,24(s0)
    1b06:	40b2                	lw	ra,12(sp)
    1b08:	4422                	lw	s0,8(sp)
    1b0a:	0141                	addi	sp,sp,16
    1b0c:	8082                	ret
    1b0e:	8082                	ret

00001b10 <__sfp>:
__sfp():
    1b10:	1141                	addi	sp,sp,-16
    1b12:	00001797          	auipc	a5,0x1
    1b16:	5e278793          	addi	a5,a5,1506 # 30f4 <_global_impure_ptr>
    1b1a:	c226                	sw	s1,4(sp)
    1b1c:	4384                	lw	s1,0(a5)
    1b1e:	c04a                	sw	s2,0(sp)
    1b20:	c606                	sw	ra,12(sp)
    1b22:	4c9c                	lw	a5,24(s1)
    1b24:	c422                	sw	s0,8(sp)
    1b26:	892a                	mv	s2,a0
    1b28:	e399                	bnez	a5,1b2e <__sfp+0x1e>
    1b2a:	8526                	mv	a0,s1
    1b2c:	3fad                	jal	1aa6 <__sinit>
    1b2e:	04848493          	addi	s1,s1,72
    1b32:	4480                	lw	s0,8(s1)
    1b34:	40dc                	lw	a5,4(s1)
    1b36:	17fd                	addi	a5,a5,-1
    1b38:	0007d663          	bgez	a5,1b44 <__sfp+0x34>
    1b3c:	409c                	lw	a5,0(s1)
    1b3e:	cfb9                	beqz	a5,1b9c <__sfp+0x8c>
    1b40:	4084                	lw	s1,0(s1)
    1b42:	bfc5                	j	1b32 <__sfp+0x22>
    1b44:	00c41703          	lh	a4,12(s0)
    1b48:	e739                	bnez	a4,1b96 <__sfp+0x86>
    1b4a:	77c1                	lui	a5,0xffff0
    1b4c:	0785                	addi	a5,a5,1
    1b4e:	06042223          	sw	zero,100(s0)
    1b52:	00042023          	sw	zero,0(s0)
    1b56:	00042223          	sw	zero,4(s0)
    1b5a:	00042423          	sw	zero,8(s0)
    1b5e:	c45c                	sw	a5,12(s0)
    1b60:	00042823          	sw	zero,16(s0)
    1b64:	00042a23          	sw	zero,20(s0)
    1b68:	00042c23          	sw	zero,24(s0)
    1b6c:	4621                	li	a2,8
    1b6e:	4581                	li	a1,0
    1b70:	05c40513          	addi	a0,s0,92
    1b74:	96aff0ef          	jal	ra,cde <memset>
    1b78:	02042a23          	sw	zero,52(s0)
    1b7c:	02042c23          	sw	zero,56(s0)
    1b80:	04042423          	sw	zero,72(s0)
    1b84:	04042623          	sw	zero,76(s0)
    1b88:	8522                	mv	a0,s0
    1b8a:	40b2                	lw	ra,12(sp)
    1b8c:	4422                	lw	s0,8(sp)
    1b8e:	4492                	lw	s1,4(sp)
    1b90:	4902                	lw	s2,0(sp)
    1b92:	0141                	addi	sp,sp,16
    1b94:	8082                	ret
    1b96:	06840413          	addi	s0,s0,104
    1b9a:	bf71                	j	1b36 <__sfp+0x26>
    1b9c:	4591                	li	a1,4
    1b9e:	854a                	mv	a0,s2
    1ba0:	35c1                	jal	1a60 <__sfmoreglue>
    1ba2:	c088                	sw	a0,0(s1)
    1ba4:	fd51                	bnez	a0,1b40 <__sfp+0x30>
    1ba6:	47b1                	li	a5,12
    1ba8:	00f92023          	sw	a5,0(s2)
    1bac:	4401                	li	s0,0
    1bae:	bfe9                	j	1b88 <__sfp+0x78>

00001bb0 <_fwalk_reent>:
_fwalk_reent():
    1bb0:	7179                	addi	sp,sp,-48
    1bb2:	d422                	sw	s0,40(sp)
    1bb4:	d04a                	sw	s2,32(sp)
    1bb6:	cc52                	sw	s4,24(sp)
    1bb8:	ca56                	sw	s5,20(sp)
    1bba:	c85a                	sw	s6,16(sp)
    1bbc:	c65e                	sw	s7,12(sp)
    1bbe:	d606                	sw	ra,44(sp)
    1bc0:	d226                	sw	s1,36(sp)
    1bc2:	ce4e                	sw	s3,28(sp)
    1bc4:	8a2a                	mv	s4,a0
    1bc6:	8aae                	mv	s5,a1
    1bc8:	04850413          	addi	s0,a0,72
    1bcc:	4901                	li	s2,0
    1bce:	4b05                	li	s6,1
    1bd0:	5bfd                	li	s7,-1
    1bd2:	ec09                	bnez	s0,1bec <_fwalk_reent+0x3c>
    1bd4:	50b2                	lw	ra,44(sp)
    1bd6:	5422                	lw	s0,40(sp)
    1bd8:	854a                	mv	a0,s2
    1bda:	5492                	lw	s1,36(sp)
    1bdc:	5902                	lw	s2,32(sp)
    1bde:	49f2                	lw	s3,28(sp)
    1be0:	4a62                	lw	s4,24(sp)
    1be2:	4ad2                	lw	s5,20(sp)
    1be4:	4b42                	lw	s6,16(sp)
    1be6:	4bb2                	lw	s7,12(sp)
    1be8:	6145                	addi	sp,sp,48
    1bea:	8082                	ret
    1bec:	4404                	lw	s1,8(s0)
    1bee:	00442983          	lw	s3,4(s0)
    1bf2:	19fd                	addi	s3,s3,-1
    1bf4:	0009d463          	bgez	s3,1bfc <_fwalk_reent+0x4c>
    1bf8:	4000                	lw	s0,0(s0)
    1bfa:	bfe1                	j	1bd2 <_fwalk_reent+0x22>
    1bfc:	00c4d783          	lhu	a5,12(s1)
    1c00:	00fb7b63          	bgeu	s6,a5,1c16 <_fwalk_reent+0x66>
    1c04:	00e49783          	lh	a5,14(s1)
    1c08:	01778763          	beq	a5,s7,1c16 <_fwalk_reent+0x66>
    1c0c:	85a6                	mv	a1,s1
    1c0e:	8552                	mv	a0,s4
    1c10:	9a82                	jalr	s5
    1c12:	00a96933          	or	s2,s2,a0
    1c16:	06848493          	addi	s1,s1,104
    1c1a:	bfe1                	j	1bf2 <_fwalk_reent+0x42>

00001c1c <_malloc_r>:
_malloc_r():
    1c1c:	1101                	addi	sp,sp,-32
    1c1e:	ca26                	sw	s1,20(sp)
    1c20:	00358493          	addi	s1,a1,3
    1c24:	98f1                	andi	s1,s1,-4
    1c26:	ce06                	sw	ra,28(sp)
    1c28:	cc22                	sw	s0,24(sp)
    1c2a:	c84a                	sw	s2,16(sp)
    1c2c:	c64e                	sw	s3,12(sp)
    1c2e:	04a1                	addi	s1,s1,8
    1c30:	47b1                	li	a5,12
    1c32:	04f4f563          	bgeu	s1,a5,1c7c <_malloc_r+0x60>
    1c36:	44b1                	li	s1,12
    1c38:	04b4e463          	bltu	s1,a1,1c80 <_malloc_r+0x64>
    1c3c:	892a                	mv	s2,a0
    1c3e:	112010ef          	jal	ra,2d50 <__malloc_lock>
    1c42:	83018793          	addi	a5,gp,-2000 # 20000cc0 <__malloc_free_list>
    1c46:	4398                	lw	a4,0(a5)
    1c48:	843a                	mv	s0,a4
    1c4a:	e429                	bnez	s0,1c94 <_malloc_r+0x78>
    1c4c:	83418793          	addi	a5,gp,-1996 # 20000cc4 <__malloc_sbrk_start>
    1c50:	439c                	lw	a5,0(a5)
    1c52:	e799                	bnez	a5,1c60 <_malloc_r+0x44>
    1c54:	4581                	li	a1,0
    1c56:	854a                	mv	a0,s2
    1c58:	2c3000ef          	jal	ra,271a <_sbrk_r>
    1c5c:	82a1aa23          	sw	a0,-1996(gp) # 20000cc4 <__malloc_sbrk_start>
    1c60:	85a6                	mv	a1,s1
    1c62:	854a                	mv	a0,s2
    1c64:	2b7000ef          	jal	ra,271a <_sbrk_r>
    1c68:	59fd                	li	s3,-1
    1c6a:	07351963          	bne	a0,s3,1cdc <_malloc_r+0xc0>
    1c6e:	47b1                	li	a5,12
    1c70:	00f92023          	sw	a5,0(s2)
    1c74:	854a                	mv	a0,s2
    1c76:	0dc010ef          	jal	ra,2d52 <__malloc_unlock>
    1c7a:	a029                	j	1c84 <_malloc_r+0x68>
    1c7c:	fa04dee3          	bgez	s1,1c38 <_malloc_r+0x1c>
    1c80:	47b1                	li	a5,12
    1c82:	c11c                	sw	a5,0(a0)
    1c84:	4501                	li	a0,0
    1c86:	40f2                	lw	ra,28(sp)
    1c88:	4462                	lw	s0,24(sp)
    1c8a:	44d2                	lw	s1,20(sp)
    1c8c:	4942                	lw	s2,16(sp)
    1c8e:	49b2                	lw	s3,12(sp)
    1c90:	6105                	addi	sp,sp,32
    1c92:	8082                	ret
    1c94:	401c                	lw	a5,0(s0)
    1c96:	8f85                	sub	a5,a5,s1
    1c98:	0207cf63          	bltz	a5,1cd6 <_malloc_r+0xba>
    1c9c:	46ad                	li	a3,11
    1c9e:	00f6f663          	bgeu	a3,a5,1caa <_malloc_r+0x8e>
    1ca2:	c01c                	sw	a5,0(s0)
    1ca4:	943e                	add	s0,s0,a5
    1ca6:	c004                	sw	s1,0(s0)
    1ca8:	a031                	j	1cb4 <_malloc_r+0x98>
    1caa:	405c                	lw	a5,4(s0)
    1cac:	02871363          	bne	a4,s0,1cd2 <_malloc_r+0xb6>
    1cb0:	82f1a823          	sw	a5,-2000(gp) # 20000cc0 <__malloc_free_list>
    1cb4:	854a                	mv	a0,s2
    1cb6:	09c010ef          	jal	ra,2d52 <__malloc_unlock>
    1cba:	00b40513          	addi	a0,s0,11
    1cbe:	00440793          	addi	a5,s0,4
    1cc2:	9961                	andi	a0,a0,-8
    1cc4:	40f50733          	sub	a4,a0,a5
    1cc8:	df5d                	beqz	a4,1c86 <_malloc_r+0x6a>
    1cca:	943a                	add	s0,s0,a4
    1ccc:	8f89                	sub	a5,a5,a0
    1cce:	c01c                	sw	a5,0(s0)
    1cd0:	bf5d                	j	1c86 <_malloc_r+0x6a>
    1cd2:	c35c                	sw	a5,4(a4)
    1cd4:	b7c5                	j	1cb4 <_malloc_r+0x98>
    1cd6:	8722                	mv	a4,s0
    1cd8:	4040                	lw	s0,4(s0)
    1cda:	bf85                	j	1c4a <_malloc_r+0x2e>
    1cdc:	00350413          	addi	s0,a0,3
    1ce0:	9871                	andi	s0,s0,-4
    1ce2:	fc8502e3          	beq	a0,s0,1ca6 <_malloc_r+0x8a>
    1ce6:	40a405b3          	sub	a1,s0,a0
    1cea:	854a                	mv	a0,s2
    1cec:	22f000ef          	jal	ra,271a <_sbrk_r>
    1cf0:	fb351be3          	bne	a0,s3,1ca6 <_malloc_r+0x8a>
    1cf4:	bfad                	j	1c6e <_malloc_r+0x52>

00001cf6 <__ssputs_r>:
__ssputs_r():
    1cf6:	1101                	addi	sp,sp,-32
    1cf8:	c84a                	sw	s2,16(sp)
    1cfa:	0085a903          	lw	s2,8(a1)
    1cfe:	cc22                	sw	s0,24(sp)
    1d00:	c452                	sw	s4,8(sp)
    1d02:	c05a                	sw	s6,0(sp)
    1d04:	ce06                	sw	ra,28(sp)
    1d06:	ca26                	sw	s1,20(sp)
    1d08:	c64e                	sw	s3,12(sp)
    1d0a:	c256                	sw	s5,4(sp)
    1d0c:	842e                	mv	s0,a1
    1d0e:	8b32                	mv	s6,a2
    1d10:	8a36                	mv	s4,a3
    1d12:	0926ec63          	bltu	a3,s2,1daa <__ssputs_r+0xb4>
    1d16:	00c5d783          	lhu	a5,12(a1)
    1d1a:	4807f713          	andi	a4,a5,1152
    1d1e:	c741                	beqz	a4,1da6 <__ssputs_r+0xb0>
    1d20:	4004                	lw	s1,0(s0)
    1d22:	498c                	lw	a1,16(a1)
    1d24:	4858                	lw	a4,20(s0)
    1d26:	8aaa                	mv	s5,a0
    1d28:	40b489b3          	sub	s3,s1,a1
    1d2c:	448d                	li	s1,3
    1d2e:	02e484b3          	mul	s1,s1,a4
    1d32:	4709                	li	a4,2
    1d34:	02e4c4b3          	div	s1,s1,a4
    1d38:	00168713          	addi	a4,a3,1
    1d3c:	974e                	add	a4,a4,s3
    1d3e:	00e4f363          	bgeu	s1,a4,1d44 <__ssputs_r+0x4e>
    1d42:	84ba                	mv	s1,a4
    1d44:	4007f793          	andi	a5,a5,1024
    1d48:	c3c9                	beqz	a5,1dca <__ssputs_r+0xd4>
    1d4a:	85a6                	mv	a1,s1
    1d4c:	8556                	mv	a0,s5
    1d4e:	35f9                	jal	1c1c <_malloc_r>
    1d50:	892a                	mv	s2,a0
    1d52:	e50d                	bnez	a0,1d7c <__ssputs_r+0x86>
    1d54:	47b1                	li	a5,12
    1d56:	00faa023          	sw	a5,0(s5)
    1d5a:	00c45783          	lhu	a5,12(s0)
    1d5e:	557d                	li	a0,-1
    1d60:	0407e793          	ori	a5,a5,64
    1d64:	00f41623          	sh	a5,12(s0)
    1d68:	40f2                	lw	ra,28(sp)
    1d6a:	4462                	lw	s0,24(sp)
    1d6c:	44d2                	lw	s1,20(sp)
    1d6e:	4942                	lw	s2,16(sp)
    1d70:	49b2                	lw	s3,12(sp)
    1d72:	4a22                	lw	s4,8(sp)
    1d74:	4a92                	lw	s5,4(sp)
    1d76:	4b02                	lw	s6,0(sp)
    1d78:	6105                	addi	sp,sp,32
    1d7a:	8082                	ret
    1d7c:	480c                	lw	a1,16(s0)
    1d7e:	864e                	mv	a2,s3
    1d80:	34c5                	jal	1860 <memcpy>
    1d82:	00c45783          	lhu	a5,12(s0)
    1d86:	b7f7f793          	andi	a5,a5,-1153
    1d8a:	0807e793          	ori	a5,a5,128
    1d8e:	00f41623          	sh	a5,12(s0)
    1d92:	01242823          	sw	s2,16(s0)
    1d96:	c844                	sw	s1,20(s0)
    1d98:	994e                	add	s2,s2,s3
    1d9a:	413484b3          	sub	s1,s1,s3
    1d9e:	01242023          	sw	s2,0(s0)
    1da2:	c404                	sw	s1,8(s0)
    1da4:	8952                	mv	s2,s4
    1da6:	012a7363          	bgeu	s4,s2,1dac <__ssputs_r+0xb6>
    1daa:	8952                	mv	s2,s4
    1dac:	4008                	lw	a0,0(s0)
    1dae:	864a                	mv	a2,s2
    1db0:	85da                	mv	a1,s6
    1db2:	755000ef          	jal	ra,2d06 <memmove>
    1db6:	441c                	lw	a5,8(s0)
    1db8:	4501                	li	a0,0
    1dba:	412787b3          	sub	a5,a5,s2
    1dbe:	c41c                	sw	a5,8(s0)
    1dc0:	401c                	lw	a5,0(s0)
    1dc2:	993e                	add	s2,s2,a5
    1dc4:	01242023          	sw	s2,0(s0)
    1dc8:	b745                	j	1d68 <__ssputs_r+0x72>
    1dca:	8626                	mv	a2,s1
    1dcc:	8556                	mv	a0,s5
    1dce:	02a010ef          	jal	ra,2df8 <_realloc_r>
    1dd2:	892a                	mv	s2,a0
    1dd4:	fd5d                	bnez	a0,1d92 <__ssputs_r+0x9c>
    1dd6:	480c                	lw	a1,16(s0)
    1dd8:	8556                	mv	a0,s5
    1dda:	77b000ef          	jal	ra,2d54 <_free_r>
    1dde:	bf9d                	j	1d54 <__ssputs_r+0x5e>

00001de0 <_svfiprintf_r>:
_svfprintf_r():
    1de0:	00c5d783          	lhu	a5,12(a1)
    1de4:	7171                	addi	sp,sp,-176
    1de6:	d326                	sw	s1,164(sp)
    1de8:	d14a                	sw	s2,160(sp)
    1dea:	cf4e                	sw	s3,156(sp)
    1dec:	d706                	sw	ra,172(sp)
    1dee:	d522                	sw	s0,168(sp)
    1df0:	cd52                	sw	s4,152(sp)
    1df2:	cb56                	sw	s5,148(sp)
    1df4:	c95a                	sw	s6,144(sp)
    1df6:	c75e                	sw	s7,140(sp)
    1df8:	c562                	sw	s8,136(sp)
    1dfa:	c366                	sw	s9,132(sp)
    1dfc:	0807f793          	andi	a5,a5,128
    1e00:	89aa                	mv	s3,a0
    1e02:	892e                	mv	s2,a1
    1e04:	84b2                	mv	s1,a2
    1e06:	c3b1                	beqz	a5,1e4a <_svfiprintf_r+0x6a>
    1e08:	499c                	lw	a5,16(a1)
    1e0a:	e3a1                	bnez	a5,1e4a <_svfiprintf_r+0x6a>
    1e0c:	04000593          	li	a1,64
    1e10:	c636                	sw	a3,12(sp)
    1e12:	3529                	jal	1c1c <_malloc_r>
    1e14:	00a92023          	sw	a0,0(s2)
    1e18:	00a92823          	sw	a0,16(s2)
    1e1c:	46b2                	lw	a3,12(sp)
    1e1e:	e115                	bnez	a0,1e42 <_svfiprintf_r+0x62>
    1e20:	47b1                	li	a5,12
    1e22:	00f9a023          	sw	a5,0(s3)
    1e26:	557d                	li	a0,-1
    1e28:	50ba                	lw	ra,172(sp)
    1e2a:	542a                	lw	s0,168(sp)
    1e2c:	549a                	lw	s1,164(sp)
    1e2e:	590a                	lw	s2,160(sp)
    1e30:	49fa                	lw	s3,156(sp)
    1e32:	4a6a                	lw	s4,152(sp)
    1e34:	4ada                	lw	s5,148(sp)
    1e36:	4b4a                	lw	s6,144(sp)
    1e38:	4bba                	lw	s7,140(sp)
    1e3a:	4c2a                	lw	s8,136(sp)
    1e3c:	4c9a                	lw	s9,132(sp)
    1e3e:	614d                	addi	sp,sp,176
    1e40:	8082                	ret
    1e42:	04000793          	li	a5,64
    1e46:	00f92a23          	sw	a5,20(s2)
    1e4a:	02000793          	li	a5,32
    1e4e:	02f10ca3          	sb	a5,57(sp)
    1e52:	03000793          	li	a5,48
    1e56:	da02                	sw	zero,52(sp)
    1e58:	02f10d23          	sb	a5,58(sp)
    1e5c:	ce36                	sw	a3,28(sp)
    1e5e:	02500b93          	li	s7,37
    1e62:	00001a97          	auipc	s5,0x1
    1e66:	256a8a93          	addi	s5,s5,598 # 30b8 <__sf_fake_stdout+0x20>
    1e6a:	4c05                	li	s8,1
    1e6c:	4b29                	li	s6,10
    1e6e:	8426                	mv	s0,s1
    1e70:	00044783          	lbu	a5,0(s0)
    1e74:	c399                	beqz	a5,1e7a <_svfiprintf_r+0x9a>
    1e76:	09779c63          	bne	a5,s7,1f0e <_svfiprintf_r+0x12e>
    1e7a:	40940cb3          	sub	s9,s0,s1
    1e7e:	000c8d63          	beqz	s9,1e98 <_svfiprintf_r+0xb8>
    1e82:	86e6                	mv	a3,s9
    1e84:	8626                	mv	a2,s1
    1e86:	85ca                	mv	a1,s2
    1e88:	854e                	mv	a0,s3
    1e8a:	35b5                	jal	1cf6 <__ssputs_r>
    1e8c:	57fd                	li	a5,-1
    1e8e:	1af50463          	beq	a0,a5,2036 <_svfiprintf_r+0x256>
    1e92:	56d2                	lw	a3,52(sp)
    1e94:	96e6                	add	a3,a3,s9
    1e96:	da36                	sw	a3,52(sp)
    1e98:	00044783          	lbu	a5,0(s0)
    1e9c:	18078d63          	beqz	a5,2036 <_svfiprintf_r+0x256>
    1ea0:	57fd                	li	a5,-1
    1ea2:	00140493          	addi	s1,s0,1
    1ea6:	d002                	sw	zero,32(sp)
    1ea8:	d602                	sw	zero,44(sp)
    1eaa:	d23e                	sw	a5,36(sp)
    1eac:	d402                	sw	zero,40(sp)
    1eae:	060101a3          	sb	zero,99(sp)
    1eb2:	dc82                	sw	zero,120(sp)
    1eb4:	0004c583          	lbu	a1,0(s1)
    1eb8:	4615                	li	a2,5
    1eba:	8556                	mv	a0,s5
    1ebc:	631000ef          	jal	ra,2cec <memchr>
    1ec0:	00148413          	addi	s0,s1,1
    1ec4:	5782                	lw	a5,32(sp)
    1ec6:	e531                	bnez	a0,1f12 <_svfiprintf_r+0x132>
    1ec8:	0107f713          	andi	a4,a5,16
    1ecc:	c709                	beqz	a4,1ed6 <_svfiprintf_r+0xf6>
    1ece:	02000713          	li	a4,32
    1ed2:	06e101a3          	sb	a4,99(sp)
    1ed6:	0087f713          	andi	a4,a5,8
    1eda:	c709                	beqz	a4,1ee4 <_svfiprintf_r+0x104>
    1edc:	02b00713          	li	a4,43
    1ee0:	06e101a3          	sb	a4,99(sp)
    1ee4:	0004c683          	lbu	a3,0(s1)
    1ee8:	02a00713          	li	a4,42
    1eec:	02e68b63          	beq	a3,a4,1f22 <_svfiprintf_r+0x142>
    1ef0:	57b2                	lw	a5,44(sp)
    1ef2:	8426                	mv	s0,s1
    1ef4:	4681                	li	a3,0
    1ef6:	4625                	li	a2,9
    1ef8:	00044703          	lbu	a4,0(s0)
    1efc:	00140593          	addi	a1,s0,1
    1f00:	fd070713          	addi	a4,a4,-48
    1f04:	06e67463          	bgeu	a2,a4,1f6c <_svfiprintf_r+0x18c>
    1f08:	c68d                	beqz	a3,1f32 <_svfiprintf_r+0x152>
    1f0a:	d63e                	sw	a5,44(sp)
    1f0c:	a01d                	j	1f32 <_svfiprintf_r+0x152>
    1f0e:	0405                	addi	s0,s0,1
    1f10:	b785                	j	1e70 <_svfiprintf_r+0x90>
    1f12:	41550533          	sub	a0,a0,s5
    1f16:	00ac1533          	sll	a0,s8,a0
    1f1a:	8fc9                	or	a5,a5,a0
    1f1c:	d03e                	sw	a5,32(sp)
    1f1e:	84a2                	mv	s1,s0
    1f20:	bf51                	j	1eb4 <_svfiprintf_r+0xd4>
    1f22:	4772                	lw	a4,28(sp)
    1f24:	00470693          	addi	a3,a4,4
    1f28:	4318                	lw	a4,0(a4)
    1f2a:	ce36                	sw	a3,28(sp)
    1f2c:	02074963          	bltz	a4,1f5e <_svfiprintf_r+0x17e>
    1f30:	d63a                	sw	a4,44(sp)
    1f32:	00044703          	lbu	a4,0(s0)
    1f36:	02e00793          	li	a5,46
    1f3a:	04f71f63          	bne	a4,a5,1f98 <_svfiprintf_r+0x1b8>
    1f3e:	00144703          	lbu	a4,1(s0)
    1f42:	02a00793          	li	a5,42
    1f46:	02f71b63          	bne	a4,a5,1f7c <_svfiprintf_r+0x19c>
    1f4a:	47f2                	lw	a5,28(sp)
    1f4c:	0409                	addi	s0,s0,2
    1f4e:	00478713          	addi	a4,a5,4 # ffff0004 <_eusrstack+0xdffe9804>
    1f52:	439c                	lw	a5,0(a5)
    1f54:	ce3a                	sw	a4,28(sp)
    1f56:	0207c163          	bltz	a5,1f78 <_svfiprintf_r+0x198>
    1f5a:	d23e                	sw	a5,36(sp)
    1f5c:	a835                	j	1f98 <_svfiprintf_r+0x1b8>
    1f5e:	40e00733          	neg	a4,a4
    1f62:	0027e793          	ori	a5,a5,2
    1f66:	d63a                	sw	a4,44(sp)
    1f68:	d03e                	sw	a5,32(sp)
    1f6a:	b7e1                	j	1f32 <_svfiprintf_r+0x152>
    1f6c:	036787b3          	mul	a5,a5,s6
    1f70:	4685                	li	a3,1
    1f72:	842e                	mv	s0,a1
    1f74:	97ba                	add	a5,a5,a4
    1f76:	b749                	j	1ef8 <_svfiprintf_r+0x118>
    1f78:	57fd                	li	a5,-1
    1f7a:	b7c5                	j	1f5a <_svfiprintf_r+0x17a>
    1f7c:	0405                	addi	s0,s0,1
    1f7e:	d202                	sw	zero,36(sp)
    1f80:	4681                	li	a3,0
    1f82:	4781                	li	a5,0
    1f84:	4625                	li	a2,9
    1f86:	00044703          	lbu	a4,0(s0)
    1f8a:	00140593          	addi	a1,s0,1
    1f8e:	fd070713          	addi	a4,a4,-48
    1f92:	06e67863          	bgeu	a2,a4,2002 <_svfiprintf_r+0x222>
    1f96:	f2f1                	bnez	a3,1f5a <_svfiprintf_r+0x17a>
    1f98:	00044583          	lbu	a1,0(s0)
    1f9c:	460d                	li	a2,3
    1f9e:	00001517          	auipc	a0,0x1
    1fa2:	12250513          	addi	a0,a0,290 # 30c0 <__sf_fake_stdout+0x28>
    1fa6:	547000ef          	jal	ra,2cec <memchr>
    1faa:	cd11                	beqz	a0,1fc6 <_svfiprintf_r+0x1e6>
    1fac:	00001797          	auipc	a5,0x1
    1fb0:	11478793          	addi	a5,a5,276 # 30c0 <__sf_fake_stdout+0x28>
    1fb4:	8d1d                	sub	a0,a0,a5
    1fb6:	04000793          	li	a5,64
    1fba:	00a797b3          	sll	a5,a5,a0
    1fbe:	5502                	lw	a0,32(sp)
    1fc0:	0405                	addi	s0,s0,1
    1fc2:	8d5d                	or	a0,a0,a5
    1fc4:	d02a                	sw	a0,32(sp)
    1fc6:	00044583          	lbu	a1,0(s0)
    1fca:	4619                	li	a2,6
    1fcc:	00001517          	auipc	a0,0x1
    1fd0:	0f850513          	addi	a0,a0,248 # 30c4 <__sf_fake_stdout+0x2c>
    1fd4:	00140493          	addi	s1,s0,1
    1fd8:	02b10c23          	sb	a1,56(sp)
    1fdc:	511000ef          	jal	ra,2cec <memchr>
    1fe0:	c525                	beqz	a0,2048 <_svfiprintf_r+0x268>
    1fe2:	ffffe797          	auipc	a5,0xffffe
    1fe6:	01e78793          	addi	a5,a5,30 # 0 <_sinit>
    1fea:	e795                	bnez	a5,2016 <_svfiprintf_r+0x236>
    1fec:	5702                	lw	a4,32(sp)
    1fee:	47f2                	lw	a5,28(sp)
    1ff0:	10077713          	andi	a4,a4,256
    1ff4:	cf09                	beqz	a4,200e <_svfiprintf_r+0x22e>
    1ff6:	0791                	addi	a5,a5,4
    1ff8:	ce3e                	sw	a5,28(sp)
    1ffa:	57d2                	lw	a5,52(sp)
    1ffc:	97d2                	add	a5,a5,s4
    1ffe:	da3e                	sw	a5,52(sp)
    2000:	b5bd                	j	1e6e <_svfiprintf_r+0x8e>
    2002:	036787b3          	mul	a5,a5,s6
    2006:	4685                	li	a3,1
    2008:	842e                	mv	s0,a1
    200a:	97ba                	add	a5,a5,a4
    200c:	bfad                	j	1f86 <_svfiprintf_r+0x1a6>
    200e:	079d                	addi	a5,a5,7
    2010:	9be1                	andi	a5,a5,-8
    2012:	07a1                	addi	a5,a5,8
    2014:	b7d5                	j	1ff8 <_svfiprintf_r+0x218>
    2016:	0878                	addi	a4,sp,28
    2018:	00000697          	auipc	a3,0x0
    201c:	cde68693          	addi	a3,a3,-802 # 1cf6 <__ssputs_r>
    2020:	864a                	mv	a2,s2
    2022:	100c                	addi	a1,sp,32
    2024:	854e                	mv	a0,s3
    2026:	00000097          	auipc	ra,0x0
    202a:	000000e7          	jalr	zero # 0 <_sinit>
    202e:	57fd                	li	a5,-1
    2030:	8a2a                	mv	s4,a0
    2032:	fcf514e3          	bne	a0,a5,1ffa <_svfiprintf_r+0x21a>
    2036:	00c95783          	lhu	a5,12(s2)
    203a:	557d                	li	a0,-1
    203c:	0407f793          	andi	a5,a5,64
    2040:	de0794e3          	bnez	a5,1e28 <_svfiprintf_r+0x48>
    2044:	5552                	lw	a0,52(sp)
    2046:	b3cd                	j	1e28 <_svfiprintf_r+0x48>
    2048:	0878                	addi	a4,sp,28
    204a:	00000697          	auipc	a3,0x0
    204e:	cac68693          	addi	a3,a3,-852 # 1cf6 <__ssputs_r>
    2052:	864a                	mv	a2,s2
    2054:	100c                	addi	a1,sp,32
    2056:	854e                	mv	a0,s3
    2058:	2921                	jal	2470 <_printf_i>
    205a:	bfd1                	j	202e <_svfiprintf_r+0x24e>

0000205c <__sfputc_r>:
__sfputc_r():
    205c:	461c                	lw	a5,8(a2)
    205e:	17fd                	addi	a5,a5,-1
    2060:	c61c                	sw	a5,8(a2)
    2062:	0007d963          	bgez	a5,2074 <__sfputc_r+0x18>
    2066:	4e18                	lw	a4,24(a2)
    2068:	00e7c563          	blt	a5,a4,2072 <__sfputc_r+0x16>
    206c:	47a9                	li	a5,10
    206e:	00f59363          	bne	a1,a5,2074 <__sfputc_r+0x18>
    2072:	a771                	j	27fe <__swbuf_r>
    2074:	421c                	lw	a5,0(a2)
    2076:	852e                	mv	a0,a1
    2078:	00178713          	addi	a4,a5,1
    207c:	c218                	sw	a4,0(a2)
    207e:	00b78023          	sb	a1,0(a5)
    2082:	8082                	ret

00002084 <__sfputs_r>:
__sfputs_r():
    2084:	1101                	addi	sp,sp,-32
    2086:	cc22                	sw	s0,24(sp)
    2088:	ca26                	sw	s1,20(sp)
    208a:	c84a                	sw	s2,16(sp)
    208c:	c64e                	sw	s3,12(sp)
    208e:	c452                	sw	s4,8(sp)
    2090:	ce06                	sw	ra,28(sp)
    2092:	892a                	mv	s2,a0
    2094:	89ae                	mv	s3,a1
    2096:	8432                	mv	s0,a2
    2098:	00d604b3          	add	s1,a2,a3
    209c:	5a7d                	li	s4,-1
    209e:	00941463          	bne	s0,s1,20a6 <__sfputs_r+0x22>
    20a2:	4501                	li	a0,0
    20a4:	a809                	j	20b6 <__sfputs_r+0x32>
    20a6:	00044583          	lbu	a1,0(s0)
    20aa:	864e                	mv	a2,s3
    20ac:	854a                	mv	a0,s2
    20ae:	377d                	jal	205c <__sfputc_r>
    20b0:	0405                	addi	s0,s0,1
    20b2:	ff4516e3          	bne	a0,s4,209e <__sfputs_r+0x1a>
    20b6:	40f2                	lw	ra,28(sp)
    20b8:	4462                	lw	s0,24(sp)
    20ba:	44d2                	lw	s1,20(sp)
    20bc:	4942                	lw	s2,16(sp)
    20be:	49b2                	lw	s3,12(sp)
    20c0:	4a22                	lw	s4,8(sp)
    20c2:	6105                	addi	sp,sp,32
    20c4:	8082                	ret

000020c6 <_vfiprintf_r>:
_vfiprintf_r():
    20c6:	7135                	addi	sp,sp,-160
    20c8:	cd22                	sw	s0,152(sp)
    20ca:	cb26                	sw	s1,148(sp)
    20cc:	c94a                	sw	s2,144(sp)
    20ce:	c74e                	sw	s3,140(sp)
    20d0:	cf06                	sw	ra,156(sp)
    20d2:	c552                	sw	s4,136(sp)
    20d4:	c356                	sw	s5,132(sp)
    20d6:	c15a                	sw	s6,128(sp)
    20d8:	dede                	sw	s7,124(sp)
    20da:	dce2                	sw	s8,120(sp)
    20dc:	dae6                	sw	s9,116(sp)
    20de:	89aa                	mv	s3,a0
    20e0:	84ae                	mv	s1,a1
    20e2:	8932                	mv	s2,a2
    20e4:	8436                	mv	s0,a3
    20e6:	c509                	beqz	a0,20f0 <_vfiprintf_r+0x2a>
    20e8:	4d1c                	lw	a5,24(a0)
    20ea:	e399                	bnez	a5,20f0 <_vfiprintf_r+0x2a>
    20ec:	9bbff0ef          	jal	ra,1aa6 <__sinit>
    20f0:	00001797          	auipc	a5,0x1
    20f4:	f8878793          	addi	a5,a5,-120 # 3078 <__sf_fake_stdin>
    20f8:	0cf49c63          	bne	s1,a5,21d0 <_vfiprintf_r+0x10a>
    20fc:	0049a483          	lw	s1,4(s3)
    2100:	00c4d783          	lhu	a5,12(s1)
    2104:	8ba1                	andi	a5,a5,8
    2106:	c7fd                	beqz	a5,21f4 <_vfiprintf_r+0x12e>
    2108:	489c                	lw	a5,16(s1)
    210a:	c7ed                	beqz	a5,21f4 <_vfiprintf_r+0x12e>
    210c:	02000793          	li	a5,32
    2110:	02f104a3          	sb	a5,41(sp)
    2114:	03000793          	li	a5,48
    2118:	d202                	sw	zero,36(sp)
    211a:	02f10523          	sb	a5,42(sp)
    211e:	c622                	sw	s0,12(sp)
    2120:	02500b93          	li	s7,37
    2124:	00001a97          	auipc	s5,0x1
    2128:	f94a8a93          	addi	s5,s5,-108 # 30b8 <__sf_fake_stdout+0x20>
    212c:	4c05                	li	s8,1
    212e:	4b29                	li	s6,10
    2130:	844a                	mv	s0,s2
    2132:	00044783          	lbu	a5,0(s0)
    2136:	c399                	beqz	a5,213c <_vfiprintf_r+0x76>
    2138:	0f779063          	bne	a5,s7,2218 <_vfiprintf_r+0x152>
    213c:	41240cb3          	sub	s9,s0,s2
    2140:	000c8d63          	beqz	s9,215a <_vfiprintf_r+0x94>
    2144:	86e6                	mv	a3,s9
    2146:	864a                	mv	a2,s2
    2148:	85a6                	mv	a1,s1
    214a:	854e                	mv	a0,s3
    214c:	3f25                	jal	2084 <__sfputs_r>
    214e:	57fd                	li	a5,-1
    2150:	1ef50863          	beq	a0,a5,2340 <_vfiprintf_r+0x27a>
    2154:	5692                	lw	a3,36(sp)
    2156:	96e6                	add	a3,a3,s9
    2158:	d236                	sw	a3,36(sp)
    215a:	00044783          	lbu	a5,0(s0)
    215e:	1e078163          	beqz	a5,2340 <_vfiprintf_r+0x27a>
    2162:	57fd                	li	a5,-1
    2164:	00140913          	addi	s2,s0,1
    2168:	c802                	sw	zero,16(sp)
    216a:	ce02                	sw	zero,28(sp)
    216c:	ca3e                	sw	a5,20(sp)
    216e:	cc02                	sw	zero,24(sp)
    2170:	040109a3          	sb	zero,83(sp)
    2174:	d482                	sw	zero,104(sp)
    2176:	00094583          	lbu	a1,0(s2)
    217a:	4615                	li	a2,5
    217c:	8556                	mv	a0,s5
    217e:	36f000ef          	jal	ra,2cec <memchr>
    2182:	00190413          	addi	s0,s2,1
    2186:	47c2                	lw	a5,16(sp)
    2188:	e951                	bnez	a0,221c <_vfiprintf_r+0x156>
    218a:	0107f713          	andi	a4,a5,16
    218e:	c709                	beqz	a4,2198 <_vfiprintf_r+0xd2>
    2190:	02000713          	li	a4,32
    2194:	04e109a3          	sb	a4,83(sp)
    2198:	0087f713          	andi	a4,a5,8
    219c:	c709                	beqz	a4,21a6 <_vfiprintf_r+0xe0>
    219e:	02b00713          	li	a4,43
    21a2:	04e109a3          	sb	a4,83(sp)
    21a6:	00094683          	lbu	a3,0(s2)
    21aa:	02a00713          	li	a4,42
    21ae:	06e68f63          	beq	a3,a4,222c <_vfiprintf_r+0x166>
    21b2:	47f2                	lw	a5,28(sp)
    21b4:	844a                	mv	s0,s2
    21b6:	4681                	li	a3,0
    21b8:	4625                	li	a2,9
    21ba:	00044703          	lbu	a4,0(s0)
    21be:	00140593          	addi	a1,s0,1
    21c2:	fd070713          	addi	a4,a4,-48
    21c6:	0ae67863          	bgeu	a2,a4,2276 <_vfiprintf_r+0x1b0>
    21ca:	caad                	beqz	a3,223c <_vfiprintf_r+0x176>
    21cc:	ce3e                	sw	a5,28(sp)
    21ce:	a0bd                	j	223c <_vfiprintf_r+0x176>
    21d0:	00001797          	auipc	a5,0x1
    21d4:	ec878793          	addi	a5,a5,-312 # 3098 <__sf_fake_stdout>
    21d8:	00f49563          	bne	s1,a5,21e2 <_vfiprintf_r+0x11c>
    21dc:	0089a483          	lw	s1,8(s3)
    21e0:	b705                	j	2100 <_vfiprintf_r+0x3a>
    21e2:	00001797          	auipc	a5,0x1
    21e6:	e7678793          	addi	a5,a5,-394 # 3058 <__sf_fake_stderr>
    21ea:	f0f49be3          	bne	s1,a5,2100 <_vfiprintf_r+0x3a>
    21ee:	00c9a483          	lw	s1,12(s3)
    21f2:	b739                	j	2100 <_vfiprintf_r+0x3a>
    21f4:	85a6                	mv	a1,s1
    21f6:	854e                	mv	a0,s3
    21f8:	2ddd                	jal	28ee <__swsetup_r>
    21fa:	d909                	beqz	a0,210c <_vfiprintf_r+0x46>
    21fc:	557d                	li	a0,-1
    21fe:	40fa                	lw	ra,156(sp)
    2200:	446a                	lw	s0,152(sp)
    2202:	44da                	lw	s1,148(sp)
    2204:	494a                	lw	s2,144(sp)
    2206:	49ba                	lw	s3,140(sp)
    2208:	4a2a                	lw	s4,136(sp)
    220a:	4a9a                	lw	s5,132(sp)
    220c:	4b0a                	lw	s6,128(sp)
    220e:	5bf6                	lw	s7,124(sp)
    2210:	5c66                	lw	s8,120(sp)
    2212:	5cd6                	lw	s9,116(sp)
    2214:	610d                	addi	sp,sp,160
    2216:	8082                	ret
    2218:	0405                	addi	s0,s0,1
    221a:	bf21                	j	2132 <_vfiprintf_r+0x6c>
    221c:	41550533          	sub	a0,a0,s5
    2220:	00ac1533          	sll	a0,s8,a0
    2224:	8fc9                	or	a5,a5,a0
    2226:	c83e                	sw	a5,16(sp)
    2228:	8922                	mv	s2,s0
    222a:	b7b1                	j	2176 <_vfiprintf_r+0xb0>
    222c:	4732                	lw	a4,12(sp)
    222e:	00470693          	addi	a3,a4,4
    2232:	4318                	lw	a4,0(a4)
    2234:	c636                	sw	a3,12(sp)
    2236:	02074963          	bltz	a4,2268 <_vfiprintf_r+0x1a2>
    223a:	ce3a                	sw	a4,28(sp)
    223c:	00044703          	lbu	a4,0(s0)
    2240:	02e00793          	li	a5,46
    2244:	04f71f63          	bne	a4,a5,22a2 <_vfiprintf_r+0x1dc>
    2248:	00144703          	lbu	a4,1(s0)
    224c:	02a00793          	li	a5,42
    2250:	02f71b63          	bne	a4,a5,2286 <_vfiprintf_r+0x1c0>
    2254:	47b2                	lw	a5,12(sp)
    2256:	0409                	addi	s0,s0,2
    2258:	00478713          	addi	a4,a5,4
    225c:	439c                	lw	a5,0(a5)
    225e:	c63a                	sw	a4,12(sp)
    2260:	0207c163          	bltz	a5,2282 <_vfiprintf_r+0x1bc>
    2264:	ca3e                	sw	a5,20(sp)
    2266:	a835                	j	22a2 <_vfiprintf_r+0x1dc>
    2268:	40e00733          	neg	a4,a4
    226c:	0027e793          	ori	a5,a5,2
    2270:	ce3a                	sw	a4,28(sp)
    2272:	c83e                	sw	a5,16(sp)
    2274:	b7e1                	j	223c <_vfiprintf_r+0x176>
    2276:	036787b3          	mul	a5,a5,s6
    227a:	4685                	li	a3,1
    227c:	842e                	mv	s0,a1
    227e:	97ba                	add	a5,a5,a4
    2280:	bf2d                	j	21ba <_vfiprintf_r+0xf4>
    2282:	57fd                	li	a5,-1
    2284:	b7c5                	j	2264 <_vfiprintf_r+0x19e>
    2286:	0405                	addi	s0,s0,1
    2288:	ca02                	sw	zero,20(sp)
    228a:	4681                	li	a3,0
    228c:	4781                	li	a5,0
    228e:	4625                	li	a2,9
    2290:	00044703          	lbu	a4,0(s0)
    2294:	00140593          	addi	a1,s0,1
    2298:	fd070713          	addi	a4,a4,-48
    229c:	06e67863          	bgeu	a2,a4,230c <_vfiprintf_r+0x246>
    22a0:	f2f1                	bnez	a3,2264 <_vfiprintf_r+0x19e>
    22a2:	00044583          	lbu	a1,0(s0)
    22a6:	460d                	li	a2,3
    22a8:	00001517          	auipc	a0,0x1
    22ac:	e1850513          	addi	a0,a0,-488 # 30c0 <__sf_fake_stdout+0x28>
    22b0:	23d000ef          	jal	ra,2cec <memchr>
    22b4:	cd11                	beqz	a0,22d0 <_vfiprintf_r+0x20a>
    22b6:	00001797          	auipc	a5,0x1
    22ba:	e0a78793          	addi	a5,a5,-502 # 30c0 <__sf_fake_stdout+0x28>
    22be:	8d1d                	sub	a0,a0,a5
    22c0:	04000793          	li	a5,64
    22c4:	00a797b3          	sll	a5,a5,a0
    22c8:	4542                	lw	a0,16(sp)
    22ca:	0405                	addi	s0,s0,1
    22cc:	8d5d                	or	a0,a0,a5
    22ce:	c82a                	sw	a0,16(sp)
    22d0:	00044583          	lbu	a1,0(s0)
    22d4:	4619                	li	a2,6
    22d6:	00001517          	auipc	a0,0x1
    22da:	dee50513          	addi	a0,a0,-530 # 30c4 <__sf_fake_stdout+0x2c>
    22de:	00140913          	addi	s2,s0,1
    22e2:	02b10423          	sb	a1,40(sp)
    22e6:	207000ef          	jal	ra,2cec <memchr>
    22ea:	c13d                	beqz	a0,2350 <_vfiprintf_r+0x28a>
    22ec:	ffffe797          	auipc	a5,0xffffe
    22f0:	d1478793          	addi	a5,a5,-748 # 0 <_sinit>
    22f4:	e795                	bnez	a5,2320 <_vfiprintf_r+0x25a>
    22f6:	4742                	lw	a4,16(sp)
    22f8:	47b2                	lw	a5,12(sp)
    22fa:	10077713          	andi	a4,a4,256
    22fe:	cf09                	beqz	a4,2318 <_vfiprintf_r+0x252>
    2300:	0791                	addi	a5,a5,4
    2302:	c63e                	sw	a5,12(sp)
    2304:	5792                	lw	a5,36(sp)
    2306:	97d2                	add	a5,a5,s4
    2308:	d23e                	sw	a5,36(sp)
    230a:	b51d                	j	2130 <_vfiprintf_r+0x6a>
    230c:	036787b3          	mul	a5,a5,s6
    2310:	4685                	li	a3,1
    2312:	842e                	mv	s0,a1
    2314:	97ba                	add	a5,a5,a4
    2316:	bfad                	j	2290 <_vfiprintf_r+0x1ca>
    2318:	079d                	addi	a5,a5,7
    231a:	9be1                	andi	a5,a5,-8
    231c:	07a1                	addi	a5,a5,8
    231e:	b7d5                	j	2302 <_vfiprintf_r+0x23c>
    2320:	0078                	addi	a4,sp,12
    2322:	00000697          	auipc	a3,0x0
    2326:	d6268693          	addi	a3,a3,-670 # 2084 <__sfputs_r>
    232a:	8626                	mv	a2,s1
    232c:	080c                	addi	a1,sp,16
    232e:	854e                	mv	a0,s3
    2330:	00000097          	auipc	ra,0x0
    2334:	000000e7          	jalr	zero # 0 <_sinit>
    2338:	57fd                	li	a5,-1
    233a:	8a2a                	mv	s4,a0
    233c:	fcf514e3          	bne	a0,a5,2304 <_vfiprintf_r+0x23e>
    2340:	00c4d783          	lhu	a5,12(s1)
    2344:	0407f793          	andi	a5,a5,64
    2348:	ea079ae3          	bnez	a5,21fc <_vfiprintf_r+0x136>
    234c:	5512                	lw	a0,36(sp)
    234e:	bd45                	j	21fe <_vfiprintf_r+0x138>
    2350:	0078                	addi	a4,sp,12
    2352:	00000697          	auipc	a3,0x0
    2356:	d3268693          	addi	a3,a3,-718 # 2084 <__sfputs_r>
    235a:	8626                	mv	a2,s1
    235c:	080c                	addi	a1,sp,16
    235e:	854e                	mv	a0,s3
    2360:	2a01                	jal	2470 <_printf_i>
    2362:	bfd9                	j	2338 <_vfiprintf_r+0x272>

00002364 <_printf_common>:
_printf_common():
    2364:	7179                	addi	sp,sp,-48
    2366:	ca56                	sw	s5,20(sp)
    2368:	499c                	lw	a5,16(a1)
    236a:	8aba                	mv	s5,a4
    236c:	4598                	lw	a4,8(a1)
    236e:	d422                	sw	s0,40(sp)
    2370:	d226                	sw	s1,36(sp)
    2372:	ce4e                	sw	s3,28(sp)
    2374:	cc52                	sw	s4,24(sp)
    2376:	d606                	sw	ra,44(sp)
    2378:	d04a                	sw	s2,32(sp)
    237a:	c85a                	sw	s6,16(sp)
    237c:	c65e                	sw	s7,12(sp)
    237e:	89aa                	mv	s3,a0
    2380:	842e                	mv	s0,a1
    2382:	84b2                	mv	s1,a2
    2384:	8a36                	mv	s4,a3
    2386:	00e7d363          	bge	a5,a4,238c <_printf_common+0x28>
    238a:	87ba                	mv	a5,a4
    238c:	c09c                	sw	a5,0(s1)
    238e:	04344703          	lbu	a4,67(s0)
    2392:	c319                	beqz	a4,2398 <_printf_common+0x34>
    2394:	0785                	addi	a5,a5,1
    2396:	c09c                	sw	a5,0(s1)
    2398:	401c                	lw	a5,0(s0)
    239a:	0207f793          	andi	a5,a5,32
    239e:	c781                	beqz	a5,23a6 <_printf_common+0x42>
    23a0:	409c                	lw	a5,0(s1)
    23a2:	0789                	addi	a5,a5,2
    23a4:	c09c                	sw	a5,0(s1)
    23a6:	00042903          	lw	s2,0(s0)
    23aa:	00697913          	andi	s2,s2,6
    23ae:	00091a63          	bnez	s2,23c2 <_printf_common+0x5e>
    23b2:	01940b13          	addi	s6,s0,25
    23b6:	5bfd                	li	s7,-1
    23b8:	445c                	lw	a5,12(s0)
    23ba:	4098                	lw	a4,0(s1)
    23bc:	8f99                	sub	a5,a5,a4
    23be:	04f94c63          	blt	s2,a5,2416 <_printf_common+0xb2>
    23c2:	401c                	lw	a5,0(s0)
    23c4:	04344683          	lbu	a3,67(s0)
    23c8:	0207f793          	andi	a5,a5,32
    23cc:	00d036b3          	snez	a3,a3
    23d0:	eba5                	bnez	a5,2440 <_printf_common+0xdc>
    23d2:	04340613          	addi	a2,s0,67
    23d6:	85d2                	mv	a1,s4
    23d8:	854e                	mv	a0,s3
    23da:	9a82                	jalr	s5
    23dc:	57fd                	li	a5,-1
    23de:	04f50363          	beq	a0,a5,2424 <_printf_common+0xc0>
    23e2:	401c                	lw	a5,0(s0)
    23e4:	4611                	li	a2,4
    23e6:	4098                	lw	a4,0(s1)
    23e8:	8b99                	andi	a5,a5,6
    23ea:	4454                	lw	a3,12(s0)
    23ec:	4481                	li	s1,0
    23ee:	00c79763          	bne	a5,a2,23fc <_printf_common+0x98>
    23f2:	40e684b3          	sub	s1,a3,a4
    23f6:	0004d363          	bgez	s1,23fc <_printf_common+0x98>
    23fa:	4481                	li	s1,0
    23fc:	441c                	lw	a5,8(s0)
    23fe:	4818                	lw	a4,16(s0)
    2400:	00f75463          	bge	a4,a5,2408 <_printf_common+0xa4>
    2404:	8f99                	sub	a5,a5,a4
    2406:	94be                	add	s1,s1,a5
    2408:	4901                	li	s2,0
    240a:	0469                	addi	s0,s0,26
    240c:	5b7d                	li	s6,-1
    240e:	05249863          	bne	s1,s2,245e <_printf_common+0xfa>
    2412:	4501                	li	a0,0
    2414:	a809                	j	2426 <_printf_common+0xc2>
    2416:	4685                	li	a3,1
    2418:	865a                	mv	a2,s6
    241a:	85d2                	mv	a1,s4
    241c:	854e                	mv	a0,s3
    241e:	9a82                	jalr	s5
    2420:	01751e63          	bne	a0,s7,243c <_printf_common+0xd8>
    2424:	557d                	li	a0,-1
    2426:	50b2                	lw	ra,44(sp)
    2428:	5422                	lw	s0,40(sp)
    242a:	5492                	lw	s1,36(sp)
    242c:	5902                	lw	s2,32(sp)
    242e:	49f2                	lw	s3,28(sp)
    2430:	4a62                	lw	s4,24(sp)
    2432:	4ad2                	lw	s5,20(sp)
    2434:	4b42                	lw	s6,16(sp)
    2436:	4bb2                	lw	s7,12(sp)
    2438:	6145                	addi	sp,sp,48
    243a:	8082                	ret
    243c:	0905                	addi	s2,s2,1
    243e:	bfad                	j	23b8 <_printf_common+0x54>
    2440:	00d40733          	add	a4,s0,a3
    2444:	03000613          	li	a2,48
    2448:	04c701a3          	sb	a2,67(a4)
    244c:	04544703          	lbu	a4,69(s0)
    2450:	00168793          	addi	a5,a3,1
    2454:	97a2                	add	a5,a5,s0
    2456:	0689                	addi	a3,a3,2
    2458:	04e781a3          	sb	a4,67(a5)
    245c:	bf9d                	j	23d2 <_printf_common+0x6e>
    245e:	4685                	li	a3,1
    2460:	8622                	mv	a2,s0
    2462:	85d2                	mv	a1,s4
    2464:	854e                	mv	a0,s3
    2466:	9a82                	jalr	s5
    2468:	fb650ee3          	beq	a0,s6,2424 <_printf_common+0xc0>
    246c:	0905                	addi	s2,s2,1
    246e:	b745                	j	240e <_printf_common+0xaa>

00002470 <_printf_i>:
_printf_i():
    2470:	7179                	addi	sp,sp,-48
    2472:	d422                	sw	s0,40(sp)
    2474:	d226                	sw	s1,36(sp)
    2476:	d04a                	sw	s2,32(sp)
    2478:	ce4e                	sw	s3,28(sp)
    247a:	d606                	sw	ra,44(sp)
    247c:	cc52                	sw	s4,24(sp)
    247e:	ca56                	sw	s5,20(sp)
    2480:	c85a                	sw	s6,16(sp)
    2482:	89b6                	mv	s3,a3
    2484:	0185c683          	lbu	a3,24(a1)
    2488:	06900793          	li	a5,105
    248c:	8932                	mv	s2,a2
    248e:	84aa                	mv	s1,a0
    2490:	842e                	mv	s0,a1
    2492:	04358613          	addi	a2,a1,67
    2496:	02f68d63          	beq	a3,a5,24d0 <_printf_i+0x60>
    249a:	06d7e263          	bltu	a5,a3,24fe <_printf_i+0x8e>
    249e:	05800793          	li	a5,88
    24a2:	18f68863          	beq	a3,a5,2632 <_printf_i+0x1c2>
    24a6:	00d7ed63          	bltu	a5,a3,24c0 <_printf_i+0x50>
    24aa:	22068163          	beqz	a3,26cc <_printf_i+0x25c>
    24ae:	04300793          	li	a5,67
    24b2:	0af68f63          	beq	a3,a5,2570 <_printf_i+0x100>
    24b6:	04240a93          	addi	s5,s0,66
    24ba:	04d40123          	sb	a3,66(s0)
    24be:	a0d1                	j	2582 <_printf_i+0x112>
    24c0:	06300793          	li	a5,99
    24c4:	0af68663          	beq	a3,a5,2570 <_printf_i+0x100>
    24c8:	06400793          	li	a5,100
    24cc:	fef695e3          	bne	a3,a5,24b6 <_printf_i+0x46>
    24d0:	401c                	lw	a5,0(s0)
    24d2:	4308                	lw	a0,0(a4)
    24d4:	0807f693          	andi	a3,a5,128
    24d8:	00450593          	addi	a1,a0,4
    24dc:	c6cd                	beqz	a3,2586 <_printf_i+0x116>
    24de:	411c                	lw	a5,0(a0)
    24e0:	c30c                	sw	a1,0(a4)
    24e2:	0007d863          	bgez	a5,24f2 <_printf_i+0x82>
    24e6:	02d00713          	li	a4,45
    24ea:	40f007b3          	neg	a5,a5
    24ee:	04e401a3          	sb	a4,67(s0)
    24f2:	00001697          	auipc	a3,0x1
    24f6:	bda68693          	addi	a3,a3,-1062 # 30cc <__sf_fake_stdout+0x34>
    24fa:	4729                	li	a4,10
    24fc:	a875                	j	25b8 <_printf_i+0x148>
    24fe:	07000793          	li	a5,112
    2502:	16f68463          	beq	a3,a5,266a <_printf_i+0x1fa>
    2506:	02d7e563          	bltu	a5,a3,2530 <_printf_i+0xc0>
    250a:	06e00793          	li	a5,110
    250e:	18f68b63          	beq	a3,a5,26a4 <_printf_i+0x234>
    2512:	06f00793          	li	a5,111
    2516:	faf690e3          	bne	a3,a5,24b6 <_printf_i+0x46>
    251a:	400c                	lw	a1,0(s0)
    251c:	431c                	lw	a5,0(a4)
    251e:	0805f813          	andi	a6,a1,128
    2522:	00478513          	addi	a0,a5,4
    2526:	06080863          	beqz	a6,2596 <_printf_i+0x126>
    252a:	c308                	sw	a0,0(a4)
    252c:	439c                	lw	a5,0(a5)
    252e:	a895                	j	25a2 <_printf_i+0x132>
    2530:	07500793          	li	a5,117
    2534:	fef683e3          	beq	a3,a5,251a <_printf_i+0xaa>
    2538:	07800793          	li	a5,120
    253c:	12f68b63          	beq	a3,a5,2672 <_printf_i+0x202>
    2540:	07300793          	li	a5,115
    2544:	f6f699e3          	bne	a3,a5,24b6 <_printf_i+0x46>
    2548:	431c                	lw	a5,0(a4)
    254a:	41d0                	lw	a2,4(a1)
    254c:	4581                	li	a1,0
    254e:	00478693          	addi	a3,a5,4
    2552:	c314                	sw	a3,0(a4)
    2554:	0007aa83          	lw	s5,0(a5)
    2558:	8556                	mv	a0,s5
    255a:	792000ef          	jal	ra,2cec <memchr>
    255e:	c501                	beqz	a0,2566 <_printf_i+0xf6>
    2560:	41550533          	sub	a0,a0,s5
    2564:	c048                	sw	a0,4(s0)
    2566:	405c                	lw	a5,4(s0)
    2568:	c81c                	sw	a5,16(s0)
    256a:	040401a3          	sb	zero,67(s0)
    256e:	a871                	j	260a <_printf_i+0x19a>
    2570:	431c                	lw	a5,0(a4)
    2572:	04240a93          	addi	s5,s0,66
    2576:	00478693          	addi	a3,a5,4
    257a:	439c                	lw	a5,0(a5)
    257c:	c314                	sw	a3,0(a4)
    257e:	04f40123          	sb	a5,66(s0)
    2582:	4785                	li	a5,1
    2584:	b7d5                	j	2568 <_printf_i+0xf8>
    2586:	0407f693          	andi	a3,a5,64
    258a:	411c                	lw	a5,0(a0)
    258c:	c30c                	sw	a1,0(a4)
    258e:	dab1                	beqz	a3,24e2 <_printf_i+0x72>
    2590:	07c2                	slli	a5,a5,0x10
    2592:	87c1                	srai	a5,a5,0x10
    2594:	b7b9                	j	24e2 <_printf_i+0x72>
    2596:	0405f593          	andi	a1,a1,64
    259a:	c308                	sw	a0,0(a4)
    259c:	d9c1                	beqz	a1,252c <_printf_i+0xbc>
    259e:	0007d783          	lhu	a5,0(a5)
    25a2:	06f00713          	li	a4,111
    25a6:	0ee68763          	beq	a3,a4,2694 <_printf_i+0x224>
    25aa:	00001697          	auipc	a3,0x1
    25ae:	b2268693          	addi	a3,a3,-1246 # 30cc <__sf_fake_stdout+0x34>
    25b2:	4729                	li	a4,10
    25b4:	040401a3          	sb	zero,67(s0)
    25b8:	404c                	lw	a1,4(s0)
    25ba:	c40c                	sw	a1,8(s0)
    25bc:	0005c563          	bltz	a1,25c6 <_printf_i+0x156>
    25c0:	4008                	lw	a0,0(s0)
    25c2:	996d                	andi	a0,a0,-5
    25c4:	c008                	sw	a0,0(s0)
    25c6:	e399                	bnez	a5,25cc <_printf_i+0x15c>
    25c8:	8ab2                	mv	s5,a2
    25ca:	cd91                	beqz	a1,25e6 <_printf_i+0x176>
    25cc:	8ab2                	mv	s5,a2
    25ce:	02e7f5b3          	remu	a1,a5,a4
    25d2:	1afd                	addi	s5,s5,-1
    25d4:	95b6                	add	a1,a1,a3
    25d6:	0005c583          	lbu	a1,0(a1)
    25da:	00ba8023          	sb	a1,0(s5)
    25de:	02e7d5b3          	divu	a1,a5,a4
    25e2:	0ae7ff63          	bgeu	a5,a4,26a0 <_printf_i+0x230>
    25e6:	47a1                	li	a5,8
    25e8:	00f71e63          	bne	a4,a5,2604 <_printf_i+0x194>
    25ec:	401c                	lw	a5,0(s0)
    25ee:	8b85                	andi	a5,a5,1
    25f0:	cb91                	beqz	a5,2604 <_printf_i+0x194>
    25f2:	4058                	lw	a4,4(s0)
    25f4:	481c                	lw	a5,16(s0)
    25f6:	00e7c763          	blt	a5,a4,2604 <_printf_i+0x194>
    25fa:	03000793          	li	a5,48
    25fe:	fefa8fa3          	sb	a5,-1(s5)
    2602:	1afd                	addi	s5,s5,-1
    2604:	41560633          	sub	a2,a2,s5
    2608:	c810                	sw	a2,16(s0)
    260a:	874e                	mv	a4,s3
    260c:	86ca                	mv	a3,s2
    260e:	0070                	addi	a2,sp,12
    2610:	85a2                	mv	a1,s0
    2612:	8526                	mv	a0,s1
    2614:	3b81                	jal	2364 <_printf_common>
    2616:	5a7d                	li	s4,-1
    2618:	0b451e63          	bne	a0,s4,26d4 <_printf_i+0x264>
    261c:	557d                	li	a0,-1
    261e:	50b2                	lw	ra,44(sp)
    2620:	5422                	lw	s0,40(sp)
    2622:	5492                	lw	s1,36(sp)
    2624:	5902                	lw	s2,32(sp)
    2626:	49f2                	lw	s3,28(sp)
    2628:	4a62                	lw	s4,24(sp)
    262a:	4ad2                	lw	s5,20(sp)
    262c:	4b42                	lw	s6,16(sp)
    262e:	6145                	addi	sp,sp,48
    2630:	8082                	ret
    2632:	04d582a3          	sb	a3,69(a1)
    2636:	00001697          	auipc	a3,0x1
    263a:	a9668693          	addi	a3,a3,-1386 # 30cc <__sf_fake_stdout+0x34>
    263e:	400c                	lw	a1,0(s0)
    2640:	4308                	lw	a0,0(a4)
    2642:	0805f813          	andi	a6,a1,128
    2646:	411c                	lw	a5,0(a0)
    2648:	0511                	addi	a0,a0,4
    264a:	02080d63          	beqz	a6,2684 <_printf_i+0x214>
    264e:	c308                	sw	a0,0(a4)
    2650:	0015f713          	andi	a4,a1,1
    2654:	c701                	beqz	a4,265c <_printf_i+0x1ec>
    2656:	0205e593          	ori	a1,a1,32
    265a:	c00c                	sw	a1,0(s0)
    265c:	4741                	li	a4,16
    265e:	fbb9                	bnez	a5,25b4 <_printf_i+0x144>
    2660:	400c                	lw	a1,0(s0)
    2662:	fdf5f593          	andi	a1,a1,-33
    2666:	c00c                	sw	a1,0(s0)
    2668:	b7b1                	j	25b4 <_printf_i+0x144>
    266a:	419c                	lw	a5,0(a1)
    266c:	0207e793          	ori	a5,a5,32
    2670:	c19c                	sw	a5,0(a1)
    2672:	07800793          	li	a5,120
    2676:	04f402a3          	sb	a5,69(s0)
    267a:	00001697          	auipc	a3,0x1
    267e:	a6668693          	addi	a3,a3,-1434 # 30e0 <__sf_fake_stdout+0x48>
    2682:	bf75                	j	263e <_printf_i+0x1ce>
    2684:	0405f813          	andi	a6,a1,64
    2688:	c308                	sw	a0,0(a4)
    268a:	fc0803e3          	beqz	a6,2650 <_printf_i+0x1e0>
    268e:	07c2                	slli	a5,a5,0x10
    2690:	83c1                	srli	a5,a5,0x10
    2692:	bf7d                	j	2650 <_printf_i+0x1e0>
    2694:	00001697          	auipc	a3,0x1
    2698:	a3868693          	addi	a3,a3,-1480 # 30cc <__sf_fake_stdout+0x34>
    269c:	4721                	li	a4,8
    269e:	bf19                	j	25b4 <_printf_i+0x144>
    26a0:	87ae                	mv	a5,a1
    26a2:	b735                	j	25ce <_printf_i+0x15e>
    26a4:	4194                	lw	a3,0(a1)
    26a6:	431c                	lw	a5,0(a4)
    26a8:	49cc                	lw	a1,20(a1)
    26aa:	0806f813          	andi	a6,a3,128
    26ae:	00478513          	addi	a0,a5,4
    26b2:	00080663          	beqz	a6,26be <_printf_i+0x24e>
    26b6:	c308                	sw	a0,0(a4)
    26b8:	439c                	lw	a5,0(a5)
    26ba:	c38c                	sw	a1,0(a5)
    26bc:	a801                	j	26cc <_printf_i+0x25c>
    26be:	c308                	sw	a0,0(a4)
    26c0:	0406f693          	andi	a3,a3,64
    26c4:	439c                	lw	a5,0(a5)
    26c6:	daf5                	beqz	a3,26ba <_printf_i+0x24a>
    26c8:	00b79023          	sh	a1,0(a5)
    26cc:	00042823          	sw	zero,16(s0)
    26d0:	8ab2                	mv	s5,a2
    26d2:	bf25                	j	260a <_printf_i+0x19a>
    26d4:	4814                	lw	a3,16(s0)
    26d6:	8656                	mv	a2,s5
    26d8:	85ca                	mv	a1,s2
    26da:	8526                	mv	a0,s1
    26dc:	9982                	jalr	s3
    26de:	f3450fe3          	beq	a0,s4,261c <_printf_i+0x1ac>
    26e2:	401c                	lw	a5,0(s0)
    26e4:	8b89                	andi	a5,a5,2
    26e6:	e78d                	bnez	a5,2710 <_printf_i+0x2a0>
    26e8:	47b2                	lw	a5,12(sp)
    26ea:	4448                	lw	a0,12(s0)
    26ec:	f2f559e3          	bge	a0,a5,261e <_printf_i+0x1ae>
    26f0:	853e                	mv	a0,a5
    26f2:	b735                	j	261e <_printf_i+0x1ae>
    26f4:	4685                	li	a3,1
    26f6:	8656                	mv	a2,s5
    26f8:	85ca                	mv	a1,s2
    26fa:	8526                	mv	a0,s1
    26fc:	9982                	jalr	s3
    26fe:	f1650fe3          	beq	a0,s6,261c <_printf_i+0x1ac>
    2702:	0a05                	addi	s4,s4,1
    2704:	445c                	lw	a5,12(s0)
    2706:	4732                	lw	a4,12(sp)
    2708:	8f99                	sub	a5,a5,a4
    270a:	fefa45e3          	blt	s4,a5,26f4 <_printf_i+0x284>
    270e:	bfe9                	j	26e8 <_printf_i+0x278>
    2710:	4a01                	li	s4,0
    2712:	01940a93          	addi	s5,s0,25
    2716:	5b7d                	li	s6,-1
    2718:	b7f5                	j	2704 <_printf_i+0x294>

0000271a <_sbrk_r>:
_sbrk_r():
    271a:	1141                	addi	sp,sp,-16
    271c:	c422                	sw	s0,8(sp)
    271e:	842a                	mv	s0,a0
    2720:	852e                	mv	a0,a1
    2722:	ce01ae23          	sw	zero,-772(gp) # 2000118c <errno>
    2726:	c606                	sw	ra,12(sp)
    2728:	b6dfe0ef          	jal	ra,1294 <_sbrk>
    272c:	57fd                	li	a5,-1
    272e:	00f51763          	bne	a0,a5,273c <_sbrk_r+0x22>
    2732:	cfc18793          	addi	a5,gp,-772 # 2000118c <errno>
    2736:	439c                	lw	a5,0(a5)
    2738:	c391                	beqz	a5,273c <_sbrk_r+0x22>
    273a:	c01c                	sw	a5,0(s0)
    273c:	40b2                	lw	ra,12(sp)
    273e:	4422                	lw	s0,8(sp)
    2740:	0141                	addi	sp,sp,16
    2742:	8082                	ret

00002744 <__sread>:
__sread():
    2744:	1141                	addi	sp,sp,-16
    2746:	c422                	sw	s0,8(sp)
    2748:	842e                	mv	s0,a1
    274a:	00e59583          	lh	a1,14(a1)
    274e:	c606                	sw	ra,12(sp)
    2750:	2df5                	jal	2e4c <_read_r>
    2752:	00054963          	bltz	a0,2764 <__sread+0x20>
    2756:	487c                	lw	a5,84(s0)
    2758:	97aa                	add	a5,a5,a0
    275a:	c87c                	sw	a5,84(s0)
    275c:	40b2                	lw	ra,12(sp)
    275e:	4422                	lw	s0,8(sp)
    2760:	0141                	addi	sp,sp,16
    2762:	8082                	ret
    2764:	00c45783          	lhu	a5,12(s0)
    2768:	777d                	lui	a4,0xfffff
    276a:	177d                	addi	a4,a4,-1
    276c:	8ff9                	and	a5,a5,a4
    276e:	00f41623          	sh	a5,12(s0)
    2772:	b7ed                	j	275c <__sread+0x18>

00002774 <__swrite>:
__swrite():
    2774:	00c5d783          	lhu	a5,12(a1)
    2778:	1101                	addi	sp,sp,-32
    277a:	cc22                	sw	s0,24(sp)
    277c:	ca26                	sw	s1,20(sp)
    277e:	c84a                	sw	s2,16(sp)
    2780:	c64e                	sw	s3,12(sp)
    2782:	ce06                	sw	ra,28(sp)
    2784:	1007f793          	andi	a5,a5,256
    2788:	84aa                	mv	s1,a0
    278a:	842e                	mv	s0,a1
    278c:	8932                	mv	s2,a2
    278e:	89b6                	mv	s3,a3
    2790:	c791                	beqz	a5,279c <__swrite+0x28>
    2792:	00e59583          	lh	a1,14(a1)
    2796:	4689                	li	a3,2
    2798:	4601                	li	a2,0
    279a:	2905                	jal	2bca <_lseek_r>
    279c:	00c45783          	lhu	a5,12(s0)
    27a0:	777d                	lui	a4,0xfffff
    27a2:	177d                	addi	a4,a4,-1
    27a4:	8ff9                	and	a5,a5,a4
    27a6:	00f41623          	sh	a5,12(s0)
    27aa:	00e41583          	lh	a1,14(s0)
    27ae:	4462                	lw	s0,24(sp)
    27b0:	40f2                	lw	ra,28(sp)
    27b2:	86ce                	mv	a3,s3
    27b4:	864a                	mv	a2,s2
    27b6:	49b2                	lw	s3,12(sp)
    27b8:	4942                	lw	s2,16(sp)
    27ba:	8526                	mv	a0,s1
    27bc:	44d2                	lw	s1,20(sp)
    27be:	6105                	addi	sp,sp,32
    27c0:	a201                	j	28c0 <_write_r>

000027c2 <__sseek>:
__sseek():
    27c2:	1141                	addi	sp,sp,-16
    27c4:	c422                	sw	s0,8(sp)
    27c6:	842e                	mv	s0,a1
    27c8:	00e59583          	lh	a1,14(a1)
    27cc:	c606                	sw	ra,12(sp)
    27ce:	2ef5                	jal	2bca <_lseek_r>
    27d0:	57fd                	li	a5,-1
    27d2:	00c45703          	lhu	a4,12(s0)
    27d6:	00f51b63          	bne	a0,a5,27ec <__sseek+0x2a>
    27da:	77fd                	lui	a5,0xfffff
    27dc:	17fd                	addi	a5,a5,-1
    27de:	8ff9                	and	a5,a5,a4
    27e0:	00f41623          	sh	a5,12(s0)
    27e4:	40b2                	lw	ra,12(sp)
    27e6:	4422                	lw	s0,8(sp)
    27e8:	0141                	addi	sp,sp,16
    27ea:	8082                	ret
    27ec:	6785                	lui	a5,0x1
    27ee:	8fd9                	or	a5,a5,a4
    27f0:	00f41623          	sh	a5,12(s0)
    27f4:	c868                	sw	a0,84(s0)
    27f6:	b7fd                	j	27e4 <__sseek+0x22>

000027f8 <__sclose>:
__sclose():
    27f8:	00e59583          	lh	a1,14(a1)
    27fc:	a411                	j	2a00 <_close_r>

000027fe <__swbuf_r>:
__swbuf_r():
    27fe:	1101                	addi	sp,sp,-32
    2800:	cc22                	sw	s0,24(sp)
    2802:	ca26                	sw	s1,20(sp)
    2804:	c84a                	sw	s2,16(sp)
    2806:	ce06                	sw	ra,28(sp)
    2808:	c64e                	sw	s3,12(sp)
    280a:	84aa                	mv	s1,a0
    280c:	892e                	mv	s2,a1
    280e:	8432                	mv	s0,a2
    2810:	c509                	beqz	a0,281a <__swbuf_r+0x1c>
    2812:	4d1c                	lw	a5,24(a0)
    2814:	e399                	bnez	a5,281a <__swbuf_r+0x1c>
    2816:	a90ff0ef          	jal	ra,1aa6 <__sinit>
    281a:	00001797          	auipc	a5,0x1
    281e:	85e78793          	addi	a5,a5,-1954 # 3078 <__sf_fake_stdin>
    2822:	06f41963          	bne	s0,a5,2894 <__swbuf_r+0x96>
    2826:	40c0                	lw	s0,4(s1)
    2828:	4c1c                	lw	a5,24(s0)
    282a:	c41c                	sw	a5,8(s0)
    282c:	00c45783          	lhu	a5,12(s0)
    2830:	8ba1                	andi	a5,a5,8
    2832:	c3c9                	beqz	a5,28b4 <__swbuf_r+0xb6>
    2834:	481c                	lw	a5,16(s0)
    2836:	cfbd                	beqz	a5,28b4 <__swbuf_r+0xb6>
    2838:	481c                	lw	a5,16(s0)
    283a:	4008                	lw	a0,0(s0)
    283c:	0ff97993          	andi	s3,s2,255
    2840:	0ff97913          	andi	s2,s2,255
    2844:	8d1d                	sub	a0,a0,a5
    2846:	485c                	lw	a5,20(s0)
    2848:	00f54663          	blt	a0,a5,2854 <__swbuf_r+0x56>
    284c:	85a2                	mv	a1,s0
    284e:	8526                	mv	a0,s1
    2850:	2e11                	jal	2b64 <_fflush_r>
    2852:	e52d                	bnez	a0,28bc <__swbuf_r+0xbe>
    2854:	441c                	lw	a5,8(s0)
    2856:	0505                	addi	a0,a0,1
    2858:	17fd                	addi	a5,a5,-1
    285a:	c41c                	sw	a5,8(s0)
    285c:	401c                	lw	a5,0(s0)
    285e:	00178713          	addi	a4,a5,1
    2862:	c018                	sw	a4,0(s0)
    2864:	01378023          	sb	s3,0(a5)
    2868:	485c                	lw	a5,20(s0)
    286a:	00a78963          	beq	a5,a0,287c <__swbuf_r+0x7e>
    286e:	00c45783          	lhu	a5,12(s0)
    2872:	8b85                	andi	a5,a5,1
    2874:	cb81                	beqz	a5,2884 <__swbuf_r+0x86>
    2876:	47a9                	li	a5,10
    2878:	00f91663          	bne	s2,a5,2884 <__swbuf_r+0x86>
    287c:	85a2                	mv	a1,s0
    287e:	8526                	mv	a0,s1
    2880:	24d5                	jal	2b64 <_fflush_r>
    2882:	ed0d                	bnez	a0,28bc <__swbuf_r+0xbe>
    2884:	40f2                	lw	ra,28(sp)
    2886:	4462                	lw	s0,24(sp)
    2888:	854a                	mv	a0,s2
    288a:	44d2                	lw	s1,20(sp)
    288c:	4942                	lw	s2,16(sp)
    288e:	49b2                	lw	s3,12(sp)
    2890:	6105                	addi	sp,sp,32
    2892:	8082                	ret
    2894:	00001797          	auipc	a5,0x1
    2898:	80478793          	addi	a5,a5,-2044 # 3098 <__sf_fake_stdout>
    289c:	00f41463          	bne	s0,a5,28a4 <__swbuf_r+0xa6>
    28a0:	4480                	lw	s0,8(s1)
    28a2:	b759                	j	2828 <__swbuf_r+0x2a>
    28a4:	00000797          	auipc	a5,0x0
    28a8:	7b478793          	addi	a5,a5,1972 # 3058 <__sf_fake_stderr>
    28ac:	f6f41ee3          	bne	s0,a5,2828 <__swbuf_r+0x2a>
    28b0:	44c0                	lw	s0,12(s1)
    28b2:	bf9d                	j	2828 <__swbuf_r+0x2a>
    28b4:	85a2                	mv	a1,s0
    28b6:	8526                	mv	a0,s1
    28b8:	281d                	jal	28ee <__swsetup_r>
    28ba:	dd3d                	beqz	a0,2838 <__swbuf_r+0x3a>
    28bc:	597d                	li	s2,-1
    28be:	b7d9                	j	2884 <__swbuf_r+0x86>

000028c0 <_write_r>:
_write_r():
    28c0:	1141                	addi	sp,sp,-16
    28c2:	c422                	sw	s0,8(sp)
    28c4:	842a                	mv	s0,a0
    28c6:	852e                	mv	a0,a1
    28c8:	85b2                	mv	a1,a2
    28ca:	8636                	mv	a2,a3
    28cc:	ce01ae23          	sw	zero,-772(gp) # 2000118c <errno>
    28d0:	c606                	sw	ra,12(sp)
    28d2:	99bfe0ef          	jal	ra,126c <_write>
    28d6:	57fd                	li	a5,-1
    28d8:	00f51763          	bne	a0,a5,28e6 <_write_r+0x26>
    28dc:	cfc18793          	addi	a5,gp,-772 # 2000118c <errno>
    28e0:	439c                	lw	a5,0(a5)
    28e2:	c391                	beqz	a5,28e6 <_write_r+0x26>
    28e4:	c01c                	sw	a5,0(s0)
    28e6:	40b2                	lw	ra,12(sp)
    28e8:	4422                	lw	s0,8(sp)
    28ea:	0141                	addi	sp,sp,16
    28ec:	8082                	ret

000028ee <__swsetup_r>:
__swsetup_r():
    28ee:	1141                	addi	sp,sp,-16
    28f0:	1fffe797          	auipc	a5,0x1fffe
    28f4:	3a478793          	addi	a5,a5,932 # 20000c94 <_impure_ptr>
    28f8:	c226                	sw	s1,4(sp)
    28fa:	4384                	lw	s1,0(a5)
    28fc:	c422                	sw	s0,8(sp)
    28fe:	c04a                	sw	s2,0(sp)
    2900:	c606                	sw	ra,12(sp)
    2902:	892a                	mv	s2,a0
    2904:	842e                	mv	s0,a1
    2906:	c491                	beqz	s1,2912 <__swsetup_r+0x24>
    2908:	4c9c                	lw	a5,24(s1)
    290a:	e781                	bnez	a5,2912 <__swsetup_r+0x24>
    290c:	8526                	mv	a0,s1
    290e:	998ff0ef          	jal	ra,1aa6 <__sinit>
    2912:	00000797          	auipc	a5,0x0
    2916:	76678793          	addi	a5,a5,1894 # 3078 <__sf_fake_stdin>
    291a:	02f41c63          	bne	s0,a5,2952 <__swsetup_r+0x64>
    291e:	40c0                	lw	s0,4(s1)
    2920:	00c41703          	lh	a4,12(s0)
    2924:	01071793          	slli	a5,a4,0x10
    2928:	83c1                	srli	a5,a5,0x10
    292a:	0087f693          	andi	a3,a5,8
    292e:	eeb5                	bnez	a3,29aa <__swsetup_r+0xbc>
    2930:	0107f693          	andi	a3,a5,16
    2934:	ee9d                	bnez	a3,2972 <__swsetup_r+0x84>
    2936:	47a5                	li	a5,9
    2938:	00f92023          	sw	a5,0(s2)
    293c:	04076713          	ori	a4,a4,64
    2940:	00e41623          	sh	a4,12(s0)
    2944:	557d                	li	a0,-1
    2946:	40b2                	lw	ra,12(sp)
    2948:	4422                	lw	s0,8(sp)
    294a:	4492                	lw	s1,4(sp)
    294c:	4902                	lw	s2,0(sp)
    294e:	0141                	addi	sp,sp,16
    2950:	8082                	ret
    2952:	00000797          	auipc	a5,0x0
    2956:	74678793          	addi	a5,a5,1862 # 3098 <__sf_fake_stdout>
    295a:	00f41463          	bne	s0,a5,2962 <__swsetup_r+0x74>
    295e:	4480                	lw	s0,8(s1)
    2960:	b7c1                	j	2920 <__swsetup_r+0x32>
    2962:	00000797          	auipc	a5,0x0
    2966:	6f678793          	addi	a5,a5,1782 # 3058 <__sf_fake_stderr>
    296a:	faf41be3          	bne	s0,a5,2920 <__swsetup_r+0x32>
    296e:	44c0                	lw	s0,12(s1)
    2970:	bf45                	j	2920 <__swsetup_r+0x32>
    2972:	8b91                	andi	a5,a5,4
    2974:	c78d                	beqz	a5,299e <__swsetup_r+0xb0>
    2976:	584c                	lw	a1,52(s0)
    2978:	c989                	beqz	a1,298a <__swsetup_r+0x9c>
    297a:	04440793          	addi	a5,s0,68
    297e:	00f58463          	beq	a1,a5,2986 <__swsetup_r+0x98>
    2982:	854a                	mv	a0,s2
    2984:	2ec1                	jal	2d54 <_free_r>
    2986:	02042a23          	sw	zero,52(s0)
    298a:	00c45783          	lhu	a5,12(s0)
    298e:	00042223          	sw	zero,4(s0)
    2992:	fdb7f793          	andi	a5,a5,-37
    2996:	00f41623          	sh	a5,12(s0)
    299a:	481c                	lw	a5,16(s0)
    299c:	c01c                	sw	a5,0(s0)
    299e:	00c45783          	lhu	a5,12(s0)
    29a2:	0087e793          	ori	a5,a5,8
    29a6:	00f41623          	sh	a5,12(s0)
    29aa:	481c                	lw	a5,16(s0)
    29ac:	ef81                	bnez	a5,29c4 <__swsetup_r+0xd6>
    29ae:	00c45783          	lhu	a5,12(s0)
    29b2:	20000713          	li	a4,512
    29b6:	2807f793          	andi	a5,a5,640
    29ba:	00e78563          	beq	a5,a4,29c4 <__swsetup_r+0xd6>
    29be:	85a2                	mv	a1,s0
    29c0:	854a                	mv	a0,s2
    29c2:	2471                	jal	2c4e <__smakebuf_r>
    29c4:	00c45783          	lhu	a5,12(s0)
    29c8:	0017f713          	andi	a4,a5,1
    29cc:	c705                	beqz	a4,29f4 <__swsetup_r+0x106>
    29ce:	485c                	lw	a5,20(s0)
    29d0:	00042423          	sw	zero,8(s0)
    29d4:	40f007b3          	neg	a5,a5
    29d8:	cc1c                	sw	a5,24(s0)
    29da:	481c                	lw	a5,16(s0)
    29dc:	4501                	li	a0,0
    29de:	f7a5                	bnez	a5,2946 <__swsetup_r+0x58>
    29e0:	00c41783          	lh	a5,12(s0)
    29e4:	0807f713          	andi	a4,a5,128
    29e8:	df39                	beqz	a4,2946 <__swsetup_r+0x58>
    29ea:	0407e793          	ori	a5,a5,64
    29ee:	00f41623          	sh	a5,12(s0)
    29f2:	bf89                	j	2944 <__swsetup_r+0x56>
    29f4:	8b89                	andi	a5,a5,2
    29f6:	4701                	li	a4,0
    29f8:	e391                	bnez	a5,29fc <__swsetup_r+0x10e>
    29fa:	4858                	lw	a4,20(s0)
    29fc:	c418                	sw	a4,8(s0)
    29fe:	bff1                	j	29da <__swsetup_r+0xec>

00002a00 <_close_r>:
_close_r():
    2a00:	1141                	addi	sp,sp,-16
    2a02:	c422                	sw	s0,8(sp)
    2a04:	842a                	mv	s0,a0
    2a06:	852e                	mv	a0,a1
    2a08:	ce01ae23          	sw	zero,-772(gp) # 2000118c <errno>
    2a0c:	c606                	sw	ra,12(sp)
    2a0e:	29c1                	jal	2ede <_close>
    2a10:	57fd                	li	a5,-1
    2a12:	00f51763          	bne	a0,a5,2a20 <_close_r+0x20>
    2a16:	cfc18793          	addi	a5,gp,-772 # 2000118c <errno>
    2a1a:	439c                	lw	a5,0(a5)
    2a1c:	c391                	beqz	a5,2a20 <_close_r+0x20>
    2a1e:	c01c                	sw	a5,0(s0)
    2a20:	40b2                	lw	ra,12(sp)
    2a22:	4422                	lw	s0,8(sp)
    2a24:	0141                	addi	sp,sp,16
    2a26:	8082                	ret

00002a28 <__sflush_r>:
__sflush_r():
    2a28:	00c5d783          	lhu	a5,12(a1)
    2a2c:	1101                	addi	sp,sp,-32
    2a2e:	cc22                	sw	s0,24(sp)
    2a30:	ca26                	sw	s1,20(sp)
    2a32:	ce06                	sw	ra,28(sp)
    2a34:	c84a                	sw	s2,16(sp)
    2a36:	c64e                	sw	s3,12(sp)
    2a38:	0087f713          	andi	a4,a5,8
    2a3c:	84aa                	mv	s1,a0
    2a3e:	842e                	mv	s0,a1
    2a40:	ef71                	bnez	a4,2b1c <__sflush_r+0xf4>
    2a42:	41d8                	lw	a4,4(a1)
    2a44:	00e04d63          	bgtz	a4,2a5e <__sflush_r+0x36>
    2a48:	41b8                	lw	a4,64(a1)
    2a4a:	00e04a63          	bgtz	a4,2a5e <__sflush_r+0x36>
    2a4e:	4501                	li	a0,0
    2a50:	40f2                	lw	ra,28(sp)
    2a52:	4462                	lw	s0,24(sp)
    2a54:	44d2                	lw	s1,20(sp)
    2a56:	4942                	lw	s2,16(sp)
    2a58:	49b2                	lw	s3,12(sp)
    2a5a:	6105                	addi	sp,sp,32
    2a5c:	8082                	ret
    2a5e:	5458                	lw	a4,44(s0)
    2a60:	d77d                	beqz	a4,2a4e <__sflush_r+0x26>
    2a62:	0004a903          	lw	s2,0(s1)
    2a66:	01379693          	slli	a3,a5,0x13
    2a6a:	0004a023          	sw	zero,0(s1)
    2a6e:	0606dd63          	bgez	a3,2ae8 <__sflush_r+0xc0>
    2a72:	4870                	lw	a2,84(s0)
    2a74:	00c45783          	lhu	a5,12(s0)
    2a78:	8b91                	andi	a5,a5,4
    2a7a:	c799                	beqz	a5,2a88 <__sflush_r+0x60>
    2a7c:	405c                	lw	a5,4(s0)
    2a7e:	8e1d                	sub	a2,a2,a5
    2a80:	585c                	lw	a5,52(s0)
    2a82:	c399                	beqz	a5,2a88 <__sflush_r+0x60>
    2a84:	403c                	lw	a5,64(s0)
    2a86:	8e1d                	sub	a2,a2,a5
    2a88:	545c                	lw	a5,44(s0)
    2a8a:	500c                	lw	a1,32(s0)
    2a8c:	4681                	li	a3,0
    2a8e:	8526                	mv	a0,s1
    2a90:	9782                	jalr	a5
    2a92:	57fd                	li	a5,-1
    2a94:	00c45703          	lhu	a4,12(s0)
    2a98:	00f51d63          	bne	a0,a5,2ab2 <__sflush_r+0x8a>
    2a9c:	4094                	lw	a3,0(s1)
    2a9e:	47f5                	li	a5,29
    2aa0:	06d7e863          	bltu	a5,a3,2b10 <__sflush_r+0xe8>
    2aa4:	204007b7          	lui	a5,0x20400
    2aa8:	0785                	addi	a5,a5,1
    2aaa:	00d7d7b3          	srl	a5,a5,a3
    2aae:	8b85                	andi	a5,a5,1
    2ab0:	c3a5                	beqz	a5,2b10 <__sflush_r+0xe8>
    2ab2:	481c                	lw	a5,16(s0)
    2ab4:	00042223          	sw	zero,4(s0)
    2ab8:	c01c                	sw	a5,0(s0)
    2aba:	01371793          	slli	a5,a4,0x13
    2abe:	0007d863          	bgez	a5,2ace <__sflush_r+0xa6>
    2ac2:	57fd                	li	a5,-1
    2ac4:	00f51463          	bne	a0,a5,2acc <__sflush_r+0xa4>
    2ac8:	409c                	lw	a5,0(s1)
    2aca:	e391                	bnez	a5,2ace <__sflush_r+0xa6>
    2acc:	c868                	sw	a0,84(s0)
    2ace:	584c                	lw	a1,52(s0)
    2ad0:	0124a023          	sw	s2,0(s1)
    2ad4:	ddad                	beqz	a1,2a4e <__sflush_r+0x26>
    2ad6:	04440793          	addi	a5,s0,68
    2ada:	00f58463          	beq	a1,a5,2ae2 <__sflush_r+0xba>
    2ade:	8526                	mv	a0,s1
    2ae0:	2c95                	jal	2d54 <_free_r>
    2ae2:	02042a23          	sw	zero,52(s0)
    2ae6:	b7a5                	j	2a4e <__sflush_r+0x26>
    2ae8:	500c                	lw	a1,32(s0)
    2aea:	4601                	li	a2,0
    2aec:	4685                	li	a3,1
    2aee:	8526                	mv	a0,s1
    2af0:	9702                	jalr	a4
    2af2:	57fd                	li	a5,-1
    2af4:	862a                	mv	a2,a0
    2af6:	f6f51fe3          	bne	a0,a5,2a74 <__sflush_r+0x4c>
    2afa:	409c                	lw	a5,0(s1)
    2afc:	dfa5                	beqz	a5,2a74 <__sflush_r+0x4c>
    2afe:	4775                	li	a4,29
    2b00:	00e78563          	beq	a5,a4,2b0a <__sflush_r+0xe2>
    2b04:	4759                	li	a4,22
    2b06:	04e79463          	bne	a5,a4,2b4e <__sflush_r+0x126>
    2b0a:	0124a023          	sw	s2,0(s1)
    2b0e:	b781                	j	2a4e <__sflush_r+0x26>
    2b10:	04076713          	ori	a4,a4,64
    2b14:	00e41623          	sh	a4,12(s0)
    2b18:	557d                	li	a0,-1
    2b1a:	bf1d                	j	2a50 <__sflush_r+0x28>
    2b1c:	0105a983          	lw	s3,16(a1)
    2b20:	f20987e3          	beqz	s3,2a4e <__sflush_r+0x26>
    2b24:	0005a903          	lw	s2,0(a1)
    2b28:	8b8d                	andi	a5,a5,3
    2b2a:	0135a023          	sw	s3,0(a1)
    2b2e:	41390933          	sub	s2,s2,s3
    2b32:	4701                	li	a4,0
    2b34:	e391                	bnez	a5,2b38 <__sflush_r+0x110>
    2b36:	49d8                	lw	a4,20(a1)
    2b38:	c418                	sw	a4,8(s0)
    2b3a:	f1205ae3          	blez	s2,2a4e <__sflush_r+0x26>
    2b3e:	541c                	lw	a5,40(s0)
    2b40:	500c                	lw	a1,32(s0)
    2b42:	86ca                	mv	a3,s2
    2b44:	864e                	mv	a2,s3
    2b46:	8526                	mv	a0,s1
    2b48:	9782                	jalr	a5
    2b4a:	00a04963          	bgtz	a0,2b5c <__sflush_r+0x134>
    2b4e:	00c45783          	lhu	a5,12(s0)
    2b52:	0407e793          	ori	a5,a5,64
    2b56:	00f41623          	sh	a5,12(s0)
    2b5a:	bf7d                	j	2b18 <__sflush_r+0xf0>
    2b5c:	99aa                	add	s3,s3,a0
    2b5e:	40a90933          	sub	s2,s2,a0
    2b62:	bfe1                	j	2b3a <__sflush_r+0x112>

00002b64 <_fflush_r>:
_fflush_r():
    2b64:	499c                	lw	a5,16(a1)
    2b66:	c3a5                	beqz	a5,2bc6 <_fflush_r+0x62>
    2b68:	1101                	addi	sp,sp,-32
    2b6a:	cc22                	sw	s0,24(sp)
    2b6c:	ce06                	sw	ra,28(sp)
    2b6e:	842a                	mv	s0,a0
    2b70:	c519                	beqz	a0,2b7e <_fflush_r+0x1a>
    2b72:	4d1c                	lw	a5,24(a0)
    2b74:	e789                	bnez	a5,2b7e <_fflush_r+0x1a>
    2b76:	c62e                	sw	a1,12(sp)
    2b78:	f2ffe0ef          	jal	ra,1aa6 <__sinit>
    2b7c:	45b2                	lw	a1,12(sp)
    2b7e:	00000797          	auipc	a5,0x0
    2b82:	4fa78793          	addi	a5,a5,1274 # 3078 <__sf_fake_stdin>
    2b86:	00f59b63          	bne	a1,a5,2b9c <_fflush_r+0x38>
    2b8a:	404c                	lw	a1,4(s0)
    2b8c:	00c59783          	lh	a5,12(a1)
    2b90:	c795                	beqz	a5,2bbc <_fflush_r+0x58>
    2b92:	8522                	mv	a0,s0
    2b94:	4462                	lw	s0,24(sp)
    2b96:	40f2                	lw	ra,28(sp)
    2b98:	6105                	addi	sp,sp,32
    2b9a:	b579                	j	2a28 <__sflush_r>
    2b9c:	00000797          	auipc	a5,0x0
    2ba0:	4fc78793          	addi	a5,a5,1276 # 3098 <__sf_fake_stdout>
    2ba4:	00f59463          	bne	a1,a5,2bac <_fflush_r+0x48>
    2ba8:	440c                	lw	a1,8(s0)
    2baa:	b7cd                	j	2b8c <_fflush_r+0x28>
    2bac:	00000797          	auipc	a5,0x0
    2bb0:	4ac78793          	addi	a5,a5,1196 # 3058 <__sf_fake_stderr>
    2bb4:	fcf59ce3          	bne	a1,a5,2b8c <_fflush_r+0x28>
    2bb8:	444c                	lw	a1,12(s0)
    2bba:	bfc9                	j	2b8c <_fflush_r+0x28>
    2bbc:	40f2                	lw	ra,28(sp)
    2bbe:	4462                	lw	s0,24(sp)
    2bc0:	4501                	li	a0,0
    2bc2:	6105                	addi	sp,sp,32
    2bc4:	8082                	ret
    2bc6:	4501                	li	a0,0
    2bc8:	8082                	ret

00002bca <_lseek_r>:
_lseek_r():
    2bca:	1141                	addi	sp,sp,-16
    2bcc:	c422                	sw	s0,8(sp)
    2bce:	842a                	mv	s0,a0
    2bd0:	852e                	mv	a0,a1
    2bd2:	85b2                	mv	a1,a2
    2bd4:	8636                	mv	a2,a3
    2bd6:	ce01ae23          	sw	zero,-772(gp) # 2000118c <errno>
    2bda:	c606                	sw	ra,12(sp)
    2bdc:	261d                	jal	2f02 <_lseek>
    2bde:	57fd                	li	a5,-1
    2be0:	00f51763          	bne	a0,a5,2bee <_lseek_r+0x24>
    2be4:	cfc18793          	addi	a5,gp,-772 # 2000118c <errno>
    2be8:	439c                	lw	a5,0(a5)
    2bea:	c391                	beqz	a5,2bee <_lseek_r+0x24>
    2bec:	c01c                	sw	a5,0(s0)
    2bee:	40b2                	lw	ra,12(sp)
    2bf0:	4422                	lw	s0,8(sp)
    2bf2:	0141                	addi	sp,sp,16
    2bf4:	8082                	ret

00002bf6 <__swhatbuf_r>:
__swhatbuf_r():
    2bf6:	7119                	addi	sp,sp,-128
    2bf8:	daa6                	sw	s1,116(sp)
    2bfa:	84ae                	mv	s1,a1
    2bfc:	00e59583          	lh	a1,14(a1)
    2c00:	dca2                	sw	s0,120(sp)
    2c02:	de86                	sw	ra,124(sp)
    2c04:	8432                	mv	s0,a2
    2c06:	0005dc63          	bgez	a1,2c1e <__swhatbuf_r+0x28>
    2c0a:	00c4d783          	lhu	a5,12(s1)
    2c0e:	0006a023          	sw	zero,0(a3)
    2c12:	0807f793          	andi	a5,a5,128
    2c16:	e39d                	bnez	a5,2c3c <__swhatbuf_r+0x46>
    2c18:	40000793          	li	a5,1024
    2c1c:	a015                	j	2c40 <__swhatbuf_r+0x4a>
    2c1e:	0830                	addi	a2,sp,24
    2c20:	c636                	sw	a3,12(sp)
    2c22:	2c99                	jal	2e78 <_fstat_r>
    2c24:	46b2                	lw	a3,12(sp)
    2c26:	fe0542e3          	bltz	a0,2c0a <__swhatbuf_r+0x14>
    2c2a:	4772                	lw	a4,28(sp)
    2c2c:	67bd                	lui	a5,0xf
    2c2e:	8ff9                	and	a5,a5,a4
    2c30:	7779                	lui	a4,0xffffe
    2c32:	97ba                	add	a5,a5,a4
    2c34:	0017b793          	seqz	a5,a5
    2c38:	c29c                	sw	a5,0(a3)
    2c3a:	bff9                	j	2c18 <__swhatbuf_r+0x22>
    2c3c:	04000793          	li	a5,64
    2c40:	c01c                	sw	a5,0(s0)
    2c42:	50f6                	lw	ra,124(sp)
    2c44:	5466                	lw	s0,120(sp)
    2c46:	54d6                	lw	s1,116(sp)
    2c48:	4501                	li	a0,0
    2c4a:	6109                	addi	sp,sp,128
    2c4c:	8082                	ret

00002c4e <__smakebuf_r>:
__smakebuf_r():
    2c4e:	00c5d783          	lhu	a5,12(a1)
    2c52:	1101                	addi	sp,sp,-32
    2c54:	cc22                	sw	s0,24(sp)
    2c56:	ce06                	sw	ra,28(sp)
    2c58:	ca26                	sw	s1,20(sp)
    2c5a:	c84a                	sw	s2,16(sp)
    2c5c:	8b89                	andi	a5,a5,2
    2c5e:	842e                	mv	s0,a1
    2c60:	cf89                	beqz	a5,2c7a <__smakebuf_r+0x2c>
    2c62:	04740793          	addi	a5,s0,71
    2c66:	c01c                	sw	a5,0(s0)
    2c68:	c81c                	sw	a5,16(s0)
    2c6a:	4785                	li	a5,1
    2c6c:	c85c                	sw	a5,20(s0)
    2c6e:	40f2                	lw	ra,28(sp)
    2c70:	4462                	lw	s0,24(sp)
    2c72:	44d2                	lw	s1,20(sp)
    2c74:	4942                	lw	s2,16(sp)
    2c76:	6105                	addi	sp,sp,32
    2c78:	8082                	ret
    2c7a:	0074                	addi	a3,sp,12
    2c7c:	0030                	addi	a2,sp,8
    2c7e:	84aa                	mv	s1,a0
    2c80:	3f9d                	jal	2bf6 <__swhatbuf_r>
    2c82:	45a2                	lw	a1,8(sp)
    2c84:	892a                	mv	s2,a0
    2c86:	8526                	mv	a0,s1
    2c88:	f95fe0ef          	jal	ra,1c1c <_malloc_r>
    2c8c:	ed01                	bnez	a0,2ca4 <__smakebuf_r+0x56>
    2c8e:	00c41783          	lh	a5,12(s0)
    2c92:	2007f713          	andi	a4,a5,512
    2c96:	ff61                	bnez	a4,2c6e <__smakebuf_r+0x20>
    2c98:	9bf1                	andi	a5,a5,-4
    2c9a:	0027e793          	ori	a5,a5,2
    2c9e:	00f41623          	sh	a5,12(s0)
    2ca2:	b7c1                	j	2c62 <__smakebuf_r+0x14>
    2ca4:	fffff797          	auipc	a5,0xfffff
    2ca8:	db278793          	addi	a5,a5,-590 # 1a56 <_cleanup_r>
    2cac:	d49c                	sw	a5,40(s1)
    2cae:	00c45783          	lhu	a5,12(s0)
    2cb2:	c008                	sw	a0,0(s0)
    2cb4:	c808                	sw	a0,16(s0)
    2cb6:	0807e793          	ori	a5,a5,128
    2cba:	00f41623          	sh	a5,12(s0)
    2cbe:	47a2                	lw	a5,8(sp)
    2cc0:	c85c                	sw	a5,20(s0)
    2cc2:	47b2                	lw	a5,12(sp)
    2cc4:	cf89                	beqz	a5,2cde <__smakebuf_r+0x90>
    2cc6:	00e41583          	lh	a1,14(s0)
    2cca:	8526                	mv	a0,s1
    2ccc:	2ad9                	jal	2ea2 <_isatty_r>
    2cce:	c901                	beqz	a0,2cde <__smakebuf_r+0x90>
    2cd0:	00c45783          	lhu	a5,12(s0)
    2cd4:	9bf1                	andi	a5,a5,-4
    2cd6:	0017e793          	ori	a5,a5,1
    2cda:	00f41623          	sh	a5,12(s0)
    2cde:	00c45783          	lhu	a5,12(s0)
    2ce2:	00f96933          	or	s2,s2,a5
    2ce6:	01241623          	sh	s2,12(s0)
    2cea:	b751                	j	2c6e <__smakebuf_r+0x20>

00002cec <memchr>:
memchr():
    2cec:	0ff5f593          	andi	a1,a1,255
    2cf0:	962a                	add	a2,a2,a0
    2cf2:	00c51463          	bne	a0,a2,2cfa <memchr+0xe>
    2cf6:	4501                	li	a0,0
    2cf8:	8082                	ret
    2cfa:	00054783          	lbu	a5,0(a0)
    2cfe:	feb78de3          	beq	a5,a1,2cf8 <memchr+0xc>
    2d02:	0505                	addi	a0,a0,1
    2d04:	b7fd                	j	2cf2 <memchr+0x6>

00002d06 <memmove>:
memmove():
    2d06:	04a5f363          	bgeu	a1,a0,2d4c <memmove+0x46>
    2d0a:	00c586b3          	add	a3,a1,a2
    2d0e:	02d57f63          	bgeu	a0,a3,2d4c <memmove+0x46>
    2d12:	fff64593          	not	a1,a2
    2d16:	4781                	li	a5,0
    2d18:	17fd                	addi	a5,a5,-1
    2d1a:	00f59363          	bne	a1,a5,2d20 <memmove+0x1a>
    2d1e:	8082                	ret
    2d20:	00f68733          	add	a4,a3,a5
    2d24:	00074803          	lbu	a6,0(a4) # ffffe000 <_eusrstack+0xdfff7800>
    2d28:	00c78733          	add	a4,a5,a2
    2d2c:	972a                	add	a4,a4,a0
    2d2e:	01070023          	sb	a6,0(a4)
    2d32:	b7dd                	j	2d18 <memmove+0x12>
    2d34:	00f58733          	add	a4,a1,a5
    2d38:	00074683          	lbu	a3,0(a4)
    2d3c:	00f50733          	add	a4,a0,a5
    2d40:	0785                	addi	a5,a5,1
    2d42:	00d70023          	sb	a3,0(a4)
    2d46:	fef617e3          	bne	a2,a5,2d34 <memmove+0x2e>
    2d4a:	8082                	ret
    2d4c:	4781                	li	a5,0
    2d4e:	bfe5                	j	2d46 <memmove+0x40>

00002d50 <__malloc_lock>:
__malloc_lock():
    2d50:	8082                	ret

00002d52 <__malloc_unlock>:
__malloc_unlock():
    2d52:	8082                	ret

00002d54 <_free_r>:
_free_r():
    2d54:	c1cd                	beqz	a1,2df6 <_free_r+0xa2>
    2d56:	ffc5a783          	lw	a5,-4(a1)
    2d5a:	1141                	addi	sp,sp,-16
    2d5c:	c422                	sw	s0,8(sp)
    2d5e:	c606                	sw	ra,12(sp)
    2d60:	c226                	sw	s1,4(sp)
    2d62:	ffc58413          	addi	s0,a1,-4
    2d66:	0007d363          	bgez	a5,2d6c <_free_r+0x18>
    2d6a:	943e                	add	s0,s0,a5
    2d6c:	84aa                	mv	s1,a0
    2d6e:	37cd                	jal	2d50 <__malloc_lock>
    2d70:	83018793          	addi	a5,gp,-2000 # 20000cc0 <__malloc_free_list>
    2d74:	439c                	lw	a5,0(a5)
    2d76:	eb99                	bnez	a5,2d8c <_free_r+0x38>
    2d78:	00042223          	sw	zero,4(s0)
    2d7c:	8281a823          	sw	s0,-2000(gp) # 20000cc0 <__malloc_free_list>
    2d80:	4422                	lw	s0,8(sp)
    2d82:	40b2                	lw	ra,12(sp)
    2d84:	8526                	mv	a0,s1
    2d86:	4492                	lw	s1,4(sp)
    2d88:	0141                	addi	sp,sp,16
    2d8a:	b7e1                	j	2d52 <__malloc_unlock>
    2d8c:	00f47e63          	bgeu	s0,a5,2da8 <_free_r+0x54>
    2d90:	4014                	lw	a3,0(s0)
    2d92:	00d40733          	add	a4,s0,a3
    2d96:	00e79663          	bne	a5,a4,2da2 <_free_r+0x4e>
    2d9a:	4398                	lw	a4,0(a5)
    2d9c:	43dc                	lw	a5,4(a5)
    2d9e:	9736                	add	a4,a4,a3
    2da0:	c018                	sw	a4,0(s0)
    2da2:	c05c                	sw	a5,4(s0)
    2da4:	bfe1                	j	2d7c <_free_r+0x28>
    2da6:	87ba                	mv	a5,a4
    2da8:	43d8                	lw	a4,4(a5)
    2daa:	c319                	beqz	a4,2db0 <_free_r+0x5c>
    2dac:	fee47de3          	bgeu	s0,a4,2da6 <_free_r+0x52>
    2db0:	4394                	lw	a3,0(a5)
    2db2:	00d78633          	add	a2,a5,a3
    2db6:	00861f63          	bne	a2,s0,2dd4 <_free_r+0x80>
    2dba:	4010                	lw	a2,0(s0)
    2dbc:	96b2                	add	a3,a3,a2
    2dbe:	c394                	sw	a3,0(a5)
    2dc0:	00d78633          	add	a2,a5,a3
    2dc4:	fac71ee3          	bne	a4,a2,2d80 <_free_r+0x2c>
    2dc8:	4310                	lw	a2,0(a4)
    2dca:	4358                	lw	a4,4(a4)
    2dcc:	96b2                	add	a3,a3,a2
    2dce:	c394                	sw	a3,0(a5)
    2dd0:	c3d8                	sw	a4,4(a5)
    2dd2:	b77d                	j	2d80 <_free_r+0x2c>
    2dd4:	00c47563          	bgeu	s0,a2,2dde <_free_r+0x8a>
    2dd8:	47b1                	li	a5,12
    2dda:	c09c                	sw	a5,0(s1)
    2ddc:	b755                	j	2d80 <_free_r+0x2c>
    2dde:	4010                	lw	a2,0(s0)
    2de0:	00c406b3          	add	a3,s0,a2
    2de4:	00d71663          	bne	a4,a3,2df0 <_free_r+0x9c>
    2de8:	4314                	lw	a3,0(a4)
    2dea:	4358                	lw	a4,4(a4)
    2dec:	96b2                	add	a3,a3,a2
    2dee:	c014                	sw	a3,0(s0)
    2df0:	c058                	sw	a4,4(s0)
    2df2:	c3c0                	sw	s0,4(a5)
    2df4:	b771                	j	2d80 <_free_r+0x2c>
    2df6:	8082                	ret

00002df8 <_realloc_r>:
_realloc_r():
    2df8:	e581                	bnez	a1,2e00 <_realloc_r+0x8>
    2dfa:	85b2                	mv	a1,a2
    2dfc:	e21fe06f          	j	1c1c <_malloc_r>
    2e00:	1101                	addi	sp,sp,-32
    2e02:	cc22                	sw	s0,24(sp)
    2e04:	ce06                	sw	ra,28(sp)
    2e06:	ca26                	sw	s1,20(sp)
    2e08:	c84a                	sw	s2,16(sp)
    2e0a:	c64e                	sw	s3,12(sp)
    2e0c:	8432                	mv	s0,a2
    2e0e:	ea19                	bnez	a2,2e24 <_realloc_r+0x2c>
    2e10:	3791                	jal	2d54 <_free_r>
    2e12:	4901                	li	s2,0
    2e14:	40f2                	lw	ra,28(sp)
    2e16:	4462                	lw	s0,24(sp)
    2e18:	854a                	mv	a0,s2
    2e1a:	44d2                	lw	s1,20(sp)
    2e1c:	4942                	lw	s2,16(sp)
    2e1e:	49b2                	lw	s3,12(sp)
    2e20:	6105                	addi	sp,sp,32
    2e22:	8082                	ret
    2e24:	84ae                	mv	s1,a1
    2e26:	89aa                	mv	s3,a0
    2e28:	204d                	jal	2eca <_malloc_usable_size_r>
    2e2a:	8926                	mv	s2,s1
    2e2c:	fe8574e3          	bgeu	a0,s0,2e14 <_realloc_r+0x1c>
    2e30:	85a2                	mv	a1,s0
    2e32:	854e                	mv	a0,s3
    2e34:	de9fe0ef          	jal	ra,1c1c <_malloc_r>
    2e38:	892a                	mv	s2,a0
    2e3a:	dd69                	beqz	a0,2e14 <_realloc_r+0x1c>
    2e3c:	85a6                	mv	a1,s1
    2e3e:	8622                	mv	a2,s0
    2e40:	a21fe0ef          	jal	ra,1860 <memcpy>
    2e44:	85a6                	mv	a1,s1
    2e46:	854e                	mv	a0,s3
    2e48:	3731                	jal	2d54 <_free_r>
    2e4a:	b7e9                	j	2e14 <_realloc_r+0x1c>

00002e4c <_read_r>:
_read_r():
    2e4c:	1141                	addi	sp,sp,-16
    2e4e:	c422                	sw	s0,8(sp)
    2e50:	842a                	mv	s0,a0
    2e52:	852e                	mv	a0,a1
    2e54:	85b2                	mv	a1,a2
    2e56:	8636                	mv	a2,a3
    2e58:	ce01ae23          	sw	zero,-772(gp) # 2000118c <errno>
    2e5c:	c606                	sw	ra,12(sp)
    2e5e:	2845                	jal	2f0e <_read>
    2e60:	57fd                	li	a5,-1
    2e62:	00f51763          	bne	a0,a5,2e70 <_read_r+0x24>
    2e66:	cfc18793          	addi	a5,gp,-772 # 2000118c <errno>
    2e6a:	439c                	lw	a5,0(a5)
    2e6c:	c391                	beqz	a5,2e70 <_read_r+0x24>
    2e6e:	c01c                	sw	a5,0(s0)
    2e70:	40b2                	lw	ra,12(sp)
    2e72:	4422                	lw	s0,8(sp)
    2e74:	0141                	addi	sp,sp,16
    2e76:	8082                	ret

00002e78 <_fstat_r>:
_fstat_r():
    2e78:	1141                	addi	sp,sp,-16
    2e7a:	c422                	sw	s0,8(sp)
    2e7c:	842a                	mv	s0,a0
    2e7e:	852e                	mv	a0,a1
    2e80:	85b2                	mv	a1,a2
    2e82:	ce01ae23          	sw	zero,-772(gp) # 2000118c <errno>
    2e86:	c606                	sw	ra,12(sp)
    2e88:	208d                	jal	2eea <_fstat>
    2e8a:	57fd                	li	a5,-1
    2e8c:	00f51763          	bne	a0,a5,2e9a <_fstat_r+0x22>
    2e90:	cfc18793          	addi	a5,gp,-772 # 2000118c <errno>
    2e94:	439c                	lw	a5,0(a5)
    2e96:	c391                	beqz	a5,2e9a <_fstat_r+0x22>
    2e98:	c01c                	sw	a5,0(s0)
    2e9a:	40b2                	lw	ra,12(sp)
    2e9c:	4422                	lw	s0,8(sp)
    2e9e:	0141                	addi	sp,sp,16
    2ea0:	8082                	ret

00002ea2 <_isatty_r>:
_isatty_r():
    2ea2:	1141                	addi	sp,sp,-16
    2ea4:	c422                	sw	s0,8(sp)
    2ea6:	842a                	mv	s0,a0
    2ea8:	852e                	mv	a0,a1
    2eaa:	ce01ae23          	sw	zero,-772(gp) # 2000118c <errno>
    2eae:	c606                	sw	ra,12(sp)
    2eb0:	2099                	jal	2ef6 <_isatty>
    2eb2:	57fd                	li	a5,-1
    2eb4:	00f51763          	bne	a0,a5,2ec2 <_isatty_r+0x20>
    2eb8:	cfc18793          	addi	a5,gp,-772 # 2000118c <errno>
    2ebc:	439c                	lw	a5,0(a5)
    2ebe:	c391                	beqz	a5,2ec2 <_isatty_r+0x20>
    2ec0:	c01c                	sw	a5,0(s0)
    2ec2:	40b2                	lw	ra,12(sp)
    2ec4:	4422                	lw	s0,8(sp)
    2ec6:	0141                	addi	sp,sp,16
    2ec8:	8082                	ret

00002eca <_malloc_usable_size_r>:
_malloc_usable_size_r():
    2eca:	ffc5a783          	lw	a5,-4(a1)
    2ece:	ffc78513          	addi	a0,a5,-4
    2ed2:	0007d563          	bgez	a5,2edc <_malloc_usable_size_r+0x12>
    2ed6:	95aa                	add	a1,a1,a0
    2ed8:	419c                	lw	a5,0(a1)
    2eda:	953e                	add	a0,a0,a5
    2edc:	8082                	ret

00002ede <_close>:
_close():
    2ede:	05800793          	li	a5,88
    2ee2:	cef1ae23          	sw	a5,-772(gp) # 2000118c <errno>
    2ee6:	557d                	li	a0,-1
    2ee8:	8082                	ret

00002eea <_fstat>:
_fstat():
    2eea:	05800793          	li	a5,88
    2eee:	cef1ae23          	sw	a5,-772(gp) # 2000118c <errno>
    2ef2:	557d                	li	a0,-1
    2ef4:	8082                	ret

00002ef6 <_isatty>:
_isatty():
    2ef6:	05800793          	li	a5,88
    2efa:	cef1ae23          	sw	a5,-772(gp) # 2000118c <errno>
    2efe:	4501                	li	a0,0
    2f00:	8082                	ret

00002f02 <_lseek>:
_lseek():
    2f02:	05800793          	li	a5,88
    2f06:	cef1ae23          	sw	a5,-772(gp) # 2000118c <errno>
    2f0a:	557d                	li	a0,-1
    2f0c:	8082                	ret

00002f0e <_read>:
_read():
    2f0e:	05800793          	li	a5,88
    2f12:	cef1ae23          	sw	a5,-772(gp) # 2000118c <errno>
    2f16:	557d                	li	a0,-1
    2f18:	8082                	ret
    2f1a:	0000                	unimp
    2f1c:	dfa8                	sw	a0,120(a5)
    2f1e:	ffff                	0xffff
    2f20:	dfd0                	sw	a2,60(a5)
    2f22:	ffff                	0xffff
    2f24:	dff8                	sw	a4,124(a5)
    2f26:	ffff                	0xffff
    2f28:	e010                	fsw	fa2,0(s0)
    2f2a:	ffff                	0xffff
    2f2c:	e02a                	fsw	fa0,0(sp)
    2f2e:	ffff                	0xffff
    2f30:	e03a                	fsw	fa4,0(sp)
    2f32:	ffff                	0xffff
    2f34:	e062                	fsw	fs8,0(sp)
    2f36:	ffff                	0xffff
    2f38:	e08a                	fsw	ft2,64(sp)
    2f3a:	ffff                	0xffff
    2f3c:	e0a2                	fsw	fs0,64(sp)
    2f3e:	ffff                	0xffff
    2f40:	e0bc                	fsw	fa5,64(s1)
    2f42:	ffff                	0xffff
    2f44:	6425                	lui	s0,0x9
    2f46:	0000                	unimp
    2f48:	002c                	addi	a1,sp,8
    2f4a:	0000                	unimp
    2f4c:	7325                	lui	t1,0xfffe9
    2f4e:	0a0d                	addi	s4,s4,3
    2f50:	0000                	unimp
    2f52:	0000                	unimp
    2f54:	6625                	lui	a2,0x9
	...

00002f58 <__clz_tab>:
    2f58:	0100 0202 0303 0303 0404 0404 0404 0404     ................
    2f68:	0505 0505 0505 0505 0505 0505 0505 0505     ................
    2f78:	0606 0606 0606 0606 0606 0606 0606 0606     ................
    2f88:	0606 0606 0606 0606 0606 0606 0606 0606     ................
    2f98:	0707 0707 0707 0707 0707 0707 0707 0707     ................
    2fa8:	0707 0707 0707 0707 0707 0707 0707 0707     ................
    2fb8:	0707 0707 0707 0707 0707 0707 0707 0707     ................
    2fc8:	0707 0707 0707 0707 0707 0707 0707 0707     ................
    2fd8:	0808 0808 0808 0808 0808 0808 0808 0808     ................
    2fe8:	0808 0808 0808 0808 0808 0808 0808 0808     ................
    2ff8:	0808 0808 0808 0808 0808 0808 0808 0808     ................
    3008:	0808 0808 0808 0808 0808 0808 0808 0808     ................
    3018:	0808 0808 0808 0808 0808 0808 0808 0808     ................
    3028:	0808 0808 0808 0808 0808 0808 0808 0808     ................
    3038:	0808 0808 0808 0808 0808 0808 0808 0808     ................
    3048:	0808 0808 0808 0808 0808 0808 0808 0808     ................

00003058 <__sf_fake_stderr>:
	...

00003078 <__sf_fake_stdin>:
	...

00003098 <__sf_fake_stdout>:
	...
    30b8:	2d23 2b30 0020 0000 6c68 004c 6665 4567     #-0+ ...hlL.efgE
    30c8:	4746 0000 3130 3332 3534 3736 3938 4241     FG..0123456789AB
    30d8:	4443 4645 0000 0000 3130 3332 3534 3736     CDEF....01234567
    30e8:	3938 6261 6463 6665 0000 0000               89abcdef....

000030f4 <_global_impure_ptr>:
    30f4:	0c30 2000                                   0.. 
